ARM GAS  C:\Users\CHANTI~1\AppData\Local\Temp\ccoLYTYK.s 			page 1


   1              		.syntax unified
   2              		.cpu cortex-m3
   3              		.fpu softvfp
   4              		.eabi_attribute 20, 1
   5              		.eabi_attribute 21, 1
   6              		.eabi_attribute 23, 3
   7              		.eabi_attribute 24, 1
   8              		.eabi_attribute 25, 1
   9              		.eabi_attribute 26, 1
  10              		.eabi_attribute 30, 1
  11              		.eabi_attribute 34, 1
  12              		.eabi_attribute 18, 4
  13              		.thumb
  14              		.syntax unified
  15              		.file	"main.c"
  16              		.text
  17              	.Ltext0:
  18              		.cfi_sections	.debug_frame
  19              		.section	.text.startup,"ax",%progbits
  20              		.align	2
  21              		.global	startup
  22              		.thumb
  23              		.thumb_func
  24              		.type	startup, %function
  25              	startup:
  26              	.LFB63:
  27              		.file 1 "main.c"
   1:main.c        **** #include "project.h"
   2:main.c        **** 
   3:main.c        **** #define EP_IN 1
   4:main.c        **** #define EP_OUT 2
   5:main.c        **** 
   6:main.c        **** #define BUTTON_SIZE 2
   7:main.c        **** 
   8:main.c        **** 
   9:main.c        **** static uint8 BUTTON_INPUT[BUTTON_SIZE];
  10:main.c        **** static uint8 USB_INPUT[BUTTON_SIZE];
  11:main.c        **** static uint8 USB_OUTPUT[BUTTON_SIZE];
  12:main.c        **** 
  13:main.c        **** void startup(void){
  28              		.loc 1 13 0
  29              		.cfi_startproc
  30              		@ args = 0, pretend = 0, frame = 0
  31              		@ frame_needed = 0, uses_anonymous_args = 0
  32 0000 08B5     		push	{r3, lr}
  33              		.cfi_def_cfa_offset 8
  34              		.cfi_offset 3, -8
  35              		.cfi_offset 14, -4
  36              	.LVL0:
  37              	.LBB2:
  14:main.c        ****     for(uint8 i = 0; i < sizeof(BUTTON_INPUT); i++){
  38              		.loc 1 14 0
  39 0002 0023     		movs	r3, #0
  40 0004 01E0     		b	.L2
  41              	.LVL1:
  42              	.L3:
  43              		.loc 1 14 0 is_stmt 0 discriminator 3
ARM GAS  C:\Users\CHANTI~1\AppData\Local\Temp\ccoLYTYK.s 			page 2


  44 0006 0133     		adds	r3, r3, #1
  45              	.LVL2:
  46 0008 DBB2     		uxtb	r3, r3
  47              	.LVL3:
  48              	.L2:
  49              		.loc 1 14 0 discriminator 1
  50 000a 012B     		cmp	r3, #1
  51 000c FBD9     		bls	.L3
  52 000e 0023     		movs	r3, #0
  53              	.LVL4:
  54 0010 01E0     		b	.L4
  55              	.LVL5:
  56              	.L5:
  57              	.LBE2:
  58              	.LBB3:
  15:main.c        ****         BUTTON_INPUT[i] = 0;
  16:main.c        ****     }
  17:main.c        ****     for(uint8 j = 0; j < sizeof(BUTTON_INPUT); j++){
  59              		.loc 1 17 0 is_stmt 1 discriminator 3
  60 0012 0133     		adds	r3, r3, #1
  61              	.LVL6:
  62 0014 DBB2     		uxtb	r3, r3
  63              	.LVL7:
  64              	.L4:
  65              		.loc 1 17 0 is_stmt 0 discriminator 1
  66 0016 012B     		cmp	r3, #1
  67 0018 FBD9     		bls	.L5
  68 001a 0023     		movs	r3, #0
  69              	.LVL8:
  70 001c 04E0     		b	.L6
  71              	.LVL9:
  72              	.L7:
  73              	.LBE3:
  74              	.LBB4:
  18:main.c        ****         USB_INPUT[j] = 0;
  19:main.c        ****     }    
  20:main.c        ****     for(uint8 k = 0; k < sizeof(BUTTON_INPUT); k++){
  21:main.c        ****         USB_OUTPUT[k] = 0;
  75              		.loc 1 21 0 is_stmt 1 discriminator 3
  76 001e 0021     		movs	r1, #0
  77 0020 054A     		ldr	r2, .L9
  78 0022 D154     		strb	r1, [r2, r3]
  20:main.c        ****         USB_OUTPUT[k] = 0;
  79              		.loc 1 20 0 discriminator 3
  80 0024 0133     		adds	r3, r3, #1
  81              	.LVL10:
  82 0026 DBB2     		uxtb	r3, r3
  83              	.LVL11:
  84              	.L6:
  20:main.c        ****         USB_OUTPUT[k] = 0;
  85              		.loc 1 20 0 is_stmt 0 discriminator 1
  86 0028 012B     		cmp	r3, #1
  87 002a F8D9     		bls	.L7
  88              	.LBE4:
  22:main.c        ****     }  
  23:main.c        ****     USB_Start(0, USB_DWR_VDDD_OPERATION);
  89              		.loc 1 23 0 is_stmt 1
ARM GAS  C:\Users\CHANTI~1\AppData\Local\Temp\ccoLYTYK.s 			page 3


  90 002c 0221     		movs	r1, #2
  91 002e 0020     		movs	r0, #0
  92 0030 FFF7FEFF 		bl	USB_Start
  93              	.LVL12:
  94 0034 08BD     		pop	{r3, pc}
  95              	.L10:
  96 0036 00BF     		.align	2
  97              	.L9:
  98 0038 00000000 		.word	.LANCHOR0
  99              		.cfi_endproc
 100              	.LFE63:
 101              		.size	startup, .-startup
 102              		.section	.text.read_buttons,"ax",%progbits
 103              		.align	2
 104              		.global	read_buttons
 105              		.thumb
 106              		.thumb_func
 107              		.type	read_buttons, %function
 108              	read_buttons:
 109              	.LFB64:
  24:main.c        **** }
  25:main.c        **** 
  26:main.c        **** void read_buttons(void){
 110              		.loc 1 26 0
 111              		.cfi_startproc
 112              		@ args = 0, pretend = 0, frame = 0
 113              		@ frame_needed = 0, uses_anonymous_args = 0
 114 0000 08B5     		push	{r3, lr}
 115              		.cfi_def_cfa_offset 8
 116              		.cfi_offset 3, -8
 117              		.cfi_offset 14, -4
  27:main.c        ****     BUTTON_INPUT[0] = Status_1_8_Read();
 118              		.loc 1 27 0
 119 0002 FFF7FEFF 		bl	Status_1_8_Read
 120              	.LVL13:
  28:main.c        ****     BUTTON_INPUT[1] = Status_9_11_Read();
 121              		.loc 1 28 0
 122 0006 FFF7FEFF 		bl	Status_9_11_Read
 123              	.LVL14:
 124 000a 08BD     		pop	{r3, pc}
 125              		.cfi_endproc
 126              	.LFE64:
 127              		.size	read_buttons, .-read_buttons
 128              		.section	.text.main,"ax",%progbits
 129              		.align	2
 130              		.global	main
 131              		.thumb
 132              		.thumb_func
 133              		.type	main, %function
 134              	main:
 135              	.LFB65:
  29:main.c        **** }
  30:main.c        **** 
  31:main.c        **** 
  32:main.c        **** int main(void)
  33:main.c        **** {
 136              		.loc 1 33 0
ARM GAS  C:\Users\CHANTI~1\AppData\Local\Temp\ccoLYTYK.s 			page 4


 137              		.cfi_startproc
 138              		@ Volatile: function does not return.
 139              		@ args = 0, pretend = 0, frame = 0
 140              		@ frame_needed = 0, uses_anonymous_args = 0
 141 0000 08B5     		push	{r3, lr}
 142              		.cfi_def_cfa_offset 8
 143              		.cfi_offset 3, -8
 144              		.cfi_offset 14, -4
  34:main.c        ****     CyGlobalIntEnable; /* Enable global interrupts. */ 
 145              		.loc 1 34 0
 146              		.syntax unified
 147              	@ 34 "main.c" 1
 148 0002 62B6     		CPSIE   i
 149              	@ 0 "" 2
  35:main.c        ****     startup();
 150              		.loc 1 35 0
 151              		.thumb
 152              		.syntax unified
 153 0004 FFF7FEFF 		bl	startup
 154              	.LVL15:
 155              	.L15:
  36:main.c        ****     
  37:main.c        ****     for(;;)
  38:main.c        ****     {
  39:main.c        ****     led_Write(1);
 156              		.loc 1 39 0
 157 0008 0120     		movs	r0, #1
 158 000a FFF7FEFF 		bl	led_Write
 159              	.LVL16:
  40:main.c        ****     CyDelay(500);
 160              		.loc 1 40 0
 161 000e 4FF4FA70 		mov	r0, #500
 162 0012 FFF7FEFF 		bl	CyDelay
 163              	.LVL17:
  41:main.c        ****     led_Write(0);
 164              		.loc 1 41 0
 165 0016 0020     		movs	r0, #0
 166 0018 FFF7FEFF 		bl	led_Write
 167              	.LVL18:
  42:main.c        ****     CyDelay(500);
 168              		.loc 1 42 0
 169 001c 4FF4FA70 		mov	r0, #500
 170 0020 FFF7FEFF 		bl	CyDelay
 171              	.LVL19:
 172              	.L14:
  43:main.c        ****     
  44:main.c        ****      while(!USB_GetEPAckState(EP_OUT));
 173              		.loc 1 44 0 discriminator 1
 174 0024 0220     		movs	r0, #2
 175 0026 FFF7FEFF 		bl	USB_GetEPAckState
 176              	.LVL20:
 177 002a 0028     		cmp	r0, #0
 178 002c FAD0     		beq	.L14
  45:main.c        ****      
  46:main.c        ****     read_buttons();
 179              		.loc 1 46 0
 180 002e FFF7FEFF 		bl	read_buttons
ARM GAS  C:\Users\CHANTI~1\AppData\Local\Temp\ccoLYTYK.s 			page 5


 181              	.LVL21:
  47:main.c        ****     
  48:main.c        ****      // if usb reading data is empty, write
  49:main.c        ****     if (USB_GetEPState(EP_OUT) == USB_IN_BUFFER_EMPTY){
 182              		.loc 1 49 0
 183 0032 0220     		movs	r0, #2
 184 0034 FFF7FEFF 		bl	USB_GetEPState
 185              	.LVL22:
 186 0038 0128     		cmp	r0, #1
 187 003a E5D1     		bne	.L15
  50:main.c        ****         USB_LoadInEP(EP_IN, (uint8 *)USB_OUTPUT, 11); // check last parameter
 188              		.loc 1 50 0
 189 003c 0B22     		movs	r2, #11
 190 003e 0249     		ldr	r1, .L18
 191 0040 FFF7FEFF 		bl	USB_LoadInEP
 192              	.LVL23:
 193 0044 E0E7     		b	.L15
 194              	.L19:
 195 0046 00BF     		.align	2
 196              	.L18:
 197 0048 00000000 		.word	.LANCHOR0
 198              		.cfi_endproc
 199              	.LFE65:
 200              		.size	main, .-main
 201              		.bss
 202              		.align	2
 203              		.set	.LANCHOR0,. + 0
 204              		.type	USB_OUTPUT, %object
 205              		.size	USB_OUTPUT, 2
 206              	USB_OUTPUT:
 207 0000 0000     		.space	2
 208              		.text
 209              	.Letext0:
 210              		.file 2 "c:\\program files (x86)\\cypress\\psoc creator\\4.2\\psoc creator\\import\\gnu\\arm\\5.4.
 211              		.file 3 "c:\\program files (x86)\\cypress\\psoc creator\\4.2\\psoc creator\\import\\gnu\\arm\\5.4.
 212              		.file 4 "Generated_Source\\PSoC5/cytypes.h"
 213              		.file 5 "Generated_Source\\PSoC5/USB.h"
 214              		.file 6 "Generated_Source\\PSoC5/Status_1_8.h"
 215              		.file 7 "Generated_Source\\PSoC5/Status_9_11.h"
 216              		.file 8 "Generated_Source\\PSoC5/led.h"
 217              		.file 9 "Generated_Source\\PSoC5/CyLib.h"
 218              		.file 10 "Generated_Source\\PSoC5/core_cm3.h"