ARM GAS  C:\Users\ANOOP~1.DES\AppData\Local\Temp\ccB6rIna.s 			page 1


   1              		.syntax unified
   2              		.cpu cortex-m3
   3              		.fpu softvfp
   4              		.eabi_attribute 20, 1
   5              		.eabi_attribute 21, 1
   6              		.eabi_attribute 23, 3
   7              		.eabi_attribute 24, 1
   8              		.eabi_attribute 25, 1
   9              		.eabi_attribute 26, 1
  10              		.eabi_attribute 30, 1
  11              		.eabi_attribute 34, 1
  12              		.eabi_attribute 18, 4
  13              		.thumb
  14              		.syntax unified
  15              		.file	"USB_hid.c"
  16              		.text
  17              	.Ltext0:
  18              		.cfi_sections	.debug_frame
  19              		.section	.text.USB_UpdateHIDTimer,"ax",%progbits
  20              		.align	2
  21              		.global	USB_UpdateHIDTimer
  22              		.thumb
  23              		.thumb_func
  24              		.type	USB_UpdateHIDTimer, %function
  25              	USB_UpdateHIDTimer:
  26              	.LFB0:
  27              		.file 1 "Generated_Source\\PSoC5\\USB_hid.c"
   1:Generated_Source\PSoC5/USB_hid.c **** /***************************************************************************//**
   2:Generated_Source\PSoC5/USB_hid.c **** * \file USB_hid.c
   3:Generated_Source\PSoC5/USB_hid.c **** * \version 3.20
   4:Generated_Source\PSoC5/USB_hid.c **** *
   5:Generated_Source\PSoC5/USB_hid.c **** * \brief
   6:Generated_Source\PSoC5/USB_hid.c **** *  This file contains the USB HID Class request handler. 
   7:Generated_Source\PSoC5/USB_hid.c **** *
   8:Generated_Source\PSoC5/USB_hid.c **** * Related Document:
   9:Generated_Source\PSoC5/USB_hid.c **** *  Device Class Definition for Human Interface Devices (HID) Version 1.11
  10:Generated_Source\PSoC5/USB_hid.c **** *
  11:Generated_Source\PSoC5/USB_hid.c **** ********************************************************************************
  12:Generated_Source\PSoC5/USB_hid.c **** * \copyright
  13:Generated_Source\PSoC5/USB_hid.c **** * Copyright 2008-2016, Cypress Semiconductor Corporation.  All rights reserved.
  14:Generated_Source\PSoC5/USB_hid.c **** * You may use this file only in accordance with the license, terms, conditions,
  15:Generated_Source\PSoC5/USB_hid.c **** * disclaimers, and limitations in the end user license agreement accompanying
  16:Generated_Source\PSoC5/USB_hid.c **** * the software package with which this file was provided.
  17:Generated_Source\PSoC5/USB_hid.c **** *******************************************************************************/
  18:Generated_Source\PSoC5/USB_hid.c **** 
  19:Generated_Source\PSoC5/USB_hid.c **** #include "USB_hid.h"
  20:Generated_Source\PSoC5/USB_hid.c **** #include "USB_pvt.h"
  21:Generated_Source\PSoC5/USB_hid.c **** #include "cyapicallbacks.h"
  22:Generated_Source\PSoC5/USB_hid.c **** 
  23:Generated_Source\PSoC5/USB_hid.c **** 
  24:Generated_Source\PSoC5/USB_hid.c **** #if defined(USB_ENABLE_HID_CLASS)
  25:Generated_Source\PSoC5/USB_hid.c **** 
  26:Generated_Source\PSoC5/USB_hid.c **** /***************************************
  27:Generated_Source\PSoC5/USB_hid.c **** *    HID Variables
  28:Generated_Source\PSoC5/USB_hid.c **** ***************************************/
  29:Generated_Source\PSoC5/USB_hid.c **** /** This variable is initialized in the USBFS_InitComponent() API to the 
  30:Generated_Source\PSoC5/USB_hid.c ****  * PROTOCOL_REPORT value. It is controlled by the host using the 
ARM GAS  C:\Users\ANOOP~1.DES\AppData\Local\Temp\ccB6rIna.s 			page 2


  31:Generated_Source\PSoC5/USB_hid.c ****  * HID_SET_PROTOCOL request. The value is returned to the user code by the 
  32:Generated_Source\PSoC5/USB_hid.c ****  * USBFS_GetProtocol() API.*/
  33:Generated_Source\PSoC5/USB_hid.c **** volatile uint8 USB_hidProtocol[USB_MAX_INTERFACES_NUMBER];
  34:Generated_Source\PSoC5/USB_hid.c **** 
  35:Generated_Source\PSoC5/USB_hid.c **** /** This variable controls the HID report rate. It is controlled by the host 
  36:Generated_Source\PSoC5/USB_hid.c ****  * using the HID_SET_IDLE request and used by the USBFS_UpdateHIDTimer() API to 
  37:Generated_Source\PSoC5/USB_hid.c ****  * reload timer.*/
  38:Generated_Source\PSoC5/USB_hid.c **** volatile uint8 USB_hidIdleRate[USB_MAX_INTERFACES_NUMBER];
  39:Generated_Source\PSoC5/USB_hid.c **** 
  40:Generated_Source\PSoC5/USB_hid.c **** /** This variable contains the timer counter, which is decremented and reloaded 
  41:Generated_Source\PSoC5/USB_hid.c ****  * by the USBFS_UpdateHIDTimer() API.*/
  42:Generated_Source\PSoC5/USB_hid.c **** volatile uint8 USB_hidIdleTimer[USB_MAX_INTERFACES_NUMBER]; /* HID device idle rate value */
  43:Generated_Source\PSoC5/USB_hid.c **** 
  44:Generated_Source\PSoC5/USB_hid.c **** 
  45:Generated_Source\PSoC5/USB_hid.c **** /***************************************
  46:Generated_Source\PSoC5/USB_hid.c **** * Custom Declarations
  47:Generated_Source\PSoC5/USB_hid.c **** ***************************************/
  48:Generated_Source\PSoC5/USB_hid.c **** 
  49:Generated_Source\PSoC5/USB_hid.c **** /* `#START HID_CUSTOM_DECLARATIONS` Place your declaration here */
  50:Generated_Source\PSoC5/USB_hid.c **** 
  51:Generated_Source\PSoC5/USB_hid.c **** /* `#END` */
  52:Generated_Source\PSoC5/USB_hid.c **** 
  53:Generated_Source\PSoC5/USB_hid.c **** 
  54:Generated_Source\PSoC5/USB_hid.c **** /*******************************************************************************
  55:Generated_Source\PSoC5/USB_hid.c **** * Function Name: USB_UpdateHIDTimer
  56:Generated_Source\PSoC5/USB_hid.c **** ****************************************************************************//**
  57:Generated_Source\PSoC5/USB_hid.c **** *
  58:Generated_Source\PSoC5/USB_hid.c **** *  This function updates the HID Report idle timer and returns the status and 
  59:Generated_Source\PSoC5/USB_hid.c **** *  reloads the timer if it expires.
  60:Generated_Source\PSoC5/USB_hid.c **** *
  61:Generated_Source\PSoC5/USB_hid.c **** *  \param interface Contains the interface number.
  62:Generated_Source\PSoC5/USB_hid.c **** *
  63:Generated_Source\PSoC5/USB_hid.c **** * \return
  64:Generated_Source\PSoC5/USB_hid.c **** *  Returns the state of the HID timer. Symbolic names and their associated values are given here:
  65:Generated_Source\PSoC5/USB_hid.c **** *  Return Value               |Notes
  66:Generated_Source\PSoC5/USB_hid.c **** *  ---------------------------|------------------------------------------------
  67:Generated_Source\PSoC5/USB_hid.c **** *  USBFS_IDLE_TIMER_EXPIRED   | The timer expired.
  68:Generated_Source\PSoC5/USB_hid.c **** *  USBFS_IDLE_TIMER_RUNNING   | The timer is running.
  69:Generated_Source\PSoC5/USB_hid.c **** *  USBFS_IDLE_TIMER_IDEFINITE | The report is sent when data or state changes.
  70:Generated_Source\PSoC5/USB_hid.c **** *
  71:Generated_Source\PSoC5/USB_hid.c **** *
  72:Generated_Source\PSoC5/USB_hid.c **** * \reentrant
  73:Generated_Source\PSoC5/USB_hid.c **** *  No.
  74:Generated_Source\PSoC5/USB_hid.c **** *
  75:Generated_Source\PSoC5/USB_hid.c **** *******************************************************************************/
  76:Generated_Source\PSoC5/USB_hid.c **** uint8 USB_UpdateHIDTimer(uint8 interface) 
  77:Generated_Source\PSoC5/USB_hid.c **** {
  28              		.loc 1 77 0
  29              		.cfi_startproc
  30              		@ args = 0, pretend = 0, frame = 0
  31              		@ frame_needed = 0, uses_anonymous_args = 0
  32              		@ link register save eliminated.
  33              	.LVL0:
  78:Generated_Source\PSoC5/USB_hid.c ****     uint8 stat = USB_IDLE_TIMER_INDEFINITE;
  79:Generated_Source\PSoC5/USB_hid.c **** 
  80:Generated_Source\PSoC5/USB_hid.c ****     if(USB_hidIdleRate[interface] != 0u)
  34              		.loc 1 80 0
ARM GAS  C:\Users\ANOOP~1.DES\AppData\Local\Temp\ccB6rIna.s 			page 3


  35 0000 0C4B     		ldr	r3, .L5
  36 0002 1B5C     		ldrb	r3, [r3, r0]	@ zero_extendqisi2
  37 0004 13F0FF0F 		tst	r3, #255
  38 0008 12D0     		beq	.L4
  81:Generated_Source\PSoC5/USB_hid.c ****     {
  82:Generated_Source\PSoC5/USB_hid.c ****         if(USB_hidIdleTimer[interface] > 0u)
  39              		.loc 1 82 0
  40 000a 0B4B     		ldr	r3, .L5+4
  41 000c 1B5C     		ldrb	r3, [r3, r0]	@ zero_extendqisi2
  42 000e 13F0FF0F 		tst	r3, #255
  43 0012 06D0     		beq	.L3
  83:Generated_Source\PSoC5/USB_hid.c ****         {
  84:Generated_Source\PSoC5/USB_hid.c ****             USB_hidIdleTimer[interface]--;
  44              		.loc 1 84 0
  45 0014 084A     		ldr	r2, .L5+4
  46 0016 135C     		ldrb	r3, [r2, r0]	@ zero_extendqisi2
  47 0018 013B     		subs	r3, r3, #1
  48 001a DBB2     		uxtb	r3, r3
  49 001c 1354     		strb	r3, [r2, r0]
  50              	.LVL1:
  85:Generated_Source\PSoC5/USB_hid.c ****             stat = USB_IDLE_TIMER_RUNNING;
  51              		.loc 1 85 0
  52 001e 0220     		movs	r0, #2
  53              	.LVL2:
  54 0020 7047     		bx	lr
  55              	.LVL3:
  56              	.L3:
  86:Generated_Source\PSoC5/USB_hid.c ****         }
  87:Generated_Source\PSoC5/USB_hid.c ****         else
  88:Generated_Source\PSoC5/USB_hid.c ****         {
  89:Generated_Source\PSoC5/USB_hid.c ****             USB_hidIdleTimer[interface] = USB_hidIdleRate[interface];
  57              		.loc 1 89 0
  58 0022 044B     		ldr	r3, .L5
  59 0024 1B5C     		ldrb	r3, [r3, r0]	@ zero_extendqisi2
  60 0026 DBB2     		uxtb	r3, r3
  61 0028 034A     		ldr	r2, .L5+4
  62 002a 1354     		strb	r3, [r2, r0]
  63              	.LVL4:
  90:Generated_Source\PSoC5/USB_hid.c ****             stat = USB_IDLE_TIMER_EXPIRED;
  64              		.loc 1 90 0
  65 002c 0120     		movs	r0, #1
  66              	.LVL5:
  67 002e 7047     		bx	lr
  68              	.LVL6:
  69              	.L4:
  78:Generated_Source\PSoC5/USB_hid.c **** 
  70              		.loc 1 78 0
  71 0030 0020     		movs	r0, #0
  72              	.LVL7:
  91:Generated_Source\PSoC5/USB_hid.c ****         }
  92:Generated_Source\PSoC5/USB_hid.c ****     }
  93:Generated_Source\PSoC5/USB_hid.c **** 
  94:Generated_Source\PSoC5/USB_hid.c ****     return((uint8)stat);
  95:Generated_Source\PSoC5/USB_hid.c **** }
  73              		.loc 1 95 0
  74 0032 7047     		bx	lr
  75              	.L6:
ARM GAS  C:\Users\ANOOP~1.DES\AppData\Local\Temp\ccB6rIna.s 			page 4


  76              		.align	2
  77              	.L5:
  78 0034 00000000 		.word	USB_hidIdleRate
  79 0038 00000000 		.word	USB_hidIdleTimer
  80              		.cfi_endproc
  81              	.LFE0:
  82              		.size	USB_UpdateHIDTimer, .-USB_UpdateHIDTimer
  83              		.section	.text.USB_GetProtocol,"ax",%progbits
  84              		.align	2
  85              		.global	USB_GetProtocol
  86              		.thumb
  87              		.thumb_func
  88              		.type	USB_GetProtocol, %function
  89              	USB_GetProtocol:
  90              	.LFB1:
  96:Generated_Source\PSoC5/USB_hid.c **** 
  97:Generated_Source\PSoC5/USB_hid.c **** 
  98:Generated_Source\PSoC5/USB_hid.c **** /*******************************************************************************
  99:Generated_Source\PSoC5/USB_hid.c **** * Function Name: USB_GetProtocol
 100:Generated_Source\PSoC5/USB_hid.c **** ****************************************************************************//**
 101:Generated_Source\PSoC5/USB_hid.c **** *
 102:Generated_Source\PSoC5/USB_hid.c **** *  This function returns the HID protocol value for the selected interface.
 103:Generated_Source\PSoC5/USB_hid.c **** *
 104:Generated_Source\PSoC5/USB_hid.c **** *  \param interface:  Contains the interface number.
 105:Generated_Source\PSoC5/USB_hid.c **** *
 106:Generated_Source\PSoC5/USB_hid.c **** *  \return
 107:Generated_Source\PSoC5/USB_hid.c **** *  Returns the protocol value. 
 108:Generated_Source\PSoC5/USB_hid.c **** *
 109:Generated_Source\PSoC5/USB_hid.c **** *******************************************************************************/
 110:Generated_Source\PSoC5/USB_hid.c **** uint8 USB_GetProtocol(uint8 interface) 
 111:Generated_Source\PSoC5/USB_hid.c **** {
  91              		.loc 1 111 0
  92              		.cfi_startproc
  93              		@ args = 0, pretend = 0, frame = 0
  94              		@ frame_needed = 0, uses_anonymous_args = 0
  95              		@ link register save eliminated.
  96              	.LVL8:
 112:Generated_Source\PSoC5/USB_hid.c ****     return(USB_hidProtocol[interface]);
  97              		.loc 1 112 0
  98 0000 014B     		ldr	r3, .L8
  99 0002 185C     		ldrb	r0, [r3, r0]	@ zero_extendqisi2
 100              	.LVL9:
 113:Generated_Source\PSoC5/USB_hid.c **** }
 101              		.loc 1 113 0
 102 0004 7047     		bx	lr
 103              	.L9:
 104 0006 00BF     		.align	2
 105              	.L8:
 106 0008 00000000 		.word	USB_hidProtocol
 107              		.cfi_endproc
 108              	.LFE1:
 109              		.size	USB_GetProtocol, .-USB_GetProtocol
 110              		.section	.text.USB_FindHidClassDecriptor,"ax",%progbits
 111              		.align	2
 112              		.global	USB_FindHidClassDecriptor
 113              		.thumb
 114              		.thumb_func
ARM GAS  C:\Users\ANOOP~1.DES\AppData\Local\Temp\ccB6rIna.s 			page 5


 115              		.type	USB_FindHidClassDecriptor, %function
 116              	USB_FindHidClassDecriptor:
 117              	.LFB3:
 114:Generated_Source\PSoC5/USB_hid.c **** 
 115:Generated_Source\PSoC5/USB_hid.c **** 
 116:Generated_Source\PSoC5/USB_hid.c **** /*******************************************************************************
 117:Generated_Source\PSoC5/USB_hid.c **** * Function Name: USB_DispatchHIDClassRqst
 118:Generated_Source\PSoC5/USB_hid.c **** ****************************************************************************//**
 119:Generated_Source\PSoC5/USB_hid.c **** *
 120:Generated_Source\PSoC5/USB_hid.c **** *  This routine dispatches class requests
 121:Generated_Source\PSoC5/USB_hid.c **** *
 122:Generated_Source\PSoC5/USB_hid.c **** * \return
 123:Generated_Source\PSoC5/USB_hid.c **** *  Results of HID Class request handling: 
 124:Generated_Source\PSoC5/USB_hid.c **** *  - USB_TRUE  - request was handled without errors
 125:Generated_Source\PSoC5/USB_hid.c **** *  - USB_FALSE - error occurs during handling of request  
 126:Generated_Source\PSoC5/USB_hid.c **** *
 127:Generated_Source\PSoC5/USB_hid.c **** * \reentrant
 128:Generated_Source\PSoC5/USB_hid.c **** *  No.
 129:Generated_Source\PSoC5/USB_hid.c **** *
 130:Generated_Source\PSoC5/USB_hid.c **** *******************************************************************************/
 131:Generated_Source\PSoC5/USB_hid.c **** uint8 USB_DispatchHIDClassRqst(void) 
 132:Generated_Source\PSoC5/USB_hid.c **** {
 133:Generated_Source\PSoC5/USB_hid.c ****     uint8 requestHandled = USB_FALSE;
 134:Generated_Source\PSoC5/USB_hid.c **** 
 135:Generated_Source\PSoC5/USB_hid.c ****     uint8 interfaceNumber = (uint8) USB_wIndexLoReg;
 136:Generated_Source\PSoC5/USB_hid.c ****     
 137:Generated_Source\PSoC5/USB_hid.c ****     /* Check request direction: D2H or H2D. */
 138:Generated_Source\PSoC5/USB_hid.c ****     if (0u != (USB_bmRequestTypeReg & USB_RQST_DIR_D2H))
 139:Generated_Source\PSoC5/USB_hid.c ****     {
 140:Generated_Source\PSoC5/USB_hid.c ****         /* Handle direction from device to host. */
 141:Generated_Source\PSoC5/USB_hid.c ****         
 142:Generated_Source\PSoC5/USB_hid.c ****         switch (USB_bRequestReg)
 143:Generated_Source\PSoC5/USB_hid.c ****         {
 144:Generated_Source\PSoC5/USB_hid.c ****             case USB_GET_DESCRIPTOR:
 145:Generated_Source\PSoC5/USB_hid.c ****                 if (USB_wValueHiReg == USB_DESCR_HID_CLASS)
 146:Generated_Source\PSoC5/USB_hid.c ****                 {
 147:Generated_Source\PSoC5/USB_hid.c ****                     USB_FindHidClassDecriptor();
 148:Generated_Source\PSoC5/USB_hid.c ****                     if (USB_currentTD.count != 0u)
 149:Generated_Source\PSoC5/USB_hid.c ****                     {
 150:Generated_Source\PSoC5/USB_hid.c ****                         requestHandled = USB_InitControlRead();
 151:Generated_Source\PSoC5/USB_hid.c ****                     }
 152:Generated_Source\PSoC5/USB_hid.c ****                 }
 153:Generated_Source\PSoC5/USB_hid.c ****                 else if (USB_wValueHiReg == USB_DESCR_HID_REPORT)
 154:Generated_Source\PSoC5/USB_hid.c ****                 {
 155:Generated_Source\PSoC5/USB_hid.c ****                     USB_FindReportDescriptor();
 156:Generated_Source\PSoC5/USB_hid.c ****                     if (USB_currentTD.count != 0u)
 157:Generated_Source\PSoC5/USB_hid.c ****                     {
 158:Generated_Source\PSoC5/USB_hid.c ****                         requestHandled = USB_InitControlRead();
 159:Generated_Source\PSoC5/USB_hid.c ****                     }
 160:Generated_Source\PSoC5/USB_hid.c ****                 }
 161:Generated_Source\PSoC5/USB_hid.c ****                 else
 162:Generated_Source\PSoC5/USB_hid.c ****                 {   
 163:Generated_Source\PSoC5/USB_hid.c ****                     /* Do not handle this request. */
 164:Generated_Source\PSoC5/USB_hid.c ****                 }
 165:Generated_Source\PSoC5/USB_hid.c ****                 break;
 166:Generated_Source\PSoC5/USB_hid.c ****                 
 167:Generated_Source\PSoC5/USB_hid.c ****             case USB_HID_GET_REPORT:
ARM GAS  C:\Users\ANOOP~1.DES\AppData\Local\Temp\ccB6rIna.s 			page 6


 168:Generated_Source\PSoC5/USB_hid.c ****                 USB_FindReport();
 169:Generated_Source\PSoC5/USB_hid.c ****                 if (USB_currentTD.count != 0u)
 170:Generated_Source\PSoC5/USB_hid.c ****                 {
 171:Generated_Source\PSoC5/USB_hid.c ****                     requestHandled = USB_InitControlRead();
 172:Generated_Source\PSoC5/USB_hid.c ****                 }
 173:Generated_Source\PSoC5/USB_hid.c ****                 break;
 174:Generated_Source\PSoC5/USB_hid.c **** 
 175:Generated_Source\PSoC5/USB_hid.c ****             case USB_HID_GET_IDLE:
 176:Generated_Source\PSoC5/USB_hid.c ****                 /* This function does not support multiple reports per interface*/
 177:Generated_Source\PSoC5/USB_hid.c ****                 /* Validate interfaceNumber and Report ID (should be 0): Do not support Idle per Re
 178:Generated_Source\PSoC5/USB_hid.c ****                 if ((interfaceNumber < USB_MAX_INTERFACES_NUMBER) && (USB_wValueLoReg == 0u)) 
 179:Generated_Source\PSoC5/USB_hid.c ****                 {
 180:Generated_Source\PSoC5/USB_hid.c ****                     USB_currentTD.count = 1u;
 181:Generated_Source\PSoC5/USB_hid.c ****                     USB_currentTD.pData = &USB_hidIdleRate[interfaceNumber];
 182:Generated_Source\PSoC5/USB_hid.c ****                     requestHandled  = USB_InitControlRead();
 183:Generated_Source\PSoC5/USB_hid.c ****                 }
 184:Generated_Source\PSoC5/USB_hid.c ****                 break;
 185:Generated_Source\PSoC5/USB_hid.c ****                 
 186:Generated_Source\PSoC5/USB_hid.c ****             case USB_HID_GET_PROTOCOL:
 187:Generated_Source\PSoC5/USB_hid.c ****                 /* Validate interfaceNumber */
 188:Generated_Source\PSoC5/USB_hid.c ****                 if( interfaceNumber < USB_MAX_INTERFACES_NUMBER)
 189:Generated_Source\PSoC5/USB_hid.c ****                 {
 190:Generated_Source\PSoC5/USB_hid.c ****                     USB_currentTD.count = 1u;
 191:Generated_Source\PSoC5/USB_hid.c ****                     USB_currentTD.pData = &USB_hidProtocol[interfaceNumber];
 192:Generated_Source\PSoC5/USB_hid.c ****                     requestHandled  = USB_InitControlRead();
 193:Generated_Source\PSoC5/USB_hid.c ****                 }
 194:Generated_Source\PSoC5/USB_hid.c ****                 break;
 195:Generated_Source\PSoC5/USB_hid.c ****                 
 196:Generated_Source\PSoC5/USB_hid.c ****             default:    /* requestHandled is initialized as FALSE by default */
 197:Generated_Source\PSoC5/USB_hid.c ****                 break;
 198:Generated_Source\PSoC5/USB_hid.c ****         }
 199:Generated_Source\PSoC5/USB_hid.c ****     }
 200:Generated_Source\PSoC5/USB_hid.c ****     else
 201:Generated_Source\PSoC5/USB_hid.c ****     {   
 202:Generated_Source\PSoC5/USB_hid.c ****         /* Handle direction from host to device. */
 203:Generated_Source\PSoC5/USB_hid.c ****         
 204:Generated_Source\PSoC5/USB_hid.c ****         switch (USB_bRequestReg)
 205:Generated_Source\PSoC5/USB_hid.c ****         {
 206:Generated_Source\PSoC5/USB_hid.c ****             case USB_HID_SET_REPORT:
 207:Generated_Source\PSoC5/USB_hid.c ****                 USB_FindReport();
 208:Generated_Source\PSoC5/USB_hid.c ****                 if (USB_currentTD.count != 0u)
 209:Generated_Source\PSoC5/USB_hid.c ****                 {
 210:Generated_Source\PSoC5/USB_hid.c ****                     requestHandled = USB_InitControlWrite();
 211:Generated_Source\PSoC5/USB_hid.c ****                 }
 212:Generated_Source\PSoC5/USB_hid.c ****                 break;
 213:Generated_Source\PSoC5/USB_hid.c ****                 
 214:Generated_Source\PSoC5/USB_hid.c ****             case USB_HID_SET_IDLE:
 215:Generated_Source\PSoC5/USB_hid.c ****                 /* This function does not support multiple reports per interface */
 216:Generated_Source\PSoC5/USB_hid.c ****                 /* Validate interfaceNumber and Report ID (should be 0): Do not support Idle per Re
 217:Generated_Source\PSoC5/USB_hid.c ****                 if ((interfaceNumber < USB_MAX_INTERFACES_NUMBER) && (USB_wValueLoReg == 0u))
 218:Generated_Source\PSoC5/USB_hid.c ****                 {
 219:Generated_Source\PSoC5/USB_hid.c ****                     USB_hidIdleRate[interfaceNumber] = (uint8)USB_wValueHiReg;
 220:Generated_Source\PSoC5/USB_hid.c ****                     /* With regards to HID spec: "7.2.4 Set_Idle Request"
 221:Generated_Source\PSoC5/USB_hid.c ****                     *  Latency. If the current period has gone past the
 222:Generated_Source\PSoC5/USB_hid.c ****                     *  newly proscribed time duration, then a report
 223:Generated_Source\PSoC5/USB_hid.c ****                     *  will be generated immediately.
 224:Generated_Source\PSoC5/USB_hid.c ****                     */
ARM GAS  C:\Users\ANOOP~1.DES\AppData\Local\Temp\ccB6rIna.s 			page 7


 225:Generated_Source\PSoC5/USB_hid.c ****                     if(USB_hidIdleRate[interfaceNumber] <
 226:Generated_Source\PSoC5/USB_hid.c ****                        USB_hidIdleTimer[interfaceNumber])
 227:Generated_Source\PSoC5/USB_hid.c ****                     {
 228:Generated_Source\PSoC5/USB_hid.c ****                         /* Set the timer to zero and let the UpdateHIDTimer() API return IDLE_TIMER
 229:Generated_Source\PSoC5/USB_hid.c ****                         USB_hidIdleTimer[interfaceNumber] = 0u;
 230:Generated_Source\PSoC5/USB_hid.c ****                     }
 231:Generated_Source\PSoC5/USB_hid.c ****                     /* If the new request is received within 4 milliseconds
 232:Generated_Source\PSoC5/USB_hid.c ****                     *  (1 count) of the end of the current period, then the
 233:Generated_Source\PSoC5/USB_hid.c ****                     *  new request will have no effect until after the report.
 234:Generated_Source\PSoC5/USB_hid.c ****                     */
 235:Generated_Source\PSoC5/USB_hid.c ****                     else if(USB_hidIdleTimer[interfaceNumber] <= 1u)
 236:Generated_Source\PSoC5/USB_hid.c ****                     {
 237:Generated_Source\PSoC5/USB_hid.c ****                         /* Do nothing.
 238:Generated_Source\PSoC5/USB_hid.c ****                         *  Let the UpdateHIDTimer() API continue to work and
 239:Generated_Source\PSoC5/USB_hid.c ****                         *  return IDLE_TIMER_EXPIRED status
 240:Generated_Source\PSoC5/USB_hid.c ****                         */
 241:Generated_Source\PSoC5/USB_hid.c ****                     }
 242:Generated_Source\PSoC5/USB_hid.c ****                     else
 243:Generated_Source\PSoC5/USB_hid.c ****                     {   /* Reload the timer*/
 244:Generated_Source\PSoC5/USB_hid.c ****                         USB_hidIdleTimer[interfaceNumber] =
 245:Generated_Source\PSoC5/USB_hid.c ****                         USB_hidIdleRate[interfaceNumber];
 246:Generated_Source\PSoC5/USB_hid.c ****                     }
 247:Generated_Source\PSoC5/USB_hid.c ****                     requestHandled = USB_InitNoDataControlTransfer();
 248:Generated_Source\PSoC5/USB_hid.c ****                 }
 249:Generated_Source\PSoC5/USB_hid.c ****                 break;
 250:Generated_Source\PSoC5/USB_hid.c **** 
 251:Generated_Source\PSoC5/USB_hid.c ****             case USB_HID_SET_PROTOCOL:
 252:Generated_Source\PSoC5/USB_hid.c ****                 /* Validate interfaceNumber and protocol (must be 0 or 1) */
 253:Generated_Source\PSoC5/USB_hid.c ****                 if ((interfaceNumber < USB_MAX_INTERFACES_NUMBER) && (USB_wValueLoReg <= 1u))
 254:Generated_Source\PSoC5/USB_hid.c ****                 {
 255:Generated_Source\PSoC5/USB_hid.c ****                     USB_hidProtocol[interfaceNumber] = (uint8)USB_wValueLoReg;
 256:Generated_Source\PSoC5/USB_hid.c ****                     requestHandled = USB_InitNoDataControlTransfer();
 257:Generated_Source\PSoC5/USB_hid.c ****                 }
 258:Generated_Source\PSoC5/USB_hid.c ****                 break;
 259:Generated_Source\PSoC5/USB_hid.c ****             
 260:Generated_Source\PSoC5/USB_hid.c ****             default:    
 261:Generated_Source\PSoC5/USB_hid.c ****                 /* Unknown class request is not handled. */
 262:Generated_Source\PSoC5/USB_hid.c ****                 break;
 263:Generated_Source\PSoC5/USB_hid.c ****         }
 264:Generated_Source\PSoC5/USB_hid.c ****     }
 265:Generated_Source\PSoC5/USB_hid.c **** 
 266:Generated_Source\PSoC5/USB_hid.c ****     return (requestHandled);
 267:Generated_Source\PSoC5/USB_hid.c **** }
 268:Generated_Source\PSoC5/USB_hid.c **** 
 269:Generated_Source\PSoC5/USB_hid.c **** 
 270:Generated_Source\PSoC5/USB_hid.c **** /*******************************************************************************
 271:Generated_Source\PSoC5/USB_hid.c **** * Function Name: USB_FindHidClassDescriptor
 272:Generated_Source\PSoC5/USB_hid.c **** ****************************************************************************//**
 273:Generated_Source\PSoC5/USB_hid.c **** *
 274:Generated_Source\PSoC5/USB_hid.c **** *  This routine find Hid Class Descriptor pointer based on the Interface number
 275:Generated_Source\PSoC5/USB_hid.c **** *  and Alternate setting then loads the currentTD structure with the address of
 276:Generated_Source\PSoC5/USB_hid.c **** *  the buffer and the size.
 277:Generated_Source\PSoC5/USB_hid.c **** *  The HID Class Descriptor resides inside the config descriptor.
 278:Generated_Source\PSoC5/USB_hid.c **** *
 279:Generated_Source\PSoC5/USB_hid.c **** * \return
 280:Generated_Source\PSoC5/USB_hid.c **** *  currentTD
 281:Generated_Source\PSoC5/USB_hid.c **** *
ARM GAS  C:\Users\ANOOP~1.DES\AppData\Local\Temp\ccB6rIna.s 			page 8


 282:Generated_Source\PSoC5/USB_hid.c **** * \reentrant
 283:Generated_Source\PSoC5/USB_hid.c **** *  No.
 284:Generated_Source\PSoC5/USB_hid.c **** *
 285:Generated_Source\PSoC5/USB_hid.c **** *******************************************************************************/
 286:Generated_Source\PSoC5/USB_hid.c **** void USB_FindHidClassDecriptor(void) 
 287:Generated_Source\PSoC5/USB_hid.c **** {
 118              		.loc 1 287 0
 119              		.cfi_startproc
 120              		@ args = 0, pretend = 0, frame = 0
 121              		@ frame_needed = 0, uses_anonymous_args = 0
 122 0000 08B5     		push	{r3, lr}
 123              		.cfi_def_cfa_offset 8
 124              		.cfi_offset 3, -8
 125              		.cfi_offset 14, -4
 288:Generated_Source\PSoC5/USB_hid.c ****     const T_USB_LUT CYCODE *pTmp;
 289:Generated_Source\PSoC5/USB_hid.c ****     volatile uint8 *pDescr;
 290:Generated_Source\PSoC5/USB_hid.c ****     uint8 interfaceN;
 291:Generated_Source\PSoC5/USB_hid.c **** 
 292:Generated_Source\PSoC5/USB_hid.c ****     pTmp = USB_GetConfigTablePtr(USB_configuration - 1u);
 126              		.loc 1 292 0
 127 0002 0C4B     		ldr	r3, .L12
 128 0004 1878     		ldrb	r0, [r3]	@ zero_extendqisi2
 129 0006 0138     		subs	r0, r0, #1
 130 0008 C0B2     		uxtb	r0, r0
 131 000a FFF7FEFF 		bl	USB_GetConfigTablePtr
 132              	.LVL10:
 293:Generated_Source\PSoC5/USB_hid.c ****     
 294:Generated_Source\PSoC5/USB_hid.c ****     interfaceN = (uint8) USB_wIndexLoReg;
 133              		.loc 1 294 0
 134 000e 0A4B     		ldr	r3, .L12+4
 135 0010 1B79     		ldrb	r3, [r3, #4]	@ zero_extendqisi2
 136 0012 DBB2     		uxtb	r3, r3
 137              	.LVL11:
 295:Generated_Source\PSoC5/USB_hid.c ****     /* Third entry in the LUT starts the Interface Table pointers */
 296:Generated_Source\PSoC5/USB_hid.c ****     /* Now use the request interface number*/
 297:Generated_Source\PSoC5/USB_hid.c ****     pTmp = &pTmp[interfaceN + 2u];
 138              		.loc 1 297 0
 139 0014 9A1C     		adds	r2, r3, #2
 140 0016 00EBC200 		add	r0, r0, r2, lsl #3
 141              	.LVL12:
 298:Generated_Source\PSoC5/USB_hid.c ****     
 299:Generated_Source\PSoC5/USB_hid.c ****     /* USB_DEVICEx_CONFIGURATIONy_INTERFACEz_TABLE */
 300:Generated_Source\PSoC5/USB_hid.c ****     pTmp = (const T_USB_LUT CYCODE *) pTmp->p_list;
 142              		.loc 1 300 0
 143 001a 4268     		ldr	r2, [r0, #4]
 144              	.LVL13:
 301:Generated_Source\PSoC5/USB_hid.c ****     
 302:Generated_Source\PSoC5/USB_hid.c ****     /* Now use Alternate setting number */
 303:Generated_Source\PSoC5/USB_hid.c ****     pTmp = &pTmp[USB_interfaceSetting[interfaceN]];
 145              		.loc 1 303 0
 146 001c 0749     		ldr	r1, .L12+8
 147 001e CB5C     		ldrb	r3, [r1, r3]	@ zero_extendqisi2
 148              	.LVL14:
 149 0020 02EBC303 		add	r3, r2, r3, lsl #3
 150              	.LVL15:
 304:Generated_Source\PSoC5/USB_hid.c ****     
 305:Generated_Source\PSoC5/USB_hid.c ****     /* USB_DEVICEx_CONFIGURATIONy_INTERFACEz_ALTERNATEi_HID_TABLE */
ARM GAS  C:\Users\ANOOP~1.DES\AppData\Local\Temp\ccB6rIna.s 			page 9


 306:Generated_Source\PSoC5/USB_hid.c ****     pTmp = (const T_USB_LUT CYCODE *) pTmp->p_list;
 151              		.loc 1 306 0
 152 0024 5B68     		ldr	r3, [r3, #4]
 153              	.LVL16:
 307:Generated_Source\PSoC5/USB_hid.c ****     
 308:Generated_Source\PSoC5/USB_hid.c ****     /* Fifth entry in the LUT points to Hid Class Descriptor in Configuration Descriptor */
 309:Generated_Source\PSoC5/USB_hid.c ****     pTmp = &pTmp[4u];
 310:Generated_Source\PSoC5/USB_hid.c ****     pDescr = (volatile uint8 *)pTmp->p_list;
 154              		.loc 1 310 0
 155 0026 596A     		ldr	r1, [r3, #36]
 156              	.LVL17:
 311:Generated_Source\PSoC5/USB_hid.c ****     
 312:Generated_Source\PSoC5/USB_hid.c ****     /* The first byte contains the descriptor length */
 313:Generated_Source\PSoC5/USB_hid.c ****     USB_currentTD.count = *pDescr;
 157              		.loc 1 313 0
 158 0028 0B78     		ldrb	r3, [r1]	@ zero_extendqisi2
 159              	.LVL18:
 160 002a 054A     		ldr	r2, .L12+12
 161 002c 1380     		strh	r3, [r2]	@ movhi
 314:Generated_Source\PSoC5/USB_hid.c ****     USB_currentTD.pData = pDescr;
 162              		.loc 1 314 0
 163 002e 5160     		str	r1, [r2, #4]
 164 0030 08BD     		pop	{r3, pc}
 165              	.L13:
 166 0032 00BF     		.align	2
 167              	.L12:
 168 0034 00000000 		.word	USB_configuration
 169 0038 00600040 		.word	1073766400
 170 003c 00000000 		.word	USB_interfaceSetting
 171 0040 00000000 		.word	USB_currentTD
 172              		.cfi_endproc
 173              	.LFE3:
 174              		.size	USB_FindHidClassDecriptor, .-USB_FindHidClassDecriptor
 175              		.section	.text.USB_FindReportDescriptor,"ax",%progbits
 176              		.align	2
 177              		.global	USB_FindReportDescriptor
 178              		.thumb
 179              		.thumb_func
 180              		.type	USB_FindReportDescriptor, %function
 181              	USB_FindReportDescriptor:
 182              	.LFB4:
 315:Generated_Source\PSoC5/USB_hid.c **** }
 316:Generated_Source\PSoC5/USB_hid.c **** 
 317:Generated_Source\PSoC5/USB_hid.c **** 
 318:Generated_Source\PSoC5/USB_hid.c **** /*******************************************************************************
 319:Generated_Source\PSoC5/USB_hid.c **** * Function Name: USB_FindReportDescriptor
 320:Generated_Source\PSoC5/USB_hid.c **** ****************************************************************************//**
 321:Generated_Source\PSoC5/USB_hid.c **** *
 322:Generated_Source\PSoC5/USB_hid.c **** *  This routine find Hid Report Descriptor pointer based on the Interface
 323:Generated_Source\PSoC5/USB_hid.c **** *  number, then loads the currentTD structure with the address of the buffer
 324:Generated_Source\PSoC5/USB_hid.c **** *  and the size.
 325:Generated_Source\PSoC5/USB_hid.c **** *  Hid Report Descriptor is located after IN/OUT/FEATURE reports.
 326:Generated_Source\PSoC5/USB_hid.c **** *
 327:Generated_Source\PSoC5/USB_hid.c **** * \return
 328:Generated_Source\PSoC5/USB_hid.c **** *  currentTD
 329:Generated_Source\PSoC5/USB_hid.c **** *
 330:Generated_Source\PSoC5/USB_hid.c **** * \reentrant
ARM GAS  C:\Users\ANOOP~1.DES\AppData\Local\Temp\ccB6rIna.s 			page 10


 331:Generated_Source\PSoC5/USB_hid.c **** *  No.
 332:Generated_Source\PSoC5/USB_hid.c **** *
 333:Generated_Source\PSoC5/USB_hid.c **** *******************************************************************************/
 334:Generated_Source\PSoC5/USB_hid.c **** void USB_FindReportDescriptor(void) 
 335:Generated_Source\PSoC5/USB_hid.c **** {
 183              		.loc 1 335 0
 184              		.cfi_startproc
 185              		@ args = 0, pretend = 0, frame = 0
 186              		@ frame_needed = 0, uses_anonymous_args = 0
 187 0000 08B5     		push	{r3, lr}
 188              		.cfi_def_cfa_offset 8
 189              		.cfi_offset 3, -8
 190              		.cfi_offset 14, -4
 336:Generated_Source\PSoC5/USB_hid.c ****     const T_USB_LUT CYCODE *pTmp;
 337:Generated_Source\PSoC5/USB_hid.c ****     volatile uint8 *pDescr;
 338:Generated_Source\PSoC5/USB_hid.c ****     uint8 interfaceN;
 339:Generated_Source\PSoC5/USB_hid.c **** 
 340:Generated_Source\PSoC5/USB_hid.c ****     pTmp = USB_GetConfigTablePtr(USB_configuration - 1u);
 191              		.loc 1 340 0
 192 0002 0E4B     		ldr	r3, .L16
 193 0004 1878     		ldrb	r0, [r3]	@ zero_extendqisi2
 194 0006 0138     		subs	r0, r0, #1
 195 0008 C0B2     		uxtb	r0, r0
 196 000a FFF7FEFF 		bl	USB_GetConfigTablePtr
 197              	.LVL19:
 341:Generated_Source\PSoC5/USB_hid.c ****     interfaceN = (uint8) USB_wIndexLoReg;
 198              		.loc 1 341 0
 199 000e 0C4B     		ldr	r3, .L16+4
 200 0010 1B79     		ldrb	r3, [r3, #4]	@ zero_extendqisi2
 201 0012 DBB2     		uxtb	r3, r3
 202              	.LVL20:
 342:Generated_Source\PSoC5/USB_hid.c ****     
 343:Generated_Source\PSoC5/USB_hid.c ****     /* Third entry in the LUT starts the Interface Table pointers */
 344:Generated_Source\PSoC5/USB_hid.c ****     /* Now use the request interface number */
 345:Generated_Source\PSoC5/USB_hid.c ****     pTmp = &pTmp[interfaceN + 2u];
 203              		.loc 1 345 0
 204 0014 9A1C     		adds	r2, r3, #2
 205 0016 00EBC200 		add	r0, r0, r2, lsl #3
 206              	.LVL21:
 346:Generated_Source\PSoC5/USB_hid.c ****     
 347:Generated_Source\PSoC5/USB_hid.c ****     /* USB_DEVICEx_CONFIGURATIONy_INTERFACEz_TABLE */
 348:Generated_Source\PSoC5/USB_hid.c ****     pTmp = (const T_USB_LUT CYCODE *) pTmp->p_list;
 207              		.loc 1 348 0
 208 001a 4268     		ldr	r2, [r0, #4]
 209              	.LVL22:
 349:Generated_Source\PSoC5/USB_hid.c ****     
 350:Generated_Source\PSoC5/USB_hid.c ****     /* Now use Alternate setting number */
 351:Generated_Source\PSoC5/USB_hid.c ****     pTmp = &pTmp[USB_interfaceSetting[interfaceN]];
 210              		.loc 1 351 0
 211 001c 0949     		ldr	r1, .L16+8
 212 001e CB5C     		ldrb	r3, [r1, r3]	@ zero_extendqisi2
 213              	.LVL23:
 214 0020 02EBC303 		add	r3, r2, r3, lsl #3
 215              	.LVL24:
 352:Generated_Source\PSoC5/USB_hid.c ****     
 353:Generated_Source\PSoC5/USB_hid.c ****     /* USB_DEVICEx_CONFIGURATIONy_INTERFACEz_ALTERNATEi_HID_TABLE */
 354:Generated_Source\PSoC5/USB_hid.c ****     pTmp = (const T_USB_LUT CYCODE *) pTmp->p_list;
ARM GAS  C:\Users\ANOOP~1.DES\AppData\Local\Temp\ccB6rIna.s 			page 11


 216              		.loc 1 354 0
 217 0024 5B68     		ldr	r3, [r3, #4]
 218              	.LVL25:
 355:Generated_Source\PSoC5/USB_hid.c ****     
 356:Generated_Source\PSoC5/USB_hid.c ****     /* Fourth entry in the LUT starts the Hid Report Descriptor */
 357:Generated_Source\PSoC5/USB_hid.c ****     pTmp = &pTmp[3u];
 358:Generated_Source\PSoC5/USB_hid.c ****     pDescr = (volatile uint8 *)pTmp->p_list;
 219              		.loc 1 358 0
 220 0026 DB69     		ldr	r3, [r3, #28]
 221              	.LVL26:
 359:Generated_Source\PSoC5/USB_hid.c ****     
 360:Generated_Source\PSoC5/USB_hid.c ****     /* The 1st and 2nd bytes of descriptor contain its length. LSB is 1st. */
 361:Generated_Source\PSoC5/USB_hid.c ****     USB_currentTD.count =  ((uint16)((uint16) pDescr[1u] << 8u) | pDescr[0u]);
 222              		.loc 1 361 0
 223 0028 5978     		ldrb	r1, [r3, #1]	@ zero_extendqisi2
 224 002a 13F8022B 		ldrb	r2, [r3], #2	@ zero_extendqisi2
 225              	.LVL27:
 226 002e 42EA0122 		orr	r2, r2, r1, lsl #8
 227 0032 0549     		ldr	r1, .L16+12
 228 0034 0A80     		strh	r2, [r1]	@ movhi
 362:Generated_Source\PSoC5/USB_hid.c ****     USB_currentTD.pData = &pDescr[2u];
 229              		.loc 1 362 0
 230 0036 4B60     		str	r3, [r1, #4]
 231 0038 08BD     		pop	{r3, pc}
 232              	.LVL28:
 233              	.L17:
 234 003a 00BF     		.align	2
 235              	.L16:
 236 003c 00000000 		.word	USB_configuration
 237 0040 00600040 		.word	1073766400
 238 0044 00000000 		.word	USB_interfaceSetting
 239 0048 00000000 		.word	USB_currentTD
 240              		.cfi_endproc
 241              	.LFE4:
 242              		.size	USB_FindReportDescriptor, .-USB_FindReportDescriptor
 243              		.section	.text.USB_FindReport,"ax",%progbits
 244              		.align	2
 245              		.global	USB_FindReport
 246              		.thumb
 247              		.thumb_func
 248              		.type	USB_FindReport, %function
 249              	USB_FindReport:
 250              	.LFB5:
 363:Generated_Source\PSoC5/USB_hid.c **** }
 364:Generated_Source\PSoC5/USB_hid.c **** 
 365:Generated_Source\PSoC5/USB_hid.c **** 
 366:Generated_Source\PSoC5/USB_hid.c **** /*******************************************************************************
 367:Generated_Source\PSoC5/USB_hid.c **** * Function Name: USB_FindReport
 368:Generated_Source\PSoC5/USB_hid.c **** ****************************************************************************//**
 369:Generated_Source\PSoC5/USB_hid.c **** *
 370:Generated_Source\PSoC5/USB_hid.c **** *  This routine sets up a transfer based on the Interface number, Report Type
 371:Generated_Source\PSoC5/USB_hid.c **** *  and Report ID, then loads the currentTD structure with the address of the
 372:Generated_Source\PSoC5/USB_hid.c **** *  buffer and the size.  The caller has to decide if it is a control read or
 373:Generated_Source\PSoC5/USB_hid.c **** *  control write.
 374:Generated_Source\PSoC5/USB_hid.c **** *
 375:Generated_Source\PSoC5/USB_hid.c **** * \return
 376:Generated_Source\PSoC5/USB_hid.c **** *  currentTD
ARM GAS  C:\Users\ANOOP~1.DES\AppData\Local\Temp\ccB6rIna.s 			page 12


 377:Generated_Source\PSoC5/USB_hid.c **** *
 378:Generated_Source\PSoC5/USB_hid.c **** * \reentrant
 379:Generated_Source\PSoC5/USB_hid.c **** *  No.
 380:Generated_Source\PSoC5/USB_hid.c **** *
 381:Generated_Source\PSoC5/USB_hid.c **** *******************************************************************************/
 382:Generated_Source\PSoC5/USB_hid.c **** void USB_FindReport(void) 
 383:Generated_Source\PSoC5/USB_hid.c **** {
 251              		.loc 1 383 0
 252              		.cfi_startproc
 253              		@ args = 0, pretend = 0, frame = 0
 254              		@ frame_needed = 0, uses_anonymous_args = 0
 255 0000 10B5     		push	{r4, lr}
 256              		.cfi_def_cfa_offset 8
 257              		.cfi_offset 4, -8
 258              		.cfi_offset 14, -4
 384:Generated_Source\PSoC5/USB_hid.c ****     const T_USB_LUT CYCODE *pTmp;
 385:Generated_Source\PSoC5/USB_hid.c ****     T_USB_TD *pTD;
 386:Generated_Source\PSoC5/USB_hid.c ****     uint8 reportType;
 387:Generated_Source\PSoC5/USB_hid.c ****     uint8 interfaceN;
 388:Generated_Source\PSoC5/USB_hid.c ****  
 389:Generated_Source\PSoC5/USB_hid.c ****     /* `#START HID_FINDREPORT` Place custom handling here */
 390:Generated_Source\PSoC5/USB_hid.c **** 
 391:Generated_Source\PSoC5/USB_hid.c ****     /* `#END` */
 392:Generated_Source\PSoC5/USB_hid.c ****     
 393:Generated_Source\PSoC5/USB_hid.c **** #ifdef USB_FIND_REPORT_CALLBACK
 394:Generated_Source\PSoC5/USB_hid.c ****     USB_FindReport_Callback();
 395:Generated_Source\PSoC5/USB_hid.c **** #endif /* (USB_FIND_REPORT_CALLBACK) */
 396:Generated_Source\PSoC5/USB_hid.c ****     
 397:Generated_Source\PSoC5/USB_hid.c ****     USB_currentTD.count = 0u;   /* Init not supported condition */
 259              		.loc 1 397 0
 260 0002 0022     		movs	r2, #0
 261 0004 194B     		ldr	r3, .L21
 262 0006 1A80     		strh	r2, [r3]	@ movhi
 398:Generated_Source\PSoC5/USB_hid.c ****     pTmp = USB_GetConfigTablePtr(USB_configuration - 1u);
 263              		.loc 1 398 0
 264 0008 194B     		ldr	r3, .L21+4
 265 000a 1878     		ldrb	r0, [r3]	@ zero_extendqisi2
 266 000c 0138     		subs	r0, r0, #1
 267 000e C0B2     		uxtb	r0, r0
 268 0010 FFF7FEFF 		bl	USB_GetConfigTablePtr
 269              	.LVL29:
 399:Generated_Source\PSoC5/USB_hid.c ****     reportType = (uint8) USB_wValueHiReg;
 270              		.loc 1 399 0
 271 0014 174A     		ldr	r2, .L21+8
 272 0016 D378     		ldrb	r3, [r2, #3]	@ zero_extendqisi2
 273              	.LVL30:
 400:Generated_Source\PSoC5/USB_hid.c ****     interfaceN = (uint8) USB_wIndexLoReg;
 274              		.loc 1 400 0
 275 0018 1279     		ldrb	r2, [r2, #4]	@ zero_extendqisi2
 276 001a D2B2     		uxtb	r2, r2
 277              	.LVL31:
 401:Generated_Source\PSoC5/USB_hid.c ****     
 402:Generated_Source\PSoC5/USB_hid.c ****     /* Third entry in the LUT Configuration Table starts the Interface Table pointers */
 403:Generated_Source\PSoC5/USB_hid.c ****     /* Now use the request interface number */
 404:Generated_Source\PSoC5/USB_hid.c ****     pTmp = &pTmp[interfaceN + 2u];
 278              		.loc 1 404 0
 279 001c 911C     		adds	r1, r2, #2
ARM GAS  C:\Users\ANOOP~1.DES\AppData\Local\Temp\ccB6rIna.s 			page 13


 280 001e 00EBC100 		add	r0, r0, r1, lsl #3
 281              	.LVL32:
 405:Generated_Source\PSoC5/USB_hid.c ****     
 406:Generated_Source\PSoC5/USB_hid.c ****     /* USB_DEVICEx_CONFIGURATIONy_INTERFACEz_TABLE */
 407:Generated_Source\PSoC5/USB_hid.c ****     pTmp = (const T_USB_LUT CYCODE *) pTmp->p_list;
 282              		.loc 1 407 0
 283 0022 4168     		ldr	r1, [r0, #4]
 284              	.LVL33:
 408:Generated_Source\PSoC5/USB_hid.c ****     if (interfaceN < USB_MAX_INTERFACES_NUMBER)
 285              		.loc 1 408 0
 286 0024 0ABB     		cbnz	r2, .L18
 287 0026 DBB2     		uxtb	r3, r3
 409:Generated_Source\PSoC5/USB_hid.c ****     {
 410:Generated_Source\PSoC5/USB_hid.c ****         /* Now use Alternate setting number */
 411:Generated_Source\PSoC5/USB_hid.c ****         pTmp = &pTmp[USB_interfaceSetting[interfaceN]];
 288              		.loc 1 411 0
 289 0028 1348     		ldr	r0, .L21+12
 290 002a 825C     		ldrb	r2, [r0, r2]	@ zero_extendqisi2
 291              	.LVL34:
 292 002c 01EBC201 		add	r1, r1, r2, lsl #3
 293              	.LVL35:
 412:Generated_Source\PSoC5/USB_hid.c ****         
 413:Generated_Source\PSoC5/USB_hid.c ****         /* USB_DEVICEx_CONFIGURATIONy_INTERFACEz_ALTERNATEi_HID_TABLE */
 414:Generated_Source\PSoC5/USB_hid.c ****         pTmp = (const T_USB_LUT CYCODE *) pTmp->p_list;
 294              		.loc 1 414 0
 295 0030 4968     		ldr	r1, [r1, #4]
 296              	.LVL36:
 415:Generated_Source\PSoC5/USB_hid.c ****         
 416:Generated_Source\PSoC5/USB_hid.c ****         /* Validate reportType to comply with "7.2.1 Get_Report Request" */
 417:Generated_Source\PSoC5/USB_hid.c ****         if ((reportType >= USB_HID_GET_REPORT_INPUT) &&
 297              		.loc 1 417 0
 298 0032 5A1E     		subs	r2, r3, #1
 299 0034 D2B2     		uxtb	r2, r2
 300 0036 022A     		cmp	r2, #2
 301 0038 17D8     		bhi	.L18
 418:Generated_Source\PSoC5/USB_hid.c ****             (reportType <= USB_HID_GET_REPORT_FEATURE))
 419:Generated_Source\PSoC5/USB_hid.c ****         {
 420:Generated_Source\PSoC5/USB_hid.c ****             /* Get the entry proper TD (IN, OUT or Feature Report Table)*/
 421:Generated_Source\PSoC5/USB_hid.c ****             pTmp = &pTmp[reportType - 1u];
 302              		.loc 1 421 0
 303 003a 03F10053 		add	r3, r3, #536870912
 304              	.LVL37:
 305 003e 013B     		subs	r3, r3, #1
 306              	.LVL38:
 307 0040 01EBC300 		add	r0, r1, r3, lsl #3
 308              	.LVL39:
 422:Generated_Source\PSoC5/USB_hid.c ****             
 423:Generated_Source\PSoC5/USB_hid.c ****             /* Get reportID */
 424:Generated_Source\PSoC5/USB_hid.c ****             reportType = (uint8) USB_wValueLoReg;
 309              		.loc 1 424 0
 310 0044 0B4A     		ldr	r2, .L21+8
 311 0046 9278     		ldrb	r2, [r2, #2]	@ zero_extendqisi2
 312 0048 D2B2     		uxtb	r2, r2
 313              	.LVL40:
 425:Generated_Source\PSoC5/USB_hid.c ****             
 426:Generated_Source\PSoC5/USB_hid.c ****             /* Validate table support by the HID descriptor, compare table count with reportID */
 427:Generated_Source\PSoC5/USB_hid.c ****             if (pTmp->c >= reportType)
ARM GAS  C:\Users\ANOOP~1.DES\AppData\Local\Temp\ccB6rIna.s 			page 14


 314              		.loc 1 427 0
 315 004a 11F83330 		ldrb	r3, [r1, r3, lsl #3]	@ zero_extendqisi2
 316 004e 9A42     		cmp	r2, r3
 317 0050 0BD8     		bhi	.L18
 428:Generated_Source\PSoC5/USB_hid.c ****             {
 429:Generated_Source\PSoC5/USB_hid.c ****                 pTD = (T_USB_TD *) pTmp->p_list;
 318              		.loc 1 429 0
 319 0052 4068     		ldr	r0, [r0, #4]
 320              	.LVL41:
 430:Generated_Source\PSoC5/USB_hid.c ****                 pTD = &pTD[reportType];                          /* select entry depend on report I
 321              		.loc 1 430 0
 322 0054 02EB4202 		add	r2, r2, r2, lsl #1
 323              	.LVL42:
 324 0058 9100     		lsls	r1, r2, #2
 325 005a 4218     		adds	r2, r0, r1
 326              	.LVL43:
 431:Generated_Source\PSoC5/USB_hid.c ****                 USB_currentTD.pData = pTD->pData;   /* Buffer pointer */
 327              		.loc 1 431 0
 328 005c 5468     		ldr	r4, [r2, #4]
 329 005e 034B     		ldr	r3, .L21
 330 0060 5C60     		str	r4, [r3, #4]
 432:Generated_Source\PSoC5/USB_hid.c ****                 USB_currentTD.count = pTD->count;   /* Buffer Size */
 331              		.loc 1 432 0
 332 0062 415A     		ldrh	r1, [r0, r1]
 333 0064 1980     		strh	r1, [r3]	@ movhi
 433:Generated_Source\PSoC5/USB_hid.c ****                 USB_currentTD.pStatusBlock = pTD->pStatusBlock;
 334              		.loc 1 433 0
 335 0066 9268     		ldr	r2, [r2, #8]
 336              	.LVL44:
 337 0068 9A60     		str	r2, [r3, #8]
 338              	.L18:
 339 006a 10BD     		pop	{r4, pc}
 340              	.L22:
 341              		.align	2
 342              	.L21:
 343 006c 00000000 		.word	USB_currentTD
 344 0070 00000000 		.word	USB_configuration
 345 0074 00600040 		.word	1073766400
 346 0078 00000000 		.word	USB_interfaceSetting
 347              		.cfi_endproc
 348              	.LFE5:
 349              		.size	USB_FindReport, .-USB_FindReport
 350              		.section	.text.USB_DispatchHIDClassRqst,"ax",%progbits
 351              		.align	2
 352              		.global	USB_DispatchHIDClassRqst
 353              		.thumb
 354              		.thumb_func
 355              		.type	USB_DispatchHIDClassRqst, %function
 356              	USB_DispatchHIDClassRqst:
 357              	.LFB2:
 132:Generated_Source\PSoC5/USB_hid.c ****     uint8 requestHandled = USB_FALSE;
 358              		.loc 1 132 0
 359              		.cfi_startproc
 360              		@ args = 0, pretend = 0, frame = 0
 361              		@ frame_needed = 0, uses_anonymous_args = 0
 362 0000 08B5     		push	{r3, lr}
 363              		.cfi_def_cfa_offset 8
ARM GAS  C:\Users\ANOOP~1.DES\AppData\Local\Temp\ccB6rIna.s 			page 15


 364              		.cfi_offset 3, -8
 365              		.cfi_offset 14, -4
 366              	.LVL45:
 135:Generated_Source\PSoC5/USB_hid.c ****     
 367              		.loc 1 135 0
 368 0002 5B4B     		ldr	r3, .L53
 369 0004 1A79     		ldrb	r2, [r3, #4]	@ zero_extendqisi2
 370 0006 D2B2     		uxtb	r2, r2
 371              	.LVL46:
 138:Generated_Source\PSoC5/USB_hid.c ****     {
 372              		.loc 1 138 0
 373 0008 1B78     		ldrb	r3, [r3]	@ zero_extendqisi2
 374 000a 13F0800F 		tst	r3, #128
 375 000e 4DD0     		beq	.L24
 142:Generated_Source\PSoC5/USB_hid.c ****         {
 376              		.loc 1 142 0
 377 0010 574B     		ldr	r3, .L53
 378 0012 5B78     		ldrb	r3, [r3, #1]	@ zero_extendqisi2
 379 0014 013B     		subs	r3, r3, #1
 380 0016 052B     		cmp	r3, #5
 381 0018 00F28D80 		bhi	.L37
 382 001c DFE803F0 		tbb	[pc, r3]
 383              	.L27:
 384 0020 21       		.byte	(.L26-.L27)/2
 385 0021 2B       		.byte	(.L28-.L27)/2
 386 0022 3B       		.byte	(.L29-.L27)/2
 387 0023 8B       		.byte	(.L37-.L27)/2
 388 0024 8B       		.byte	(.L37-.L27)/2
 389 0025 03       		.byte	(.L30-.L27)/2
 390              		.p2align 1
 391              	.L30:
 145:Generated_Source\PSoC5/USB_hid.c ****                 {
 392              		.loc 1 145 0
 393 0026 524B     		ldr	r3, .L53
 394 0028 DB78     		ldrb	r3, [r3, #3]	@ zero_extendqisi2
 395 002a DBB2     		uxtb	r3, r3
 396 002c 212B     		cmp	r3, #33
 397 002e 09D1     		bne	.L31
 147:Generated_Source\PSoC5/USB_hid.c ****                     if (USB_currentTD.count != 0u)
 398              		.loc 1 147 0
 399 0030 FFF7FEFF 		bl	USB_FindHidClassDecriptor
 400              	.LVL47:
 148:Generated_Source\PSoC5/USB_hid.c ****                     {
 401              		.loc 1 148 0
 402 0034 4F4B     		ldr	r3, .L53+4
 403 0036 1B88     		ldrh	r3, [r3]
 404 0038 9BB2     		uxth	r3, r3
 405 003a 002B     		cmp	r3, #0
 406 003c 7DD0     		beq	.L38
 150:Generated_Source\PSoC5/USB_hid.c ****                     }
 407              		.loc 1 150 0
 408 003e FFF7FEFF 		bl	USB_InitControlRead
 409              	.LVL48:
 410 0042 08BD     		pop	{r3, pc}
 411              	.LVL49:
 412              	.L31:
 153:Generated_Source\PSoC5/USB_hid.c ****                 {
ARM GAS  C:\Users\ANOOP~1.DES\AppData\Local\Temp\ccB6rIna.s 			page 16


 413              		.loc 1 153 0
 414 0044 4A4B     		ldr	r3, .L53
 415 0046 DB78     		ldrb	r3, [r3, #3]	@ zero_extendqisi2
 416 0048 DBB2     		uxtb	r3, r3
 417 004a 222B     		cmp	r3, #34
 418 004c 77D1     		bne	.L39
 155:Generated_Source\PSoC5/USB_hid.c ****                     if (USB_currentTD.count != 0u)
 419              		.loc 1 155 0
 420 004e FFF7FEFF 		bl	USB_FindReportDescriptor
 421              	.LVL50:
 156:Generated_Source\PSoC5/USB_hid.c ****                     {
 422              		.loc 1 156 0
 423 0052 484B     		ldr	r3, .L53+4
 424 0054 1B88     		ldrh	r3, [r3]
 425 0056 9BB2     		uxth	r3, r3
 426 0058 002B     		cmp	r3, #0
 427 005a 72D0     		beq	.L40
 158:Generated_Source\PSoC5/USB_hid.c ****                     }
 428              		.loc 1 158 0
 429 005c FFF7FEFF 		bl	USB_InitControlRead
 430              	.LVL51:
 431 0060 08BD     		pop	{r3, pc}
 432              	.LVL52:
 433              	.L26:
 168:Generated_Source\PSoC5/USB_hid.c ****                 if (USB_currentTD.count != 0u)
 434              		.loc 1 168 0
 435 0062 FFF7FEFF 		bl	USB_FindReport
 436              	.LVL53:
 169:Generated_Source\PSoC5/USB_hid.c ****                 {
 437              		.loc 1 169 0
 438 0066 434B     		ldr	r3, .L53+4
 439 0068 1B88     		ldrh	r3, [r3]
 440 006a 9BB2     		uxth	r3, r3
 441 006c 002B     		cmp	r3, #0
 442 006e 6AD0     		beq	.L41
 171:Generated_Source\PSoC5/USB_hid.c ****                 }
 443              		.loc 1 171 0
 444 0070 FFF7FEFF 		bl	USB_InitControlRead
 445              	.LVL54:
 446 0074 08BD     		pop	{r3, pc}
 447              	.LVL55:
 448              	.L28:
 178:Generated_Source\PSoC5/USB_hid.c ****                 {
 449              		.loc 1 178 0
 450 0076 002A     		cmp	r2, #0
 451 0078 67D1     		bne	.L42
 178:Generated_Source\PSoC5/USB_hid.c ****                 {
 452              		.loc 1 178 0 is_stmt 0 discriminator 1
 453 007a 3D4B     		ldr	r3, .L53
 454 007c 9B78     		ldrb	r3, [r3, #2]	@ zero_extendqisi2
 455 007e 13F0FF0F 		tst	r3, #255
 456 0082 64D1     		bne	.L43
 180:Generated_Source\PSoC5/USB_hid.c ****                     USB_currentTD.pData = &USB_hidIdleRate[interfaceNumber];
 457              		.loc 1 180 0 is_stmt 1
 458 0084 3B49     		ldr	r1, .L53+4
 459 0086 0123     		movs	r3, #1
 460 0088 0B80     		strh	r3, [r1]	@ movhi
ARM GAS  C:\Users\ANOOP~1.DES\AppData\Local\Temp\ccB6rIna.s 			page 17


 181:Generated_Source\PSoC5/USB_hid.c ****                     requestHandled  = USB_InitControlRead();
 461              		.loc 1 181 0
 462 008a 3B4B     		ldr	r3, .L53+8
 463 008c 1A44     		add	r2, r2, r3
 464              	.LVL56:
 465 008e 4A60     		str	r2, [r1, #4]
 182:Generated_Source\PSoC5/USB_hid.c ****                 }
 466              		.loc 1 182 0
 467 0090 FFF7FEFF 		bl	USB_InitControlRead
 468              	.LVL57:
 469 0094 08BD     		pop	{r3, pc}
 470              	.LVL58:
 471              	.L29:
 188:Generated_Source\PSoC5/USB_hid.c ****                 {
 472              		.loc 1 188 0
 473 0096 002A     		cmp	r2, #0
 474 0098 5BD1     		bne	.L44
 190:Generated_Source\PSoC5/USB_hid.c ****                     USB_currentTD.pData = &USB_hidProtocol[interfaceNumber];
 475              		.loc 1 190 0
 476 009a 3649     		ldr	r1, .L53+4
 477 009c 0123     		movs	r3, #1
 478 009e 0B80     		strh	r3, [r1]	@ movhi
 191:Generated_Source\PSoC5/USB_hid.c ****                     requestHandled  = USB_InitControlRead();
 479              		.loc 1 191 0
 480 00a0 364B     		ldr	r3, .L53+12
 481 00a2 1A44     		add	r2, r2, r3
 482              	.LVL59:
 483 00a4 4A60     		str	r2, [r1, #4]
 192:Generated_Source\PSoC5/USB_hid.c ****                 }
 484              		.loc 1 192 0
 485 00a6 FFF7FEFF 		bl	USB_InitControlRead
 486              	.LVL60:
 487 00aa 08BD     		pop	{r3, pc}
 488              	.LVL61:
 489              	.L24:
 204:Generated_Source\PSoC5/USB_hid.c ****         {
 490              		.loc 1 204 0
 491 00ac 304B     		ldr	r3, .L53
 492 00ae 5B78     		ldrb	r3, [r3, #1]	@ zero_extendqisi2
 493 00b0 DBB2     		uxtb	r3, r3
 494 00b2 0A2B     		cmp	r3, #10
 495 00b4 0DD0     		beq	.L32
 496 00b6 0B2B     		cmp	r3, #11
 497 00b8 2FD0     		beq	.L33
 498 00ba 092B     		cmp	r3, #9
 499 00bc 4BD1     		bne	.L51
 207:Generated_Source\PSoC5/USB_hid.c ****                 if (USB_currentTD.count != 0u)
 500              		.loc 1 207 0
 501 00be FFF7FEFF 		bl	USB_FindReport
 502              	.LVL62:
 208:Generated_Source\PSoC5/USB_hid.c ****                 {
 503              		.loc 1 208 0
 504 00c2 2C4B     		ldr	r3, .L53+4
 505 00c4 1B88     		ldrh	r3, [r3]
 506 00c6 9BB2     		uxth	r3, r3
 507 00c8 002B     		cmp	r3, #0
 508 00ca 46D0     		beq	.L46
ARM GAS  C:\Users\ANOOP~1.DES\AppData\Local\Temp\ccB6rIna.s 			page 18


 210:Generated_Source\PSoC5/USB_hid.c ****                 }
 509              		.loc 1 210 0
 510 00cc FFF7FEFF 		bl	USB_InitControlWrite
 511              	.LVL63:
 512 00d0 08BD     		pop	{r3, pc}
 513              	.LVL64:
 514              	.L32:
 217:Generated_Source\PSoC5/USB_hid.c ****                 {
 515              		.loc 1 217 0
 516 00d2 002A     		cmp	r2, #0
 517 00d4 43D1     		bne	.L47
 217:Generated_Source\PSoC5/USB_hid.c ****                 {
 518              		.loc 1 217 0 is_stmt 0 discriminator 1
 519 00d6 264B     		ldr	r3, .L53
 520 00d8 9B78     		ldrb	r3, [r3, #2]	@ zero_extendqisi2
 521 00da 13F0FF0F 		tst	r3, #255
 522 00de 40D1     		bne	.L48
 219:Generated_Source\PSoC5/USB_hid.c ****                     /* With regards to HID spec: "7.2.4 Set_Idle Request"
 523              		.loc 1 219 0 is_stmt 1
 524 00e0 234B     		ldr	r3, .L53
 525 00e2 DB78     		ldrb	r3, [r3, #3]	@ zero_extendqisi2
 526 00e4 DBB2     		uxtb	r3, r3
 527 00e6 2449     		ldr	r1, .L53+8
 528 00e8 8B54     		strb	r3, [r1, r2]
 225:Generated_Source\PSoC5/USB_hid.c ****                        USB_hidIdleTimer[interfaceNumber])
 529              		.loc 1 225 0
 530 00ea 895C     		ldrb	r1, [r1, r2]	@ zero_extendqisi2
 531 00ec C9B2     		uxtb	r1, r1
 226:Generated_Source\PSoC5/USB_hid.c ****                     {
 532              		.loc 1 226 0
 533 00ee 244B     		ldr	r3, .L53+16
 534 00f0 9B5C     		ldrb	r3, [r3, r2]	@ zero_extendqisi2
 535 00f2 DBB2     		uxtb	r3, r3
 225:Generated_Source\PSoC5/USB_hid.c ****                        USB_hidIdleTimer[interfaceNumber])
 536              		.loc 1 225 0
 537 00f4 9942     		cmp	r1, r3
 538 00f6 03D2     		bcs	.L35
 229:Generated_Source\PSoC5/USB_hid.c ****                     }
 539              		.loc 1 229 0
 540 00f8 0021     		movs	r1, #0
 541 00fa 214B     		ldr	r3, .L53+16
 542 00fc 9954     		strb	r1, [r3, r2]
 543 00fe 09E0     		b	.L36
 544              	.L35:
 235:Generated_Source\PSoC5/USB_hid.c ****                     {
 545              		.loc 1 235 0
 546 0100 1F4B     		ldr	r3, .L53+16
 547 0102 9B5C     		ldrb	r3, [r3, r2]	@ zero_extendqisi2
 548 0104 DBB2     		uxtb	r3, r3
 549 0106 012B     		cmp	r3, #1
 550 0108 04D9     		bls	.L36
 245:Generated_Source\PSoC5/USB_hid.c ****                     }
 551              		.loc 1 245 0
 552 010a 1B4B     		ldr	r3, .L53+8
 553 010c 9B5C     		ldrb	r3, [r3, r2]	@ zero_extendqisi2
 554 010e DBB2     		uxtb	r3, r3
 244:Generated_Source\PSoC5/USB_hid.c ****                         USB_hidIdleRate[interfaceNumber];
ARM GAS  C:\Users\ANOOP~1.DES\AppData\Local\Temp\ccB6rIna.s 			page 19


 555              		.loc 1 244 0
 556 0110 1B49     		ldr	r1, .L53+16
 557 0112 8B54     		strb	r3, [r1, r2]
 558              	.L36:
 247:Generated_Source\PSoC5/USB_hid.c ****                 }
 559              		.loc 1 247 0
 560 0114 FFF7FEFF 		bl	USB_InitNoDataControlTransfer
 561              	.LVL65:
 562 0118 08BD     		pop	{r3, pc}
 563              	.LVL66:
 564              	.L33:
 253:Generated_Source\PSoC5/USB_hid.c ****                 {
 565              		.loc 1 253 0
 566 011a 22BB     		cbnz	r2, .L49
 253:Generated_Source\PSoC5/USB_hid.c ****                 {
 567              		.loc 1 253 0 is_stmt 0 discriminator 1
 568 011c 144B     		ldr	r3, .L53
 569 011e 9B78     		ldrb	r3, [r3, #2]	@ zero_extendqisi2
 570 0120 DBB2     		uxtb	r3, r3
 571 0122 012B     		cmp	r3, #1
 572 0124 21D8     		bhi	.L50
 255:Generated_Source\PSoC5/USB_hid.c ****                     requestHandled = USB_InitNoDataControlTransfer();
 573              		.loc 1 255 0 is_stmt 1
 574 0126 124B     		ldr	r3, .L53
 575 0128 9B78     		ldrb	r3, [r3, #2]	@ zero_extendqisi2
 576 012a DBB2     		uxtb	r3, r3
 577 012c 1349     		ldr	r1, .L53+12
 578 012e 8B54     		strb	r3, [r1, r2]
 256:Generated_Source\PSoC5/USB_hid.c ****                 }
 579              		.loc 1 256 0
 580 0130 FFF7FEFF 		bl	USB_InitNoDataControlTransfer
 581              	.LVL67:
 582 0134 08BD     		pop	{r3, pc}
 583              	.LVL68:
 584              	.L37:
 133:Generated_Source\PSoC5/USB_hid.c **** 
 585              		.loc 1 133 0
 586 0136 0020     		movs	r0, #0
 587 0138 08BD     		pop	{r3, pc}
 588              	.LVL69:
 589              	.L38:
 590 013a 0020     		movs	r0, #0
 591 013c 08BD     		pop	{r3, pc}
 592              	.LVL70:
 593              	.L39:
 594 013e 0020     		movs	r0, #0
 595 0140 08BD     		pop	{r3, pc}
 596              	.LVL71:
 597              	.L40:
 598 0142 0020     		movs	r0, #0
 599 0144 08BD     		pop	{r3, pc}
 600              	.L41:
 601 0146 0020     		movs	r0, #0
 602 0148 08BD     		pop	{r3, pc}
 603              	.LVL72:
 604              	.L42:
 605 014a 0020     		movs	r0, #0
ARM GAS  C:\Users\ANOOP~1.DES\AppData\Local\Temp\ccB6rIna.s 			page 20


 606 014c 08BD     		pop	{r3, pc}
 607              	.L43:
 608 014e 0020     		movs	r0, #0
 609 0150 08BD     		pop	{r3, pc}
 610              	.L44:
 611 0152 0020     		movs	r0, #0
 612 0154 08BD     		pop	{r3, pc}
 613              	.L51:
 614 0156 0020     		movs	r0, #0
 615 0158 08BD     		pop	{r3, pc}
 616              	.LVL73:
 617              	.L46:
 618 015a 0020     		movs	r0, #0
 619 015c 08BD     		pop	{r3, pc}
 620              	.LVL74:
 621              	.L47:
 622 015e 0020     		movs	r0, #0
 623 0160 08BD     		pop	{r3, pc}
 624              	.L48:
 625 0162 0020     		movs	r0, #0
 626 0164 08BD     		pop	{r3, pc}
 627              	.L49:
 628 0166 0020     		movs	r0, #0
 629 0168 08BD     		pop	{r3, pc}
 630              	.L50:
 631 016a 0020     		movs	r0, #0
 632              	.LVL75:
 267:Generated_Source\PSoC5/USB_hid.c **** 
 633              		.loc 1 267 0
 634 016c 08BD     		pop	{r3, pc}
 635              	.L54:
 636 016e 00BF     		.align	2
 637              	.L53:
 638 0170 00600040 		.word	1073766400
 639 0174 00000000 		.word	USB_currentTD
 640 0178 00000000 		.word	USB_hidIdleRate
 641 017c 00000000 		.word	USB_hidProtocol
 642 0180 00000000 		.word	USB_hidIdleTimer
 643              		.cfi_endproc
 644              	.LFE2:
 645              		.size	USB_DispatchHIDClassRqst, .-USB_DispatchHIDClassRqst
 646              		.comm	USB_hidIdleTimer,1,4
 647              		.comm	USB_hidIdleRate,1,4
 648              		.comm	USB_hidProtocol,1,4
 649              		.text
 650              	.Letext0:
 651              		.file 2 "Generated_Source\\PSoC5\\cytypes.h"
 652              		.file 3 "Generated_Source\\PSoC5\\USB.h"
 653              		.file 4 "Generated_Source\\PSoC5\\USB_pvt.h"