ARM GAS  C:\Users\CHANTI~1\AppData\Local\Temp\cckZxxwg.s 			page 1


   1              		.syntax unified
   2              		.cpu cortex-m3
   3              		.fpu softvfp
   4              		.eabi_attribute 20, 1
   5              		.eabi_attribute 21, 1
   6              		.eabi_attribute 23, 3
   7              		.eabi_attribute 24, 1
   8              		.eabi_attribute 25, 1
   9              		.eabi_attribute 26, 1
  10              		.eabi_attribute 30, 1
  11              		.eabi_attribute 34, 1
  12              		.eabi_attribute 18, 4
  13              		.thumb
  14              		.syntax unified
  15              		.file	"USB_std.c"
  16              		.text
  17              	.Ltext0:
  18              		.cfi_sections	.debug_frame
  19              		.section	.text.USB_ConfigReg,"ax",%progbits
  20              		.align	2
  21              		.global	USB_ConfigReg
  22              		.thumb
  23              		.thumb_func
  24              		.type	USB_ConfigReg, %function
  25              	USB_ConfigReg:
  26              	.LFB1:
  27              		.file 1 "Generated_Source\\PSoC5\\USB_std.c"
   1:Generated_Source\PSoC5/USB_std.c **** /***************************************************************************//**
   2:Generated_Source\PSoC5/USB_std.c **** * \file USB_std.c
   3:Generated_Source\PSoC5/USB_std.c **** * \version 3.20
   4:Generated_Source\PSoC5/USB_std.c **** *
   5:Generated_Source\PSoC5/USB_std.c **** * \brief
   6:Generated_Source\PSoC5/USB_std.c **** *  This file contains the USB Standard request handler.
   7:Generated_Source\PSoC5/USB_std.c **** *
   8:Generated_Source\PSoC5/USB_std.c **** ********************************************************************************
   9:Generated_Source\PSoC5/USB_std.c **** * \copyright
  10:Generated_Source\PSoC5/USB_std.c **** * Copyright 2008-2016, Cypress Semiconductor Corporation.  All rights reserved.
  11:Generated_Source\PSoC5/USB_std.c **** * You may use this file only in accordance with the license, terms, conditions,
  12:Generated_Source\PSoC5/USB_std.c **** * disclaimers, and limitations in the end user license agreement accompanying
  13:Generated_Source\PSoC5/USB_std.c **** * the software package with which this file was provided.
  14:Generated_Source\PSoC5/USB_std.c **** *******************************************************************************/
  15:Generated_Source\PSoC5/USB_std.c **** 
  16:Generated_Source\PSoC5/USB_std.c **** #include "USB_pvt.h"
  17:Generated_Source\PSoC5/USB_std.c **** 
  18:Generated_Source\PSoC5/USB_std.c **** /***************************************
  19:Generated_Source\PSoC5/USB_std.c **** *   Static data allocation
  20:Generated_Source\PSoC5/USB_std.c **** ***************************************/
  21:Generated_Source\PSoC5/USB_std.c **** 
  22:Generated_Source\PSoC5/USB_std.c **** #if defined(USB_ENABLE_FWSN_STRING)
  23:Generated_Source\PSoC5/USB_std.c ****     static volatile uint8* USB_fwSerialNumberStringDescriptor;
  24:Generated_Source\PSoC5/USB_std.c ****     static volatile uint8  USB_snStringConfirm = USB_FALSE;
  25:Generated_Source\PSoC5/USB_std.c **** #endif  /* (USB_ENABLE_FWSN_STRING) */
  26:Generated_Source\PSoC5/USB_std.c **** 
  27:Generated_Source\PSoC5/USB_std.c **** #if defined(USB_ENABLE_FWSN_STRING)
  28:Generated_Source\PSoC5/USB_std.c ****     /***************************************************************************
  29:Generated_Source\PSoC5/USB_std.c ****     * Function Name: USB_SerialNumString
  30:Generated_Source\PSoC5/USB_std.c ****     ************************************************************************//**
ARM GAS  C:\Users\CHANTI~1\AppData\Local\Temp\cckZxxwg.s 			page 2


  31:Generated_Source\PSoC5/USB_std.c ****     *
  32:Generated_Source\PSoC5/USB_std.c ****     *  This function is available only when the User Call Back option in the 
  33:Generated_Source\PSoC5/USB_std.c ****     *  Serial Number String descriptor properties is selected. Application 
  34:Generated_Source\PSoC5/USB_std.c ****     *  firmware can provide the source of the USB device serial number string 
  35:Generated_Source\PSoC5/USB_std.c ****     *  descriptor during run time. The default string is used if the application 
  36:Generated_Source\PSoC5/USB_std.c ****     *  firmware does not use this function or sets the wrong string descriptor.
  37:Generated_Source\PSoC5/USB_std.c ****     *
  38:Generated_Source\PSoC5/USB_std.c ****     *  \param snString:  Pointer to the user-defined string descriptor. The 
  39:Generated_Source\PSoC5/USB_std.c ****     *  string descriptor should meet the Universal Serial Bus Specification 
  40:Generated_Source\PSoC5/USB_std.c ****     *  revision 2.0 chapter 9.6.7
  41:Generated_Source\PSoC5/USB_std.c ****     *  Offset|Size|Value|Description
  42:Generated_Source\PSoC5/USB_std.c ****     *  ------|----|------|---------------------------------
  43:Generated_Source\PSoC5/USB_std.c ****     *  0     |1   |N     |Size of this descriptor in bytes
  44:Generated_Source\PSoC5/USB_std.c ****     *  1     |1   |0x03  |STRING Descriptor Type
  45:Generated_Source\PSoC5/USB_std.c ****     *  2     |N-2 |Number|UNICODE encoded string
  46:Generated_Source\PSoC5/USB_std.c ****     *  
  47:Generated_Source\PSoC5/USB_std.c ****     * *For example:* uint8 snString[16]={0x0E,0x03,'F',0,'W',0,'S',0,'N',0,'0',0,'1',0};
  48:Generated_Source\PSoC5/USB_std.c ****     *
  49:Generated_Source\PSoC5/USB_std.c ****     * \reentrant
  50:Generated_Source\PSoC5/USB_std.c ****     *  No.
  51:Generated_Source\PSoC5/USB_std.c ****     *
  52:Generated_Source\PSoC5/USB_std.c ****     ***************************************************************************/
  53:Generated_Source\PSoC5/USB_std.c ****     void  USB_SerialNumString(uint8 snString[]) 
  54:Generated_Source\PSoC5/USB_std.c ****     {
  55:Generated_Source\PSoC5/USB_std.c ****         USB_snStringConfirm = USB_FALSE;
  56:Generated_Source\PSoC5/USB_std.c ****         
  57:Generated_Source\PSoC5/USB_std.c ****         if (snString != NULL)
  58:Generated_Source\PSoC5/USB_std.c ****         {
  59:Generated_Source\PSoC5/USB_std.c ****             /* Check descriptor validation */
  60:Generated_Source\PSoC5/USB_std.c ****             if ((snString[0u] > 1u) && (snString[1u] == USB_DESCR_STRING))
  61:Generated_Source\PSoC5/USB_std.c ****             {
  62:Generated_Source\PSoC5/USB_std.c ****                 USB_fwSerialNumberStringDescriptor = snString;
  63:Generated_Source\PSoC5/USB_std.c ****                 USB_snStringConfirm = USB_TRUE;
  64:Generated_Source\PSoC5/USB_std.c ****             }
  65:Generated_Source\PSoC5/USB_std.c ****         }
  66:Generated_Source\PSoC5/USB_std.c ****     }
  67:Generated_Source\PSoC5/USB_std.c **** #endif  /* USB_ENABLE_FWSN_STRING */
  68:Generated_Source\PSoC5/USB_std.c **** 
  69:Generated_Source\PSoC5/USB_std.c **** 
  70:Generated_Source\PSoC5/USB_std.c **** /*******************************************************************************
  71:Generated_Source\PSoC5/USB_std.c **** * Function Name: USB_HandleStandardRqst
  72:Generated_Source\PSoC5/USB_std.c **** ****************************************************************************//**
  73:Generated_Source\PSoC5/USB_std.c **** *
  74:Generated_Source\PSoC5/USB_std.c **** *  This Routine dispatches standard requests
  75:Generated_Source\PSoC5/USB_std.c **** *
  76:Generated_Source\PSoC5/USB_std.c **** *
  77:Generated_Source\PSoC5/USB_std.c **** * \return
  78:Generated_Source\PSoC5/USB_std.c **** *  TRUE if request handled.
  79:Generated_Source\PSoC5/USB_std.c **** *
  80:Generated_Source\PSoC5/USB_std.c **** * \reentrant
  81:Generated_Source\PSoC5/USB_std.c **** *  No.
  82:Generated_Source\PSoC5/USB_std.c **** *
  83:Generated_Source\PSoC5/USB_std.c **** *******************************************************************************/
  84:Generated_Source\PSoC5/USB_std.c **** uint8 USB_HandleStandardRqst(void) 
  85:Generated_Source\PSoC5/USB_std.c **** {
  86:Generated_Source\PSoC5/USB_std.c ****     uint8 requestHandled = USB_FALSE;
  87:Generated_Source\PSoC5/USB_std.c ****     uint8 interfaceNumber;
ARM GAS  C:\Users\CHANTI~1\AppData\Local\Temp\cckZxxwg.s 			page 3


  88:Generated_Source\PSoC5/USB_std.c ****     uint8 configurationN;
  89:Generated_Source\PSoC5/USB_std.c ****     uint8 bmRequestType = USB_bmRequestTypeReg;
  90:Generated_Source\PSoC5/USB_std.c **** 
  91:Generated_Source\PSoC5/USB_std.c **** #if defined(USB_ENABLE_STRINGS)
  92:Generated_Source\PSoC5/USB_std.c ****     volatile uint8 *pStr = 0u;
  93:Generated_Source\PSoC5/USB_std.c ****     #if defined(USB_ENABLE_DESCRIPTOR_STRINGS)
  94:Generated_Source\PSoC5/USB_std.c ****         uint8 nStr;
  95:Generated_Source\PSoC5/USB_std.c ****         uint8 descrLength;
  96:Generated_Source\PSoC5/USB_std.c ****     #endif /* (USB_ENABLE_DESCRIPTOR_STRINGS) */
  97:Generated_Source\PSoC5/USB_std.c **** #endif /* (USB_ENABLE_STRINGS) */
  98:Generated_Source\PSoC5/USB_std.c ****     
  99:Generated_Source\PSoC5/USB_std.c ****     static volatile uint8 USB_tBuffer[USB_STATUS_LENGTH_MAX];
 100:Generated_Source\PSoC5/USB_std.c ****     const T_USB_LUT CYCODE *pTmp;
 101:Generated_Source\PSoC5/USB_std.c **** 
 102:Generated_Source\PSoC5/USB_std.c ****     USB_currentTD.count = 0u;
 103:Generated_Source\PSoC5/USB_std.c **** 
 104:Generated_Source\PSoC5/USB_std.c ****     if (USB_RQST_DIR_D2H == (bmRequestType & USB_RQST_DIR_MASK))
 105:Generated_Source\PSoC5/USB_std.c ****     {
 106:Generated_Source\PSoC5/USB_std.c ****         /* Control Read */
 107:Generated_Source\PSoC5/USB_std.c ****         switch (USB_bRequestReg)
 108:Generated_Source\PSoC5/USB_std.c ****         {
 109:Generated_Source\PSoC5/USB_std.c ****             case USB_GET_DESCRIPTOR:
 110:Generated_Source\PSoC5/USB_std.c ****                 if (USB_DESCR_DEVICE ==USB_wValueHiReg)
 111:Generated_Source\PSoC5/USB_std.c ****                 {
 112:Generated_Source\PSoC5/USB_std.c ****                     pTmp = USB_GetDeviceTablePtr();
 113:Generated_Source\PSoC5/USB_std.c ****                     USB_currentTD.pData = (volatile uint8 *)pTmp->p_list;
 114:Generated_Source\PSoC5/USB_std.c ****                     USB_currentTD.count = USB_DEVICE_DESCR_LENGTH;
 115:Generated_Source\PSoC5/USB_std.c ****                     
 116:Generated_Source\PSoC5/USB_std.c ****                     requestHandled  = USB_InitControlRead();
 117:Generated_Source\PSoC5/USB_std.c ****                 }
 118:Generated_Source\PSoC5/USB_std.c ****                 else if (USB_DESCR_CONFIG == USB_wValueHiReg)
 119:Generated_Source\PSoC5/USB_std.c ****                 {
 120:Generated_Source\PSoC5/USB_std.c ****                     pTmp = USB_GetConfigTablePtr((uint8) USB_wValueLoReg);
 121:Generated_Source\PSoC5/USB_std.c ****                     
 122:Generated_Source\PSoC5/USB_std.c ****                     /* Verify that requested descriptor exists */
 123:Generated_Source\PSoC5/USB_std.c ****                     if (pTmp != NULL)
 124:Generated_Source\PSoC5/USB_std.c ****                     {
 125:Generated_Source\PSoC5/USB_std.c ****                         USB_currentTD.pData = (volatile uint8 *)pTmp->p_list;
 126:Generated_Source\PSoC5/USB_std.c ****                         USB_currentTD.count = (uint16)((uint16)(USB_currentTD.pData)[USB_CONFIG_DES
 127:Generated_Source\PSoC5/USB_std.c ****                                                                             (USB_currentTD.pData)[U
 128:Generated_Source\PSoC5/USB_std.c ****                         requestHandled  = USB_InitControlRead();
 129:Generated_Source\PSoC5/USB_std.c ****                     }
 130:Generated_Source\PSoC5/USB_std.c ****                 }
 131:Generated_Source\PSoC5/USB_std.c ****                 
 132:Generated_Source\PSoC5/USB_std.c ****             #if(USB_BOS_ENABLE)
 133:Generated_Source\PSoC5/USB_std.c ****                 else if (USB_DESCR_BOS == USB_wValueHiReg)
 134:Generated_Source\PSoC5/USB_std.c ****                 {
 135:Generated_Source\PSoC5/USB_std.c ****                     pTmp = USB_GetBOSPtr();
 136:Generated_Source\PSoC5/USB_std.c ****                     
 137:Generated_Source\PSoC5/USB_std.c ****                     /* Verify that requested descriptor exists */
 138:Generated_Source\PSoC5/USB_std.c ****                     if (pTmp != NULL)
 139:Generated_Source\PSoC5/USB_std.c ****                     {
 140:Generated_Source\PSoC5/USB_std.c ****                         USB_currentTD.pData = (volatile uint8 *)pTmp;
 141:Generated_Source\PSoC5/USB_std.c ****                         USB_currentTD.count = ((uint16)((uint16)(USB_currentTD.pData)[USB_BOS_DESCR
 142:Generated_Source\PSoC5/USB_std.c ****                                                                              (USB_currentTD.pData)[
 143:Generated_Source\PSoC5/USB_std.c ****                         requestHandled  = USB_InitControlRead();
 144:Generated_Source\PSoC5/USB_std.c ****                     }
ARM GAS  C:\Users\CHANTI~1\AppData\Local\Temp\cckZxxwg.s 			page 4


 145:Generated_Source\PSoC5/USB_std.c ****                 }
 146:Generated_Source\PSoC5/USB_std.c ****             #endif /*(USB_BOS_ENABLE)*/
 147:Generated_Source\PSoC5/USB_std.c ****             
 148:Generated_Source\PSoC5/USB_std.c ****             #if defined(USB_ENABLE_STRINGS)
 149:Generated_Source\PSoC5/USB_std.c ****                 else if (USB_DESCR_STRING == USB_wValueHiReg)
 150:Generated_Source\PSoC5/USB_std.c ****                 {
 151:Generated_Source\PSoC5/USB_std.c ****                 /* Descriptor Strings */
 152:Generated_Source\PSoC5/USB_std.c ****                 #if defined(USB_ENABLE_DESCRIPTOR_STRINGS)
 153:Generated_Source\PSoC5/USB_std.c ****                     nStr = 0u;
 154:Generated_Source\PSoC5/USB_std.c ****                     pStr = (volatile uint8 *) &USB_STRING_DESCRIPTORS[0u];
 155:Generated_Source\PSoC5/USB_std.c ****                     
 156:Generated_Source\PSoC5/USB_std.c ****                     while ((USB_wValueLoReg > nStr) && (*pStr != 0u))
 157:Generated_Source\PSoC5/USB_std.c ****                     {
 158:Generated_Source\PSoC5/USB_std.c ****                         /* Read descriptor length from 1st byte */
 159:Generated_Source\PSoC5/USB_std.c ****                         descrLength = *pStr;
 160:Generated_Source\PSoC5/USB_std.c ****                         /* Move to next string descriptor */
 161:Generated_Source\PSoC5/USB_std.c ****                         pStr = &pStr[descrLength];
 162:Generated_Source\PSoC5/USB_std.c ****                         nStr++;
 163:Generated_Source\PSoC5/USB_std.c ****                     }
 164:Generated_Source\PSoC5/USB_std.c ****                 #endif /* (USB_ENABLE_DESCRIPTOR_STRINGS) */
 165:Generated_Source\PSoC5/USB_std.c ****                 
 166:Generated_Source\PSoC5/USB_std.c ****                 /* Microsoft OS String */
 167:Generated_Source\PSoC5/USB_std.c ****                 #if defined(USB_ENABLE_MSOS_STRING)
 168:Generated_Source\PSoC5/USB_std.c ****                     if (USB_STRING_MSOS == USB_wValueLoReg)
 169:Generated_Source\PSoC5/USB_std.c ****                     {
 170:Generated_Source\PSoC5/USB_std.c ****                         pStr = (volatile uint8 *)& USB_MSOS_DESCRIPTOR[0u];
 171:Generated_Source\PSoC5/USB_std.c ****                     }
 172:Generated_Source\PSoC5/USB_std.c ****                 #endif /* (USB_ENABLE_MSOS_STRING) */
 173:Generated_Source\PSoC5/USB_std.c ****                 
 174:Generated_Source\PSoC5/USB_std.c ****                 /* SN string */
 175:Generated_Source\PSoC5/USB_std.c ****                 #if defined(USB_ENABLE_SN_STRING)
 176:Generated_Source\PSoC5/USB_std.c ****                     if ((USB_wValueLoReg != 0u) && 
 177:Generated_Source\PSoC5/USB_std.c ****                         (USB_wValueLoReg == USB_DEVICE0_DESCR[USB_DEVICE_DESCR_SN_SHIFT]))
 178:Generated_Source\PSoC5/USB_std.c ****                     {
 179:Generated_Source\PSoC5/USB_std.c ****                     #if defined(USB_ENABLE_IDSN_STRING)
 180:Generated_Source\PSoC5/USB_std.c ****                         /* Read DIE ID and generate string descriptor in RAM */
 181:Generated_Source\PSoC5/USB_std.c ****                         USB_ReadDieID(USB_idSerialNumberStringDescriptor);
 182:Generated_Source\PSoC5/USB_std.c ****                         pStr = USB_idSerialNumberStringDescriptor;
 183:Generated_Source\PSoC5/USB_std.c ****                     #elif defined(USB_ENABLE_FWSN_STRING)
 184:Generated_Source\PSoC5/USB_std.c ****                         
 185:Generated_Source\PSoC5/USB_std.c ****                         if(USB_snStringConfirm != USB_FALSE)
 186:Generated_Source\PSoC5/USB_std.c ****                         {
 187:Generated_Source\PSoC5/USB_std.c ****                             pStr = USB_fwSerialNumberStringDescriptor;
 188:Generated_Source\PSoC5/USB_std.c ****                         }
 189:Generated_Source\PSoC5/USB_std.c ****                         else
 190:Generated_Source\PSoC5/USB_std.c ****                         {
 191:Generated_Source\PSoC5/USB_std.c ****                             pStr = (volatile uint8 *)&USB_SN_STRING_DESCRIPTOR[0u];
 192:Generated_Source\PSoC5/USB_std.c ****                         }
 193:Generated_Source\PSoC5/USB_std.c ****                     #else
 194:Generated_Source\PSoC5/USB_std.c ****                         pStr = (volatile uint8 *)&USB_SN_STRING_DESCRIPTOR[0u];
 195:Generated_Source\PSoC5/USB_std.c ****                     #endif  /* (USB_ENABLE_IDSN_STRING) */
 196:Generated_Source\PSoC5/USB_std.c ****                     }
 197:Generated_Source\PSoC5/USB_std.c ****                 #endif /* (USB_ENABLE_SN_STRING) */
 198:Generated_Source\PSoC5/USB_std.c ****                 
 199:Generated_Source\PSoC5/USB_std.c ****                     if (*pStr != 0u)
 200:Generated_Source\PSoC5/USB_std.c ****                     {
 201:Generated_Source\PSoC5/USB_std.c ****                         USB_currentTD.count = *pStr;
ARM GAS  C:\Users\CHANTI~1\AppData\Local\Temp\cckZxxwg.s 			page 5


 202:Generated_Source\PSoC5/USB_std.c ****                         USB_currentTD.pData = pStr;
 203:Generated_Source\PSoC5/USB_std.c ****                         requestHandled  = USB_InitControlRead();
 204:Generated_Source\PSoC5/USB_std.c ****                     }
 205:Generated_Source\PSoC5/USB_std.c ****                 }
 206:Generated_Source\PSoC5/USB_std.c ****             #endif /*  USB_ENABLE_STRINGS */
 207:Generated_Source\PSoC5/USB_std.c ****                 else
 208:Generated_Source\PSoC5/USB_std.c ****                 {
 209:Generated_Source\PSoC5/USB_std.c ****                     requestHandled = USB_DispatchClassRqst();
 210:Generated_Source\PSoC5/USB_std.c ****                 }
 211:Generated_Source\PSoC5/USB_std.c ****                 break;
 212:Generated_Source\PSoC5/USB_std.c ****                 
 213:Generated_Source\PSoC5/USB_std.c ****             case USB_GET_STATUS:
 214:Generated_Source\PSoC5/USB_std.c ****                 switch (bmRequestType & USB_RQST_RCPT_MASK)
 215:Generated_Source\PSoC5/USB_std.c ****                 {
 216:Generated_Source\PSoC5/USB_std.c ****                     case USB_RQST_RCPT_EP:
 217:Generated_Source\PSoC5/USB_std.c ****                         USB_currentTD.count = USB_EP_STATUS_LENGTH;
 218:Generated_Source\PSoC5/USB_std.c ****                         USB_tBuffer[0u]     = USB_EP[USB_wIndexLoReg & USB_DIR_UNUSED].hwEpState;
 219:Generated_Source\PSoC5/USB_std.c ****                         USB_tBuffer[1u]     = 0u;
 220:Generated_Source\PSoC5/USB_std.c ****                         USB_currentTD.pData = &USB_tBuffer[0u];
 221:Generated_Source\PSoC5/USB_std.c ****                         
 222:Generated_Source\PSoC5/USB_std.c ****                         requestHandled  = USB_InitControlRead();
 223:Generated_Source\PSoC5/USB_std.c ****                         break;
 224:Generated_Source\PSoC5/USB_std.c ****                     case USB_RQST_RCPT_DEV:
 225:Generated_Source\PSoC5/USB_std.c ****                         USB_currentTD.count = USB_DEVICE_STATUS_LENGTH;
 226:Generated_Source\PSoC5/USB_std.c ****                         USB_tBuffer[0u]     = USB_deviceStatus;
 227:Generated_Source\PSoC5/USB_std.c ****                         USB_tBuffer[1u]     = 0u;
 228:Generated_Source\PSoC5/USB_std.c ****                         USB_currentTD.pData = &USB_tBuffer[0u];
 229:Generated_Source\PSoC5/USB_std.c ****                         
 230:Generated_Source\PSoC5/USB_std.c ****                         requestHandled  = USB_InitControlRead();
 231:Generated_Source\PSoC5/USB_std.c ****                         break;
 232:Generated_Source\PSoC5/USB_std.c ****                     default:    /* requestHandled is initialized as FALSE by default */
 233:Generated_Source\PSoC5/USB_std.c ****                         break;
 234:Generated_Source\PSoC5/USB_std.c ****                 }
 235:Generated_Source\PSoC5/USB_std.c ****                 break;
 236:Generated_Source\PSoC5/USB_std.c ****                 
 237:Generated_Source\PSoC5/USB_std.c ****             case USB_GET_CONFIGURATION:
 238:Generated_Source\PSoC5/USB_std.c ****                 USB_currentTD.count = 1u;
 239:Generated_Source\PSoC5/USB_std.c ****                 USB_currentTD.pData = (volatile uint8 *) &USB_configuration;
 240:Generated_Source\PSoC5/USB_std.c ****                 requestHandled  = USB_InitControlRead();
 241:Generated_Source\PSoC5/USB_std.c ****                 break;
 242:Generated_Source\PSoC5/USB_std.c ****                 
 243:Generated_Source\PSoC5/USB_std.c ****             case USB_GET_INTERFACE:
 244:Generated_Source\PSoC5/USB_std.c ****                 USB_currentTD.count = 1u;
 245:Generated_Source\PSoC5/USB_std.c ****                 USB_currentTD.pData = (volatile uint8 *) &USB_interfaceSetting[USB_wIndexLoReg];
 246:Generated_Source\PSoC5/USB_std.c ****                 requestHandled  = USB_InitControlRead();
 247:Generated_Source\PSoC5/USB_std.c ****                 break;
 248:Generated_Source\PSoC5/USB_std.c ****                 
 249:Generated_Source\PSoC5/USB_std.c ****             default: /* requestHandled is initialized as FALSE by default */
 250:Generated_Source\PSoC5/USB_std.c ****                 break;
 251:Generated_Source\PSoC5/USB_std.c ****         }
 252:Generated_Source\PSoC5/USB_std.c ****     }
 253:Generated_Source\PSoC5/USB_std.c ****     else
 254:Generated_Source\PSoC5/USB_std.c ****     {
 255:Generated_Source\PSoC5/USB_std.c ****         /* Control Write */
 256:Generated_Source\PSoC5/USB_std.c ****         switch (USB_bRequestReg)
 257:Generated_Source\PSoC5/USB_std.c ****         {
 258:Generated_Source\PSoC5/USB_std.c ****             case USB_SET_ADDRESS:
ARM GAS  C:\Users\CHANTI~1\AppData\Local\Temp\cckZxxwg.s 			page 6


 259:Generated_Source\PSoC5/USB_std.c ****                 /* Store address to be set in USB_NoDataControlStatusStage(). */
 260:Generated_Source\PSoC5/USB_std.c ****                 USB_deviceAddress = (uint8) USB_wValueLoReg;
 261:Generated_Source\PSoC5/USB_std.c ****                 requestHandled = USB_InitNoDataControlTransfer();
 262:Generated_Source\PSoC5/USB_std.c ****                 break;
 263:Generated_Source\PSoC5/USB_std.c ****                 
 264:Generated_Source\PSoC5/USB_std.c ****             case USB_SET_CONFIGURATION:
 265:Generated_Source\PSoC5/USB_std.c ****                 configurationN = USB_wValueLoReg;
 266:Generated_Source\PSoC5/USB_std.c ****                 
 267:Generated_Source\PSoC5/USB_std.c ****                 /* Verify that configuration descriptor exists */
 268:Generated_Source\PSoC5/USB_std.c ****                 if(configurationN > 0u)
 269:Generated_Source\PSoC5/USB_std.c ****                 {
 270:Generated_Source\PSoC5/USB_std.c ****                     pTmp = USB_GetConfigTablePtr((uint8) configurationN - 1u);
 271:Generated_Source\PSoC5/USB_std.c ****                 }
 272:Generated_Source\PSoC5/USB_std.c ****                 
 273:Generated_Source\PSoC5/USB_std.c ****                 /* Responds with a Request Error when configuration number is invalid */
 274:Generated_Source\PSoC5/USB_std.c ****                 if (((configurationN > 0u) && (pTmp != NULL)) || (configurationN == 0u))
 275:Generated_Source\PSoC5/USB_std.c ****                 {
 276:Generated_Source\PSoC5/USB_std.c ****                     /* Set new configuration if it has been changed */
 277:Generated_Source\PSoC5/USB_std.c ****                     if(configurationN != USB_configuration)
 278:Generated_Source\PSoC5/USB_std.c ****                     {
 279:Generated_Source\PSoC5/USB_std.c ****                         USB_configuration = (uint8) configurationN;
 280:Generated_Source\PSoC5/USB_std.c ****                         USB_configurationChanged = USB_TRUE;
 281:Generated_Source\PSoC5/USB_std.c ****                         USB_Config(USB_TRUE);
 282:Generated_Source\PSoC5/USB_std.c ****                     }
 283:Generated_Source\PSoC5/USB_std.c ****                     requestHandled = USB_InitNoDataControlTransfer();
 284:Generated_Source\PSoC5/USB_std.c ****                 }
 285:Generated_Source\PSoC5/USB_std.c ****                 break;
 286:Generated_Source\PSoC5/USB_std.c ****                 
 287:Generated_Source\PSoC5/USB_std.c ****             case USB_SET_INTERFACE:
 288:Generated_Source\PSoC5/USB_std.c ****                 if (0u != USB_ValidateAlternateSetting())
 289:Generated_Source\PSoC5/USB_std.c ****                 {
 290:Generated_Source\PSoC5/USB_std.c ****                     /* Get interface number from the request. */
 291:Generated_Source\PSoC5/USB_std.c ****                     interfaceNumber = USB_wIndexLoReg;
 292:Generated_Source\PSoC5/USB_std.c ****                     USB_interfaceNumber = (uint8) USB_wIndexLoReg;
 293:Generated_Source\PSoC5/USB_std.c ****                      
 294:Generated_Source\PSoC5/USB_std.c ****                     /* Check if alternate settings is changed for interface. */
 295:Generated_Source\PSoC5/USB_std.c ****                     if (USB_interfaceSettingLast[interfaceNumber] != USB_interfaceSetting[interface
 296:Generated_Source\PSoC5/USB_std.c ****                     {
 297:Generated_Source\PSoC5/USB_std.c ****                         USB_configurationChanged = USB_TRUE;
 298:Generated_Source\PSoC5/USB_std.c ****                     
 299:Generated_Source\PSoC5/USB_std.c ****                         /* Change alternate setting for the endpoints. */
 300:Generated_Source\PSoC5/USB_std.c ****                     #if (USB_EP_MANAGEMENT_MANUAL && USB_EP_ALLOC_DYNAMIC)
 301:Generated_Source\PSoC5/USB_std.c ****                         USB_Config(USB_FALSE);
 302:Generated_Source\PSoC5/USB_std.c ****                     #else
 303:Generated_Source\PSoC5/USB_std.c ****                         USB_ConfigAltChanged();
 304:Generated_Source\PSoC5/USB_std.c ****                     #endif /* (USB_EP_MANAGEMENT_MANUAL && USB_EP_ALLOC_DYNAMIC) */
 305:Generated_Source\PSoC5/USB_std.c ****                     }
 306:Generated_Source\PSoC5/USB_std.c ****                     
 307:Generated_Source\PSoC5/USB_std.c ****                     requestHandled = USB_InitNoDataControlTransfer();
 308:Generated_Source\PSoC5/USB_std.c ****                 }
 309:Generated_Source\PSoC5/USB_std.c ****                 break;
 310:Generated_Source\PSoC5/USB_std.c ****                 
 311:Generated_Source\PSoC5/USB_std.c ****             case USB_CLEAR_FEATURE:
 312:Generated_Source\PSoC5/USB_std.c ****                 switch (bmRequestType & USB_RQST_RCPT_MASK)
 313:Generated_Source\PSoC5/USB_std.c ****                 {
 314:Generated_Source\PSoC5/USB_std.c ****                     case USB_RQST_RCPT_EP:
 315:Generated_Source\PSoC5/USB_std.c ****                         if (USB_wValueLoReg == USB_ENDPOINT_HALT)
ARM GAS  C:\Users\CHANTI~1\AppData\Local\Temp\cckZxxwg.s 			page 7


 316:Generated_Source\PSoC5/USB_std.c ****                         {
 317:Generated_Source\PSoC5/USB_std.c ****                             requestHandled = USB_ClearEndpointHalt();
 318:Generated_Source\PSoC5/USB_std.c ****                         }
 319:Generated_Source\PSoC5/USB_std.c ****                         break;
 320:Generated_Source\PSoC5/USB_std.c ****                     case USB_RQST_RCPT_DEV:
 321:Generated_Source\PSoC5/USB_std.c ****                         /* Clear device REMOTE_WAKEUP */
 322:Generated_Source\PSoC5/USB_std.c ****                         if (USB_wValueLoReg == USB_DEVICE_REMOTE_WAKEUP)
 323:Generated_Source\PSoC5/USB_std.c ****                         {
 324:Generated_Source\PSoC5/USB_std.c ****                             USB_deviceStatus &= (uint8)~USB_DEVICE_STATUS_REMOTE_WAKEUP;
 325:Generated_Source\PSoC5/USB_std.c ****                             requestHandled = USB_InitNoDataControlTransfer();
 326:Generated_Source\PSoC5/USB_std.c ****                         }
 327:Generated_Source\PSoC5/USB_std.c ****                         break;
 328:Generated_Source\PSoC5/USB_std.c ****                     case USB_RQST_RCPT_IFC:
 329:Generated_Source\PSoC5/USB_std.c ****                         /* Validate interfaceNumber */
 330:Generated_Source\PSoC5/USB_std.c ****                         if (USB_wIndexLoReg < USB_MAX_INTERFACES_NUMBER)
 331:Generated_Source\PSoC5/USB_std.c ****                         {
 332:Generated_Source\PSoC5/USB_std.c ****                             USB_interfaceStatus[USB_wIndexLoReg] &= (uint8) ~USB_wValueLoReg;
 333:Generated_Source\PSoC5/USB_std.c ****                             requestHandled = USB_InitNoDataControlTransfer();
 334:Generated_Source\PSoC5/USB_std.c ****                         }
 335:Generated_Source\PSoC5/USB_std.c ****                         break;
 336:Generated_Source\PSoC5/USB_std.c ****                     default:    /* requestHandled is initialized as FALSE by default */
 337:Generated_Source\PSoC5/USB_std.c ****                         break;
 338:Generated_Source\PSoC5/USB_std.c ****                 }
 339:Generated_Source\PSoC5/USB_std.c ****                 break;
 340:Generated_Source\PSoC5/USB_std.c ****                 
 341:Generated_Source\PSoC5/USB_std.c ****             case USB_SET_FEATURE:
 342:Generated_Source\PSoC5/USB_std.c ****                 switch (bmRequestType & USB_RQST_RCPT_MASK)
 343:Generated_Source\PSoC5/USB_std.c ****                 {
 344:Generated_Source\PSoC5/USB_std.c ****                     case USB_RQST_RCPT_EP:
 345:Generated_Source\PSoC5/USB_std.c ****                         if (USB_wValueLoReg == USB_ENDPOINT_HALT)
 346:Generated_Source\PSoC5/USB_std.c ****                         {
 347:Generated_Source\PSoC5/USB_std.c ****                             requestHandled = USB_SetEndpointHalt();
 348:Generated_Source\PSoC5/USB_std.c ****                         }
 349:Generated_Source\PSoC5/USB_std.c ****                         break;
 350:Generated_Source\PSoC5/USB_std.c ****                         
 351:Generated_Source\PSoC5/USB_std.c ****                     case USB_RQST_RCPT_DEV:
 352:Generated_Source\PSoC5/USB_std.c ****                         /* Set device REMOTE_WAKEUP */
 353:Generated_Source\PSoC5/USB_std.c ****                         if (USB_wValueLoReg == USB_DEVICE_REMOTE_WAKEUP)
 354:Generated_Source\PSoC5/USB_std.c ****                         {
 355:Generated_Source\PSoC5/USB_std.c ****                             USB_deviceStatus |= USB_DEVICE_STATUS_REMOTE_WAKEUP;
 356:Generated_Source\PSoC5/USB_std.c ****                             requestHandled = USB_InitNoDataControlTransfer();
 357:Generated_Source\PSoC5/USB_std.c ****                         }
 358:Generated_Source\PSoC5/USB_std.c ****                         break;
 359:Generated_Source\PSoC5/USB_std.c ****                         
 360:Generated_Source\PSoC5/USB_std.c ****                     case USB_RQST_RCPT_IFC:
 361:Generated_Source\PSoC5/USB_std.c ****                         /* Validate interfaceNumber */
 362:Generated_Source\PSoC5/USB_std.c ****                         if (USB_wIndexLoReg < USB_MAX_INTERFACES_NUMBER)
 363:Generated_Source\PSoC5/USB_std.c ****                         {
 364:Generated_Source\PSoC5/USB_std.c ****                             USB_interfaceStatus[USB_wIndexLoReg] &= (uint8) ~USB_wValueLoReg;
 365:Generated_Source\PSoC5/USB_std.c ****                             requestHandled = USB_InitNoDataControlTransfer();
 366:Generated_Source\PSoC5/USB_std.c ****                         }
 367:Generated_Source\PSoC5/USB_std.c ****                         break;
 368:Generated_Source\PSoC5/USB_std.c ****                     
 369:Generated_Source\PSoC5/USB_std.c ****                     default:    /* requestHandled is initialized as FALSE by default */
 370:Generated_Source\PSoC5/USB_std.c ****                         break;
 371:Generated_Source\PSoC5/USB_std.c ****                 }
 372:Generated_Source\PSoC5/USB_std.c ****                 break;
ARM GAS  C:\Users\CHANTI~1\AppData\Local\Temp\cckZxxwg.s 			page 8


 373:Generated_Source\PSoC5/USB_std.c ****                 
 374:Generated_Source\PSoC5/USB_std.c ****             default:    /* requestHandled is initialized as FALSE by default */
 375:Generated_Source\PSoC5/USB_std.c ****                 break;
 376:Generated_Source\PSoC5/USB_std.c ****         }
 377:Generated_Source\PSoC5/USB_std.c ****     }
 378:Generated_Source\PSoC5/USB_std.c ****     
 379:Generated_Source\PSoC5/USB_std.c ****     return (requestHandled);
 380:Generated_Source\PSoC5/USB_std.c **** }
 381:Generated_Source\PSoC5/USB_std.c **** 
 382:Generated_Source\PSoC5/USB_std.c **** 
 383:Generated_Source\PSoC5/USB_std.c **** #if defined(USB_ENABLE_IDSN_STRING)
 384:Generated_Source\PSoC5/USB_std.c ****     /***************************************************************************
 385:Generated_Source\PSoC5/USB_std.c ****     * Function Name: USB_ReadDieID
 386:Generated_Source\PSoC5/USB_std.c ****     ************************************************************************//**
 387:Generated_Source\PSoC5/USB_std.c ****     *
 388:Generated_Source\PSoC5/USB_std.c ****     *  This routine read Die ID and generate Serial Number string descriptor.
 389:Generated_Source\PSoC5/USB_std.c ****     *
 390:Generated_Source\PSoC5/USB_std.c ****     *  \param descr:  pointer on string descriptor. This string size has to be equal or
 391:Generated_Source\PSoC5/USB_std.c ****     *          greater than USB_IDSN_DESCR_LENGTH.
 392:Generated_Source\PSoC5/USB_std.c ****     *
 393:Generated_Source\PSoC5/USB_std.c ****     *
 394:Generated_Source\PSoC5/USB_std.c ****     * \reentrant
 395:Generated_Source\PSoC5/USB_std.c ****     *  No.
 396:Generated_Source\PSoC5/USB_std.c ****     *
 397:Generated_Source\PSoC5/USB_std.c ****     ***************************************************************************/
 398:Generated_Source\PSoC5/USB_std.c ****     void USB_ReadDieID(uint8 descr[]) 
 399:Generated_Source\PSoC5/USB_std.c ****     {
 400:Generated_Source\PSoC5/USB_std.c ****         const char8 CYCODE hex[] = "0123456789ABCDEF";
 401:Generated_Source\PSoC5/USB_std.c ****         uint8 i;
 402:Generated_Source\PSoC5/USB_std.c ****         uint8 j = 0u;
 403:Generated_Source\PSoC5/USB_std.c ****         uint8 uniqueId[8u];
 404:Generated_Source\PSoC5/USB_std.c **** 
 405:Generated_Source\PSoC5/USB_std.c ****         if (NULL != descr)
 406:Generated_Source\PSoC5/USB_std.c ****         {
 407:Generated_Source\PSoC5/USB_std.c ****             /* Initialize descriptor header. */
 408:Generated_Source\PSoC5/USB_std.c ****             descr[0u] = USB_IDSN_DESCR_LENGTH;
 409:Generated_Source\PSoC5/USB_std.c ****             descr[1u] = USB_DESCR_STRING;
 410:Generated_Source\PSoC5/USB_std.c ****             
 411:Generated_Source\PSoC5/USB_std.c ****             /* Unique ID size is 8 bytes. */
 412:Generated_Source\PSoC5/USB_std.c ****             CyGetUniqueId((uint32 *) uniqueId);
 413:Generated_Source\PSoC5/USB_std.c **** 
 414:Generated_Source\PSoC5/USB_std.c ****             /* Fill descriptor with unique device ID. */
 415:Generated_Source\PSoC5/USB_std.c ****             for (i = 2u; i < USB_IDSN_DESCR_LENGTH; i += 4u)
 416:Generated_Source\PSoC5/USB_std.c ****             {
 417:Generated_Source\PSoC5/USB_std.c ****                 descr[i]      = (uint8) hex[(uniqueId[j] >> 4u)];
 418:Generated_Source\PSoC5/USB_std.c ****                 descr[i + 1u] = 0u;
 419:Generated_Source\PSoC5/USB_std.c ****                 descr[i + 2u] = (uint8) hex[(uniqueId[j] & 0x0Fu)];
 420:Generated_Source\PSoC5/USB_std.c ****                 descr[i + 3u] = 0u;
 421:Generated_Source\PSoC5/USB_std.c ****                 ++j;
 422:Generated_Source\PSoC5/USB_std.c ****             }
 423:Generated_Source\PSoC5/USB_std.c ****         }
 424:Generated_Source\PSoC5/USB_std.c ****     }
 425:Generated_Source\PSoC5/USB_std.c **** #endif /* (USB_ENABLE_IDSN_STRING) */
 426:Generated_Source\PSoC5/USB_std.c **** 
 427:Generated_Source\PSoC5/USB_std.c **** 
 428:Generated_Source\PSoC5/USB_std.c **** /*******************************************************************************
 429:Generated_Source\PSoC5/USB_std.c **** * Function Name: USB_ConfigReg
ARM GAS  C:\Users\CHANTI~1\AppData\Local\Temp\cckZxxwg.s 			page 9


 430:Generated_Source\PSoC5/USB_std.c **** ****************************************************************************//**
 431:Generated_Source\PSoC5/USB_std.c **** *
 432:Generated_Source\PSoC5/USB_std.c **** *  This routine configures hardware registers from the variables.
 433:Generated_Source\PSoC5/USB_std.c **** *  It is called from USB_Config() function and from RestoreConfig
 434:Generated_Source\PSoC5/USB_std.c **** *  after Wakeup.
 435:Generated_Source\PSoC5/USB_std.c **** *
 436:Generated_Source\PSoC5/USB_std.c **** *******************************************************************************/
 437:Generated_Source\PSoC5/USB_std.c **** void USB_ConfigReg(void) 
 438:Generated_Source\PSoC5/USB_std.c **** {
  28              		.loc 1 438 0
  29              		.cfi_startproc
  30              		@ args = 0, pretend = 0, frame = 0
  31              		@ frame_needed = 0, uses_anonymous_args = 0
  32              		@ link register save eliminated.
  33 0000 10B4     		push	{r4}
  34              		.cfi_def_cfa_offset 4
  35              		.cfi_offset 4, -4
  36              	.LVL0:
 439:Generated_Source\PSoC5/USB_std.c ****     uint8 ep;
 440:Generated_Source\PSoC5/USB_std.c **** 
 441:Generated_Source\PSoC5/USB_std.c **** #if (USB_EP_MANAGEMENT_DMA_AUTO)
 442:Generated_Source\PSoC5/USB_std.c ****     uint8 epType = 0u;
 443:Generated_Source\PSoC5/USB_std.c **** #endif /* (USB_EP_MANAGEMENT_DMA_AUTO) */
 444:Generated_Source\PSoC5/USB_std.c **** 
 445:Generated_Source\PSoC5/USB_std.c ****     /* Go thought all endpoints and set hardware configuration */
 446:Generated_Source\PSoC5/USB_std.c ****     for (ep = USB_EP1; ep < USB_MAX_EP; ++ep)
  37              		.loc 1 446 0
  38 0002 0123     		movs	r3, #1
  39 0004 3EE0     		b	.L2
  40              	.LVL1:
  41              	.L6:
 447:Generated_Source\PSoC5/USB_std.c ****     {
 448:Generated_Source\PSoC5/USB_std.c ****         USB_ARB_EP_BASE.arbEp[ep].epCfg = USB_ARB_EPX_CFG_DEFAULT;
  42              		.loc 1 448 0
  43 0006 1946     		mov	r1, r3
  44 0008 1A01     		lsls	r2, r3, #4
  45 000a 0C24     		movs	r4, #12
  46 000c 2148     		ldr	r0, .L8
  47 000e 8454     		strb	r4, [r0, r2]
 449:Generated_Source\PSoC5/USB_std.c ****         
 450:Generated_Source\PSoC5/USB_std.c ****     #if (USB_EP_MANAGEMENT_DMA)
 451:Generated_Source\PSoC5/USB_std.c ****         /* Enable arbiter endpoint interrupt sources */
 452:Generated_Source\PSoC5/USB_std.c ****         USB_ARB_EP_BASE.arbEp[ep].epIntEn = USB_ARB_EPX_INT_MASK;
 453:Generated_Source\PSoC5/USB_std.c ****     #endif /* (USB_EP_MANAGEMENT_DMA) */
 454:Generated_Source\PSoC5/USB_std.c ****     
 455:Generated_Source\PSoC5/USB_std.c ****         if (USB_EP[ep].epMode != USB_MODE_DISABLE)
  48              		.loc 1 455 0
  49 0010 03EB4300 		add	r0, r3, r3, lsl #1
  50 0014 8200     		lsls	r2, r0, #2
  51 0016 2048     		ldr	r0, .L8+4
  52 0018 0244     		add	r2, r2, r0
  53 001a 5279     		ldrb	r2, [r2, #5]	@ zero_extendqisi2
  54 001c 12F0FF0F 		tst	r2, #255
  55 0020 13D0     		beq	.L3
 456:Generated_Source\PSoC5/USB_std.c ****         {
 457:Generated_Source\PSoC5/USB_std.c ****             if (0u != (USB_EP[ep].addr & USB_DIR_IN))
  56              		.loc 1 457 0
ARM GAS  C:\Users\CHANTI~1\AppData\Local\Temp\cckZxxwg.s 			page 10


  57 0022 03EB4300 		add	r0, r3, r3, lsl #1
  58 0026 8200     		lsls	r2, r0, #2
  59 0028 1B48     		ldr	r0, .L8+4
  60 002a 0244     		add	r2, r2, r0
  61 002c 1279     		ldrb	r2, [r2, #4]	@ zero_extendqisi2
  62 002e 12F0800F 		tst	r2, #128
  63 0032 04D0     		beq	.L4
 458:Generated_Source\PSoC5/USB_std.c ****             {
 459:Generated_Source\PSoC5/USB_std.c ****                 USB_SIE_EP_BASE.sieEp[ep].epCr0 = USB_MODE_NAK_IN;
  64              		.loc 1 459 0
  65 0034 1801     		lsls	r0, r3, #4
  66 0036 194A     		ldr	r2, .L8+8
  67 0038 0244     		add	r2, r2, r0
  68 003a 9470     		strb	r4, [r2, #2]
  69 003c 0AE0     		b	.L5
  70              	.L4:
 460:Generated_Source\PSoC5/USB_std.c ****                 
 461:Generated_Source\PSoC5/USB_std.c ****             #if (USB_EP_MANAGEMENT_DMA_AUTO && CY_PSOC4)
 462:Generated_Source\PSoC5/USB_std.c ****                 /* Clear DMA_TERMIN for IN endpoint. */
 463:Generated_Source\PSoC5/USB_std.c ****                 USB_ARB_EP_BASE.arbEp[ep].epIntEn &= (uint32) ~USB_ARB_EPX_INT_DMA_TERMIN;
 464:Generated_Source\PSoC5/USB_std.c ****             #endif /* (USB_EP_MANAGEMENT_DMA_AUTO && CY_PSOC4) */
 465:Generated_Source\PSoC5/USB_std.c ****             }
 466:Generated_Source\PSoC5/USB_std.c ****             else
 467:Generated_Source\PSoC5/USB_std.c ****             {
 468:Generated_Source\PSoC5/USB_std.c ****                 USB_SIE_EP_BASE.sieEp[ep].epCr0 = USB_MODE_NAK_OUT;
  71              		.loc 1 468 0
  72 003e 1801     		lsls	r0, r3, #4
  73 0040 164A     		ldr	r2, .L8+8
  74 0042 0244     		add	r2, r2, r0
  75 0044 0820     		movs	r0, #8
  76 0046 9070     		strb	r0, [r2, #2]
  77 0048 04E0     		b	.L5
  78              	.L3:
 469:Generated_Source\PSoC5/USB_std.c **** 
 470:Generated_Source\PSoC5/USB_std.c ****             #if (USB_EP_MANAGEMENT_DMA_AUTO)
 471:Generated_Source\PSoC5/USB_std.c ****                 /* (CY_PSOC4): DMA_TERMIN for OUT endpoint is set above. */
 472:Generated_Source\PSoC5/USB_std.c ****                 
 473:Generated_Source\PSoC5/USB_std.c ****                 /* Prepare endpoint type mask. */
 474:Generated_Source\PSoC5/USB_std.c ****                 epType |= (uint8) (0x01u << (ep - USB_EP1));
 475:Generated_Source\PSoC5/USB_std.c ****             #endif /* (USB_EP_MANAGEMENT_DMA_AUTO) */
 476:Generated_Source\PSoC5/USB_std.c ****             }
 477:Generated_Source\PSoC5/USB_std.c ****         }
 478:Generated_Source\PSoC5/USB_std.c ****         else
 479:Generated_Source\PSoC5/USB_std.c ****         {
 480:Generated_Source\PSoC5/USB_std.c ****             USB_SIE_EP_BASE.sieEp[ep].epCr0 = USB_MODE_STALL_DATA_EP;
  79              		.loc 1 480 0
  80 004a 1801     		lsls	r0, r3, #4
  81 004c 134A     		ldr	r2, .L8+8
  82 004e 0244     		add	r2, r2, r0
  83 0050 8020     		movs	r0, #128
  84 0052 9070     		strb	r0, [r2, #2]
  85              	.L5:
 481:Generated_Source\PSoC5/USB_std.c ****         }
 482:Generated_Source\PSoC5/USB_std.c ****         
 483:Generated_Source\PSoC5/USB_std.c ****     #if (!USB_EP_MANAGEMENT_DMA_AUTO)
 484:Generated_Source\PSoC5/USB_std.c ****         #if (CY_PSOC4)
 485:Generated_Source\PSoC5/USB_std.c ****             USB_ARB_EP16_BASE.arbEp[ep].rwRa16  = (uint32) USB_EP[ep].buffOffset;
ARM GAS  C:\Users\CHANTI~1\AppData\Local\Temp\cckZxxwg.s 			page 11


 486:Generated_Source\PSoC5/USB_std.c ****             USB_ARB_EP16_BASE.arbEp[ep].rwWa16  = (uint32) USB_EP[ep].buffOffset;
 487:Generated_Source\PSoC5/USB_std.c ****         #else
 488:Generated_Source\PSoC5/USB_std.c ****             USB_ARB_EP_BASE.arbEp[ep].rwRa    = LO8(USB_EP[ep].buffOffset);
  86              		.loc 1 488 0 discriminator 2
  87 0054 4800     		lsls	r0, r1, #1
  88 0056 0844     		add	r0, r0, r1
  89 0058 8200     		lsls	r2, r0, #2
  90 005a 0F48     		ldr	r0, .L8+4
  91 005c 0244     		add	r2, r2, r0
  92 005e D488     		ldrh	r4, [r2, #6]
  93 0060 E4B2     		uxtb	r4, r4
  94 0062 0801     		lsls	r0, r1, #4
  95 0064 0B49     		ldr	r1, .L8
  96 0066 0144     		add	r1, r1, r0
  97 0068 8C71     		strb	r4, [r1, #6]
 489:Generated_Source\PSoC5/USB_std.c ****             USB_ARB_EP_BASE.arbEp[ep].rwRaMsb = HI8(USB_EP[ep].buffOffset);
  98              		.loc 1 489 0 discriminator 2
  99 006a D088     		ldrh	r0, [r2, #6]
 100 006c C0F30720 		ubfx	r0, r0, #8, #8
 101 0070 C871     		strb	r0, [r1, #7]
 490:Generated_Source\PSoC5/USB_std.c ****             USB_ARB_EP_BASE.arbEp[ep].rwWa    = LO8(USB_EP[ep].buffOffset);
 102              		.loc 1 490 0 discriminator 2
 103 0072 D088     		ldrh	r0, [r2, #6]
 104 0074 C0B2     		uxtb	r0, r0
 105 0076 0871     		strb	r0, [r1, #4]
 491:Generated_Source\PSoC5/USB_std.c ****             USB_ARB_EP_BASE.arbEp[ep].rwWaMsb = HI8(USB_EP[ep].buffOffset);
 106              		.loc 1 491 0 discriminator 2
 107 0078 D288     		ldrh	r2, [r2, #6]
 108 007a C2F30722 		ubfx	r2, r2, #8, #8
 109 007e 4A71     		strb	r2, [r1, #5]
 446:Generated_Source\PSoC5/USB_std.c ****     {
 110              		.loc 1 446 0 discriminator 2
 111 0080 0133     		adds	r3, r3, #1
 112              	.LVL2:
 113 0082 DBB2     		uxtb	r3, r3
 114              	.LVL3:
 115              	.L2:
 446:Generated_Source\PSoC5/USB_std.c ****     {
 116              		.loc 1 446 0 is_stmt 0 discriminator 1
 117 0084 082B     		cmp	r3, #8
 118 0086 BED9     		bls	.L6
 492:Generated_Source\PSoC5/USB_std.c ****         #endif /* (CY_PSOC4) */
 493:Generated_Source\PSoC5/USB_std.c ****     #endif /* (!USB_EP_MANAGEMENT_DMA_AUTO) */
 494:Generated_Source\PSoC5/USB_std.c ****     }
 495:Generated_Source\PSoC5/USB_std.c **** 
 496:Generated_Source\PSoC5/USB_std.c **** #if (USB_EP_MANAGEMENT_DMA_AUTO)
 497:Generated_Source\PSoC5/USB_std.c ****      /* BUF_SIZE depend on DMA_THRESS value:0x55-32 bytes  0x44-16 bytes 0x33-8 bytes 0x22-4 bytes 
 498:Generated_Source\PSoC5/USB_std.c ****     USB_BUF_SIZE_REG = USB_DMA_BUF_SIZE;
 499:Generated_Source\PSoC5/USB_std.c **** 
 500:Generated_Source\PSoC5/USB_std.c ****     /* Configure DMA burst threshold */
 501:Generated_Source\PSoC5/USB_std.c **** #if (CY_PSOC4)
 502:Generated_Source\PSoC5/USB_std.c ****     USB_DMA_THRES16_REG   = USB_DMA_BYTES_PER_BURST;
 503:Generated_Source\PSoC5/USB_std.c **** #else
 504:Generated_Source\PSoC5/USB_std.c ****     USB_DMA_THRES_REG     = USB_DMA_BYTES_PER_BURST;
 505:Generated_Source\PSoC5/USB_std.c ****     USB_DMA_THRES_MSB_REG = 0u;
 506:Generated_Source\PSoC5/USB_std.c **** #endif /* (CY_PSOC4) */
 507:Generated_Source\PSoC5/USB_std.c ****     USB_EP_ACTIVE_REG = USB_DEFAULT_ARB_INT_EN;
ARM GAS  C:\Users\CHANTI~1\AppData\Local\Temp\cckZxxwg.s 			page 12


 508:Generated_Source\PSoC5/USB_std.c ****     USB_EP_TYPE_REG   = epType;
 509:Generated_Source\PSoC5/USB_std.c ****     
 510:Generated_Source\PSoC5/USB_std.c ****     /* Cfg_cmp bit set to 1 once configuration is complete. */
 511:Generated_Source\PSoC5/USB_std.c ****     /* Lock arbiter configtuation */
 512:Generated_Source\PSoC5/USB_std.c ****     USB_ARB_CFG_REG |= (uint8)  USB_ARB_CFG_CFG_CMP;
 513:Generated_Source\PSoC5/USB_std.c ****     /* Cfg_cmp bit set to 0 during configuration of PFSUSB Registers. */
 514:Generated_Source\PSoC5/USB_std.c ****     USB_ARB_CFG_REG &= (uint8) ~USB_ARB_CFG_CFG_CMP;
 515:Generated_Source\PSoC5/USB_std.c **** 
 516:Generated_Source\PSoC5/USB_std.c **** #endif /* (USB_EP_MANAGEMENT_DMA_AUTO) */
 517:Generated_Source\PSoC5/USB_std.c **** 
 518:Generated_Source\PSoC5/USB_std.c ****     /* Enable interrupt SIE interurpt source from EP0-EP1 */
 519:Generated_Source\PSoC5/USB_std.c ****     USB_SIE_EP_INT_EN_REG = (uint8) USB_DEFAULT_SIE_EP_INT_EN;
 119              		.loc 1 519 0 is_stmt 1
 120 0088 FF22     		movs	r2, #255
 121 008a 054B     		ldr	r3, .L8+12
 122              	.LVL4:
 123 008c 1A70     		strb	r2, [r3]
 520:Generated_Source\PSoC5/USB_std.c **** }
 124              		.loc 1 520 0
 125 008e 10BC     		pop	{r4}
 126              		.cfi_restore 4
 127              		.cfi_def_cfa_offset 0
 128 0090 7047     		bx	lr
 129              	.L9:
 130 0092 00BF     		.align	2
 131              	.L8:
 132 0094 70600040 		.word	1073766512
 133 0098 00000000 		.word	USB_EP
 134 009c FC5F0040 		.word	1073766396
 135 00a0 0A600040 		.word	1073766410
 136              		.cfi_endproc
 137              	.LFE1:
 138              		.size	USB_ConfigReg, .-USB_ConfigReg
 139              		.section	.text.USB_EpStateInit,"ax",%progbits
 140              		.align	2
 141              		.global	USB_EpStateInit
 142              		.thumb
 143              		.thumb_func
 144              		.type	USB_EpStateInit, %function
 145              	USB_EpStateInit:
 146              	.LFB2:
 521:Generated_Source\PSoC5/USB_std.c **** 
 522:Generated_Source\PSoC5/USB_std.c **** 
 523:Generated_Source\PSoC5/USB_std.c **** /*******************************************************************************
 524:Generated_Source\PSoC5/USB_std.c **** * Function Name: USB_EpStateInit
 525:Generated_Source\PSoC5/USB_std.c **** ****************************************************************************//**
 526:Generated_Source\PSoC5/USB_std.c **** *
 527:Generated_Source\PSoC5/USB_std.c **** *  This routine initialize state of Data end points based of its type: 
 528:Generated_Source\PSoC5/USB_std.c **** *   IN  - USB_IN_BUFFER_EMPTY (USB_EVENT_PENDING)
 529:Generated_Source\PSoC5/USB_std.c **** *   OUT - USB_OUT_BUFFER_EMPTY (USB_NO_EVENT_PENDING)
 530:Generated_Source\PSoC5/USB_std.c **** *
 531:Generated_Source\PSoC5/USB_std.c **** *******************************************************************************/
 532:Generated_Source\PSoC5/USB_std.c **** void USB_EpStateInit(void) 
 533:Generated_Source\PSoC5/USB_std.c **** {
 147              		.loc 1 533 0
 148              		.cfi_startproc
 149              		@ args = 0, pretend = 0, frame = 0
ARM GAS  C:\Users\CHANTI~1\AppData\Local\Temp\cckZxxwg.s 			page 13


 150              		@ frame_needed = 0, uses_anonymous_args = 0
 151              		@ link register save eliminated.
 152              	.LVL5:
 534:Generated_Source\PSoC5/USB_std.c ****     uint8 i;
 535:Generated_Source\PSoC5/USB_std.c **** 
 536:Generated_Source\PSoC5/USB_std.c ****     for (i = USB_EP1; i < USB_MAX_EP; i++)
 153              		.loc 1 536 0
 154 0000 0123     		movs	r3, #1
 155 0002 19E0     		b	.L11
 156              	.LVL6:
 157              	.L14:
 537:Generated_Source\PSoC5/USB_std.c ****     { 
 538:Generated_Source\PSoC5/USB_std.c ****         if (0u != (USB_EP[i].addr & USB_DIR_IN))
 158              		.loc 1 538 0
 159 0004 03EB4301 		add	r1, r3, r3, lsl #1
 160 0008 8A00     		lsls	r2, r1, #2
 161 000a 0D49     		ldr	r1, .L15
 162 000c 0A44     		add	r2, r2, r1
 163 000e 1279     		ldrb	r2, [r2, #4]	@ zero_extendqisi2
 164 0010 12F0800F 		tst	r2, #128
 165 0014 07D0     		beq	.L12
 539:Generated_Source\PSoC5/USB_std.c ****         {
 540:Generated_Source\PSoC5/USB_std.c ****             /* IN Endpoint */
 541:Generated_Source\PSoC5/USB_std.c ****             USB_EP[i].apiEpState = USB_EVENT_PENDING;
 166              		.loc 1 541 0
 167 0016 03EB4301 		add	r1, r3, r3, lsl #1
 168 001a 8A00     		lsls	r2, r1, #2
 169 001c 0849     		ldr	r1, .L15
 170 001e 0A44     		add	r2, r2, r1
 171 0020 0121     		movs	r1, #1
 172 0022 5170     		strb	r1, [r2, #1]
 173 0024 06E0     		b	.L13
 174              	.L12:
 542:Generated_Source\PSoC5/USB_std.c ****         }
 543:Generated_Source\PSoC5/USB_std.c ****         else
 544:Generated_Source\PSoC5/USB_std.c ****         {
 545:Generated_Source\PSoC5/USB_std.c ****             /* OUT Endpoint */
 546:Generated_Source\PSoC5/USB_std.c ****             USB_EP[i].apiEpState = USB_NO_EVENT_PENDING;
 175              		.loc 1 546 0
 176 0026 03EB4301 		add	r1, r3, r3, lsl #1
 177 002a 8A00     		lsls	r2, r1, #2
 178 002c 0449     		ldr	r1, .L15
 179 002e 0A44     		add	r2, r2, r1
 180 0030 0021     		movs	r1, #0
 181 0032 5170     		strb	r1, [r2, #1]
 182              	.L13:
 536:Generated_Source\PSoC5/USB_std.c ****     { 
 183              		.loc 1 536 0 discriminator 2
 184 0034 0133     		adds	r3, r3, #1
 185              	.LVL7:
 186 0036 DBB2     		uxtb	r3, r3
 187              	.LVL8:
 188              	.L11:
 536:Generated_Source\PSoC5/USB_std.c ****     { 
 189              		.loc 1 536 0 is_stmt 0 discriminator 1
 190 0038 082B     		cmp	r3, #8
 191 003a E3D9     		bls	.L14
ARM GAS  C:\Users\CHANTI~1\AppData\Local\Temp\cckZxxwg.s 			page 14


 547:Generated_Source\PSoC5/USB_std.c ****         }
 548:Generated_Source\PSoC5/USB_std.c ****     }
 549:Generated_Source\PSoC5/USB_std.c ****                     
 550:Generated_Source\PSoC5/USB_std.c **** }
 192              		.loc 1 550 0 is_stmt 1
 193 003c 7047     		bx	lr
 194              	.L16:
 195 003e 00BF     		.align	2
 196              	.L15:
 197 0040 00000000 		.word	USB_EP
 198              		.cfi_endproc
 199              	.LFE2:
 200              		.size	USB_EpStateInit, .-USB_EpStateInit
 201              		.section	.text.USB_GetConfigTablePtr,"ax",%progbits
 202              		.align	2
 203              		.global	USB_GetConfigTablePtr
 204              		.thumb
 205              		.thumb_func
 206              		.type	USB_GetConfigTablePtr, %function
 207              	USB_GetConfigTablePtr:
 208              	.LFB5:
 551:Generated_Source\PSoC5/USB_std.c **** 
 552:Generated_Source\PSoC5/USB_std.c **** 
 553:Generated_Source\PSoC5/USB_std.c **** /*******************************************************************************
 554:Generated_Source\PSoC5/USB_std.c **** * Function Name: USB_Config
 555:Generated_Source\PSoC5/USB_std.c **** ****************************************************************************//**
 556:Generated_Source\PSoC5/USB_std.c **** *
 557:Generated_Source\PSoC5/USB_std.c **** *  This routine configures endpoints for the entire configuration by scanning
 558:Generated_Source\PSoC5/USB_std.c **** *  the configuration descriptor.
 559:Generated_Source\PSoC5/USB_std.c **** *
 560:Generated_Source\PSoC5/USB_std.c **** *  \param clearAltSetting: It configures the bAlternateSetting 0 for each interface.
 561:Generated_Source\PSoC5/USB_std.c **** *
 562:Generated_Source\PSoC5/USB_std.c **** * USB_interfaceClass - Initialized class array for each interface.
 563:Generated_Source\PSoC5/USB_std.c **** *   It is used for handling Class specific requests depend on interface class.
 564:Generated_Source\PSoC5/USB_std.c **** *   Different classes in multiple Alternate settings does not supported.
 565:Generated_Source\PSoC5/USB_std.c **** *
 566:Generated_Source\PSoC5/USB_std.c **** * \reentrant
 567:Generated_Source\PSoC5/USB_std.c **** *  No.
 568:Generated_Source\PSoC5/USB_std.c **** *
 569:Generated_Source\PSoC5/USB_std.c **** *******************************************************************************/
 570:Generated_Source\PSoC5/USB_std.c **** void USB_Config(uint8 clearAltSetting) 
 571:Generated_Source\PSoC5/USB_std.c **** {
 572:Generated_Source\PSoC5/USB_std.c ****     uint8 ep;
 573:Generated_Source\PSoC5/USB_std.c ****     uint8 curEp;
 574:Generated_Source\PSoC5/USB_std.c ****     uint8 i;
 575:Generated_Source\PSoC5/USB_std.c ****     uint8 epType;
 576:Generated_Source\PSoC5/USB_std.c ****     const uint8 *pDescr;
 577:Generated_Source\PSoC5/USB_std.c ****     
 578:Generated_Source\PSoC5/USB_std.c ****     #if (!USB_EP_MANAGEMENT_DMA_AUTO)
 579:Generated_Source\PSoC5/USB_std.c ****         uint16 buffCount = 0u;
 580:Generated_Source\PSoC5/USB_std.c ****     #endif /* (!USB_EP_MANAGEMENT_DMA_AUTO) */
 581:Generated_Source\PSoC5/USB_std.c **** 
 582:Generated_Source\PSoC5/USB_std.c ****     const T_USB_LUT CYCODE *pTmp;
 583:Generated_Source\PSoC5/USB_std.c ****     const T_USB_EP_SETTINGS_BLOCK CYCODE *pEP;
 584:Generated_Source\PSoC5/USB_std.c **** 
 585:Generated_Source\PSoC5/USB_std.c ****     /* Clear endpoints settings */
 586:Generated_Source\PSoC5/USB_std.c ****     for (ep = 0u; ep < USB_MAX_EP; ++ep)
ARM GAS  C:\Users\CHANTI~1\AppData\Local\Temp\cckZxxwg.s 			page 15


 587:Generated_Source\PSoC5/USB_std.c ****     {
 588:Generated_Source\PSoC5/USB_std.c ****         USB_EP[ep].attrib     = 0u;
 589:Generated_Source\PSoC5/USB_std.c ****         USB_EP[ep].hwEpState  = 0u;
 590:Generated_Source\PSoC5/USB_std.c ****         USB_EP[ep].epToggle   = 0u;
 591:Generated_Source\PSoC5/USB_std.c ****         USB_EP[ep].bufferSize = 0u;
 592:Generated_Source\PSoC5/USB_std.c ****         USB_EP[ep].interface  = 0u;
 593:Generated_Source\PSoC5/USB_std.c ****         USB_EP[ep].apiEpState = USB_NO_EVENT_PENDING;
 594:Generated_Source\PSoC5/USB_std.c ****         USB_EP[ep].epMode     = USB_MODE_DISABLE;   
 595:Generated_Source\PSoC5/USB_std.c ****     }
 596:Generated_Source\PSoC5/USB_std.c **** 
 597:Generated_Source\PSoC5/USB_std.c ****     /* Clear Alternate settings for all interfaces. */
 598:Generated_Source\PSoC5/USB_std.c ****     if (0u != clearAltSetting)
 599:Generated_Source\PSoC5/USB_std.c ****     {
 600:Generated_Source\PSoC5/USB_std.c ****         for (i = 0u; i < USB_MAX_INTERFACES_NUMBER; ++i)
 601:Generated_Source\PSoC5/USB_std.c ****         {
 602:Generated_Source\PSoC5/USB_std.c ****             USB_interfaceSetting[i]     = 0u;
 603:Generated_Source\PSoC5/USB_std.c ****             USB_interfaceSettingLast[i] = 0u;
 604:Generated_Source\PSoC5/USB_std.c ****         }
 605:Generated_Source\PSoC5/USB_std.c ****     }
 606:Generated_Source\PSoC5/USB_std.c **** 
 607:Generated_Source\PSoC5/USB_std.c ****     /* Init Endpoints and Device Status if configured */
 608:Generated_Source\PSoC5/USB_std.c ****     if (USB_configuration > 0u)
 609:Generated_Source\PSoC5/USB_std.c ****     {
 610:Generated_Source\PSoC5/USB_std.c ****         #if defined(USB_ENABLE_CDC_CLASS)
 611:Generated_Source\PSoC5/USB_std.c ****             uint8 cdcComNums = 0u;
 612:Generated_Source\PSoC5/USB_std.c ****         #endif  /* (USB_ENABLE_CDC_CLASS) */  
 613:Generated_Source\PSoC5/USB_std.c **** 
 614:Generated_Source\PSoC5/USB_std.c ****         pTmp = USB_GetConfigTablePtr(USB_configuration - 1u);
 615:Generated_Source\PSoC5/USB_std.c ****         
 616:Generated_Source\PSoC5/USB_std.c ****         /* Set Power status for current configuration */
 617:Generated_Source\PSoC5/USB_std.c ****         pDescr = (const uint8 *)pTmp->p_list;
 618:Generated_Source\PSoC5/USB_std.c ****         if ((pDescr[USB_CONFIG_DESCR_ATTRIB] & USB_CONFIG_DESCR_ATTRIB_SELF_POWERED) != 0u)
 619:Generated_Source\PSoC5/USB_std.c ****         {
 620:Generated_Source\PSoC5/USB_std.c ****             USB_deviceStatus |= (uint8)  USB_DEVICE_STATUS_SELF_POWERED;
 621:Generated_Source\PSoC5/USB_std.c ****         }
 622:Generated_Source\PSoC5/USB_std.c ****         else
 623:Generated_Source\PSoC5/USB_std.c ****         {
 624:Generated_Source\PSoC5/USB_std.c ****             USB_deviceStatus &= (uint8) ~USB_DEVICE_STATUS_SELF_POWERED;
 625:Generated_Source\PSoC5/USB_std.c ****         }
 626:Generated_Source\PSoC5/USB_std.c ****         
 627:Generated_Source\PSoC5/USB_std.c ****         /* Move to next element */
 628:Generated_Source\PSoC5/USB_std.c ****         pTmp = &pTmp[1u];
 629:Generated_Source\PSoC5/USB_std.c ****         ep = pTmp->c;  /* For this table, c is the number of endpoints configurations  */
 630:Generated_Source\PSoC5/USB_std.c **** 
 631:Generated_Source\PSoC5/USB_std.c ****         #if (USB_EP_MANAGEMENT_MANUAL && USB_EP_ALLOC_DYNAMIC)
 632:Generated_Source\PSoC5/USB_std.c ****             /* Configure for dynamic EP memory allocation */
 633:Generated_Source\PSoC5/USB_std.c ****             /* p_list points the endpoint setting table. */
 634:Generated_Source\PSoC5/USB_std.c ****             pEP = (T_USB_EP_SETTINGS_BLOCK *) pTmp->p_list;
 635:Generated_Source\PSoC5/USB_std.c ****             
 636:Generated_Source\PSoC5/USB_std.c ****             for (i = 0u; i < ep; i++)
 637:Generated_Source\PSoC5/USB_std.c ****             {     
 638:Generated_Source\PSoC5/USB_std.c ****                 /* Compare current Alternate setting with EP Alt */
 639:Generated_Source\PSoC5/USB_std.c ****                 if (USB_interfaceSetting[pEP->interface] == pEP->altSetting)
 640:Generated_Source\PSoC5/USB_std.c ****                 {                                                          
 641:Generated_Source\PSoC5/USB_std.c ****                     curEp  = pEP->addr & USB_DIR_UNUSED;
 642:Generated_Source\PSoC5/USB_std.c ****                     epType = pEP->attributes & USB_EP_TYPE_MASK;
 643:Generated_Source\PSoC5/USB_std.c ****                     
ARM GAS  C:\Users\CHANTI~1\AppData\Local\Temp\cckZxxwg.s 			page 16


 644:Generated_Source\PSoC5/USB_std.c ****                     USB_EP[curEp].addr       = pEP->addr;
 645:Generated_Source\PSoC5/USB_std.c ****                     USB_EP[curEp].attrib     = pEP->attributes;
 646:Generated_Source\PSoC5/USB_std.c ****                     USB_EP[curEp].bufferSize = pEP->bufferSize;
 647:Generated_Source\PSoC5/USB_std.c **** 
 648:Generated_Source\PSoC5/USB_std.c ****                     if (0u != (pEP->addr & USB_DIR_IN))
 649:Generated_Source\PSoC5/USB_std.c ****                     {
 650:Generated_Source\PSoC5/USB_std.c ****                         /* IN Endpoint */
 651:Generated_Source\PSoC5/USB_std.c ****                         USB_EP[curEp].epMode     = USB_GET_ACTIVE_IN_EP_CR0_MODE(epType);
 652:Generated_Source\PSoC5/USB_std.c ****                         USB_EP[curEp].apiEpState = USB_EVENT_PENDING;
 653:Generated_Source\PSoC5/USB_std.c ****                     
 654:Generated_Source\PSoC5/USB_std.c ****                     #if (defined(USB_ENABLE_MIDI_STREAMING) && (USB_MIDI_IN_BUFF_SIZE > 0))
 655:Generated_Source\PSoC5/USB_std.c ****                         if ((pEP->bMisc == USB_CLASS_AUDIO) && (epType == USB_EP_TYPE_BULK))
 656:Generated_Source\PSoC5/USB_std.c ****                         {
 657:Generated_Source\PSoC5/USB_std.c ****                             USB_midi_in_ep = curEp;
 658:Generated_Source\PSoC5/USB_std.c ****                         }
 659:Generated_Source\PSoC5/USB_std.c ****                     #endif  /* (USB_ENABLE_MIDI_STREAMING) */
 660:Generated_Source\PSoC5/USB_std.c ****                     }
 661:Generated_Source\PSoC5/USB_std.c ****                     else
 662:Generated_Source\PSoC5/USB_std.c ****                     {
 663:Generated_Source\PSoC5/USB_std.c ****                         /* OUT Endpoint */
 664:Generated_Source\PSoC5/USB_std.c ****                         USB_EP[curEp].epMode     = USB_GET_ACTIVE_OUT_EP_CR0_MODE(epType);
 665:Generated_Source\PSoC5/USB_std.c ****                         USB_EP[curEp].apiEpState = USB_NO_EVENT_PENDING;
 666:Generated_Source\PSoC5/USB_std.c ****                         
 667:Generated_Source\PSoC5/USB_std.c ****                     #if (defined(USB_ENABLE_MIDI_STREAMING) && (USB_MIDI_OUT_BUFF_SIZE > 0))
 668:Generated_Source\PSoC5/USB_std.c ****                         if ((pEP->bMisc == USB_CLASS_AUDIO) && (epType == USB_EP_TYPE_BULK))
 669:Generated_Source\PSoC5/USB_std.c ****                         {
 670:Generated_Source\PSoC5/USB_std.c ****                             USB_midi_out_ep = curEp;
 671:Generated_Source\PSoC5/USB_std.c ****                         }
 672:Generated_Source\PSoC5/USB_std.c ****                     #endif  /* (USB_ENABLE_MIDI_STREAMING) */
 673:Generated_Source\PSoC5/USB_std.c ****                     }
 674:Generated_Source\PSoC5/USB_std.c **** 
 675:Generated_Source\PSoC5/USB_std.c ****                 #if(defined (USB_ENABLE_CDC_CLASS))
 676:Generated_Source\PSoC5/USB_std.c ****                     if((pEP->bMisc == USB_CLASS_CDC_DATA) ||(pEP->bMisc == USB_CLASS_CDC))
 677:Generated_Source\PSoC5/USB_std.c ****                     {
 678:Generated_Source\PSoC5/USB_std.c ****                         cdcComNums = USB_Cdc_EpInit(pEP, curEp, cdcComNums);
 679:Generated_Source\PSoC5/USB_std.c ****                     }
 680:Generated_Source\PSoC5/USB_std.c ****                 #endif  /* (USB_ENABLE_CDC_CLASS) */
 681:Generated_Source\PSoC5/USB_std.c ****                 }
 682:Generated_Source\PSoC5/USB_std.c ****                 
 683:Generated_Source\PSoC5/USB_std.c ****                 pEP = &pEP[1u];
 684:Generated_Source\PSoC5/USB_std.c ****             }
 685:Generated_Source\PSoC5/USB_std.c ****             
 686:Generated_Source\PSoC5/USB_std.c ****         #else
 687:Generated_Source\PSoC5/USB_std.c ****             for (i = USB_EP1; i < USB_MAX_EP; ++i)
 688:Generated_Source\PSoC5/USB_std.c ****             {
 689:Generated_Source\PSoC5/USB_std.c ****                 /* p_list points the endpoint setting table. */
 690:Generated_Source\PSoC5/USB_std.c ****                 pEP = (const T_USB_EP_SETTINGS_BLOCK CYCODE *) pTmp->p_list;
 691:Generated_Source\PSoC5/USB_std.c ****                 /* Find max length for each EP and select it (length could be different in differen
 692:Generated_Source\PSoC5/USB_std.c ****                 /* but other settings should be correct with regards to Interface alt Setting */
 693:Generated_Source\PSoC5/USB_std.c ****                 
 694:Generated_Source\PSoC5/USB_std.c ****                 for (curEp = 0u; curEp < ep; ++curEp)
 695:Generated_Source\PSoC5/USB_std.c ****                 {
 696:Generated_Source\PSoC5/USB_std.c ****                     if (i == (pEP->addr & USB_DIR_UNUSED))
 697:Generated_Source\PSoC5/USB_std.c ****                     {
 698:Generated_Source\PSoC5/USB_std.c ****                         /* Compare endpoint buffers size with current size to find greater. */
 699:Generated_Source\PSoC5/USB_std.c ****                         if (USB_EP[i].bufferSize < pEP->bufferSize)
 700:Generated_Source\PSoC5/USB_std.c ****                         {
ARM GAS  C:\Users\CHANTI~1\AppData\Local\Temp\cckZxxwg.s 			page 17


 701:Generated_Source\PSoC5/USB_std.c ****                             USB_EP[i].bufferSize = pEP->bufferSize;
 702:Generated_Source\PSoC5/USB_std.c ****                         }
 703:Generated_Source\PSoC5/USB_std.c ****                         
 704:Generated_Source\PSoC5/USB_std.c ****                         /* Compare current Alternate setting with EP Alt */
 705:Generated_Source\PSoC5/USB_std.c ****                         if (USB_interfaceSetting[pEP->interface] == pEP->altSetting)
 706:Generated_Source\PSoC5/USB_std.c ****                         {                            
 707:Generated_Source\PSoC5/USB_std.c ****                             USB_EP[i].addr = pEP->addr;
 708:Generated_Source\PSoC5/USB_std.c ****                             USB_EP[i].attrib = pEP->attributes;
 709:Generated_Source\PSoC5/USB_std.c ****                             
 710:Generated_Source\PSoC5/USB_std.c ****                             epType = pEP->attributes & USB_EP_TYPE_MASK;
 711:Generated_Source\PSoC5/USB_std.c ****                             
 712:Generated_Source\PSoC5/USB_std.c ****                             if (0u != (pEP->addr & USB_DIR_IN))
 713:Generated_Source\PSoC5/USB_std.c ****                             {
 714:Generated_Source\PSoC5/USB_std.c ****                                 /* IN Endpoint */
 715:Generated_Source\PSoC5/USB_std.c ****                                 USB_EP[i].epMode     = USB_GET_ACTIVE_IN_EP_CR0_MODE(epType);
 716:Generated_Source\PSoC5/USB_std.c ****                                 USB_EP[i].apiEpState = USB_EVENT_PENDING;
 717:Generated_Source\PSoC5/USB_std.c ****                                 
 718:Generated_Source\PSoC5/USB_std.c ****                             #if (defined(USB_ENABLE_MIDI_STREAMING) && (USB_MIDI_IN_BUFF_SIZE > 0))
 719:Generated_Source\PSoC5/USB_std.c ****                                 if ((pEP->bMisc == USB_CLASS_AUDIO) && (epType == USB_EP_TYPE_BULK)
 720:Generated_Source\PSoC5/USB_std.c ****                                 {
 721:Generated_Source\PSoC5/USB_std.c ****                                     USB_midi_in_ep = i;
 722:Generated_Source\PSoC5/USB_std.c ****                                 }
 723:Generated_Source\PSoC5/USB_std.c ****                             #endif  /* (USB_ENABLE_MIDI_STREAMING) */
 724:Generated_Source\PSoC5/USB_std.c ****                             }
 725:Generated_Source\PSoC5/USB_std.c ****                             else
 726:Generated_Source\PSoC5/USB_std.c ****                             {
 727:Generated_Source\PSoC5/USB_std.c ****                                 /* OUT Endpoint */
 728:Generated_Source\PSoC5/USB_std.c ****                                 USB_EP[i].epMode     = USB_GET_ACTIVE_OUT_EP_CR0_MODE(epType);
 729:Generated_Source\PSoC5/USB_std.c ****                                 USB_EP[i].apiEpState = USB_NO_EVENT_PENDING;
 730:Generated_Source\PSoC5/USB_std.c ****                                 
 731:Generated_Source\PSoC5/USB_std.c ****                             #if (defined(USB_ENABLE_MIDI_STREAMING) && (USB_MIDI_OUT_BUFF_SIZE > 0)
 732:Generated_Source\PSoC5/USB_std.c ****                                 if ((pEP->bMisc == USB_CLASS_AUDIO) && (epType == USB_EP_TYPE_BULK)
 733:Generated_Source\PSoC5/USB_std.c ****                                 {
 734:Generated_Source\PSoC5/USB_std.c ****                                     USB_midi_out_ep = i;
 735:Generated_Source\PSoC5/USB_std.c ****                                 }
 736:Generated_Source\PSoC5/USB_std.c ****                             #endif  /* (USB_ENABLE_MIDI_STREAMING) */
 737:Generated_Source\PSoC5/USB_std.c ****                             }
 738:Generated_Source\PSoC5/USB_std.c **** 
 739:Generated_Source\PSoC5/USB_std.c ****                         #if (defined(USB_ENABLE_CDC_CLASS))
 740:Generated_Source\PSoC5/USB_std.c ****                             if((pEP->bMisc == USB_CLASS_CDC_DATA) ||(pEP->bMisc == USB_CLASS_CDC))
 741:Generated_Source\PSoC5/USB_std.c ****                             {
 742:Generated_Source\PSoC5/USB_std.c ****                                 cdcComNums = USB_Cdc_EpInit(pEP, i, cdcComNums);
 743:Generated_Source\PSoC5/USB_std.c ****                             }
 744:Generated_Source\PSoC5/USB_std.c ****                         #endif  /* (USB_ENABLE_CDC_CLASS) */
 745:Generated_Source\PSoC5/USB_std.c **** 
 746:Generated_Source\PSoC5/USB_std.c ****                             #if (USB_EP_MANAGEMENT_DMA_AUTO)
 747:Generated_Source\PSoC5/USB_std.c ****                                 break;  /* Use first EP setting in Auto memory management */
 748:Generated_Source\PSoC5/USB_std.c ****                             #endif /* (USB_EP_MANAGEMENT_DMA_AUTO) */
 749:Generated_Source\PSoC5/USB_std.c ****                         }
 750:Generated_Source\PSoC5/USB_std.c ****                     }
 751:Generated_Source\PSoC5/USB_std.c ****                     
 752:Generated_Source\PSoC5/USB_std.c ****                     pEP = &pEP[1u];
 753:Generated_Source\PSoC5/USB_std.c ****                 }
 754:Generated_Source\PSoC5/USB_std.c ****             }
 755:Generated_Source\PSoC5/USB_std.c ****         #endif /*  (USB_EP_MANAGEMENT_MANUAL && USB_EP_ALLOC_DYNAMIC) */
 756:Generated_Source\PSoC5/USB_std.c **** 
 757:Generated_Source\PSoC5/USB_std.c ****         /* Init class array for each interface and interface number for each EP.
ARM GAS  C:\Users\CHANTI~1\AppData\Local\Temp\cckZxxwg.s 			page 18


 758:Generated_Source\PSoC5/USB_std.c ****         *  It is used for handling Class specific requests directed to either an
 759:Generated_Source\PSoC5/USB_std.c ****         *  interface or the endpoint.
 760:Generated_Source\PSoC5/USB_std.c ****         */
 761:Generated_Source\PSoC5/USB_std.c ****         /* p_list points the endpoint setting table. */
 762:Generated_Source\PSoC5/USB_std.c ****         pEP = (const T_USB_EP_SETTINGS_BLOCK CYCODE *) pTmp->p_list;
 763:Generated_Source\PSoC5/USB_std.c ****         for (i = 0u; i < ep; i++)
 764:Generated_Source\PSoC5/USB_std.c ****         {
 765:Generated_Source\PSoC5/USB_std.c ****             /* Configure interface number for each EP */
 766:Generated_Source\PSoC5/USB_std.c ****             USB_EP[pEP->addr & USB_DIR_UNUSED].interface = pEP->interface;
 767:Generated_Source\PSoC5/USB_std.c ****             pEP = &pEP[1u];
 768:Generated_Source\PSoC5/USB_std.c ****         }
 769:Generated_Source\PSoC5/USB_std.c ****         
 770:Generated_Source\PSoC5/USB_std.c ****         /* Init pointer on interface class table */
 771:Generated_Source\PSoC5/USB_std.c ****         USB_interfaceClass = USB_GetInterfaceClassTablePtr();
 772:Generated_Source\PSoC5/USB_std.c ****         
 773:Generated_Source\PSoC5/USB_std.c ****     /* Set the endpoint buffer addresses */
 774:Generated_Source\PSoC5/USB_std.c ****     #if (!USB_EP_MANAGEMENT_DMA_AUTO)
 775:Generated_Source\PSoC5/USB_std.c ****         buffCount = 0u;
 776:Generated_Source\PSoC5/USB_std.c ****         for (ep = USB_EP1; ep < USB_MAX_EP; ++ep)
 777:Generated_Source\PSoC5/USB_std.c ****         {
 778:Generated_Source\PSoC5/USB_std.c ****             USB_EP[ep].buffOffset = buffCount;        
 779:Generated_Source\PSoC5/USB_std.c ****             buffCount += USB_EP[ep].bufferSize;
 780:Generated_Source\PSoC5/USB_std.c ****             
 781:Generated_Source\PSoC5/USB_std.c ****         #if (USB_GEN_16BITS_EP_ACCESS)
 782:Generated_Source\PSoC5/USB_std.c ****             /* Align EP buffers to be event size to access 16-bits DR register. */
 783:Generated_Source\PSoC5/USB_std.c ****             buffCount += (0u != (buffCount & 0x01u)) ? 1u : 0u;
 784:Generated_Source\PSoC5/USB_std.c ****         #endif /* (USB_GEN_16BITS_EP_ACCESS) */            
 785:Generated_Source\PSoC5/USB_std.c ****         }
 786:Generated_Source\PSoC5/USB_std.c ****     #endif /* (!USB_EP_MANAGEMENT_DMA_AUTO) */
 787:Generated_Source\PSoC5/USB_std.c **** 
 788:Generated_Source\PSoC5/USB_std.c ****         /* Configure hardware registers */
 789:Generated_Source\PSoC5/USB_std.c ****         USB_ConfigReg();
 790:Generated_Source\PSoC5/USB_std.c ****     }
 791:Generated_Source\PSoC5/USB_std.c **** }
 792:Generated_Source\PSoC5/USB_std.c **** 
 793:Generated_Source\PSoC5/USB_std.c **** 
 794:Generated_Source\PSoC5/USB_std.c **** /*******************************************************************************
 795:Generated_Source\PSoC5/USB_std.c **** * Function Name: USB_ConfigAltChanged
 796:Generated_Source\PSoC5/USB_std.c **** ****************************************************************************//**
 797:Generated_Source\PSoC5/USB_std.c **** *
 798:Generated_Source\PSoC5/USB_std.c **** *  This routine update configuration for the required endpoints only.
 799:Generated_Source\PSoC5/USB_std.c **** *  It is called after SET_INTERFACE request when Static memory allocation used.
 800:Generated_Source\PSoC5/USB_std.c **** *
 801:Generated_Source\PSoC5/USB_std.c **** * \reentrant
 802:Generated_Source\PSoC5/USB_std.c **** *  No.
 803:Generated_Source\PSoC5/USB_std.c **** *
 804:Generated_Source\PSoC5/USB_std.c **** *******************************************************************************/
 805:Generated_Source\PSoC5/USB_std.c **** void USB_ConfigAltChanged(void) 
 806:Generated_Source\PSoC5/USB_std.c **** {
 807:Generated_Source\PSoC5/USB_std.c ****     uint8 ep;
 808:Generated_Source\PSoC5/USB_std.c ****     uint8 curEp;
 809:Generated_Source\PSoC5/USB_std.c ****     uint8 epType;
 810:Generated_Source\PSoC5/USB_std.c ****     uint8 i;
 811:Generated_Source\PSoC5/USB_std.c ****     uint8 interfaceNum;
 812:Generated_Source\PSoC5/USB_std.c **** 
 813:Generated_Source\PSoC5/USB_std.c ****     const T_USB_LUT CYCODE *pTmp;
 814:Generated_Source\PSoC5/USB_std.c ****     const T_USB_EP_SETTINGS_BLOCK CYCODE *pEP;
ARM GAS  C:\Users\CHANTI~1\AppData\Local\Temp\cckZxxwg.s 			page 19


 815:Generated_Source\PSoC5/USB_std.c **** 
 816:Generated_Source\PSoC5/USB_std.c ****     /* Init Endpoints and Device Status if configured */
 817:Generated_Source\PSoC5/USB_std.c ****     if (USB_configuration > 0u)
 818:Generated_Source\PSoC5/USB_std.c ****     {
 819:Generated_Source\PSoC5/USB_std.c ****         /* Get number of endpoints configurations (ep). */
 820:Generated_Source\PSoC5/USB_std.c ****         pTmp = USB_GetConfigTablePtr(USB_configuration - 1u);
 821:Generated_Source\PSoC5/USB_std.c ****         pTmp = &pTmp[1u];
 822:Generated_Source\PSoC5/USB_std.c ****         ep = pTmp->c;
 823:Generated_Source\PSoC5/USB_std.c **** 
 824:Generated_Source\PSoC5/USB_std.c ****         /* Get pointer to endpoints setting table (pEP). */
 825:Generated_Source\PSoC5/USB_std.c ****         pEP = (const T_USB_EP_SETTINGS_BLOCK CYCODE *) pTmp->p_list;
 826:Generated_Source\PSoC5/USB_std.c ****         
 827:Generated_Source\PSoC5/USB_std.c ****         /* Look through all possible endpoint configurations. Find endpoints 
 828:Generated_Source\PSoC5/USB_std.c ****         * which belong to current interface and alternate settings for 
 829:Generated_Source\PSoC5/USB_std.c ****         * re-configuration.
 830:Generated_Source\PSoC5/USB_std.c ****         */
 831:Generated_Source\PSoC5/USB_std.c ****         interfaceNum = USB_interfaceNumber;
 832:Generated_Source\PSoC5/USB_std.c ****         for (i = 0u; i < ep; i++)
 833:Generated_Source\PSoC5/USB_std.c ****         {
 834:Generated_Source\PSoC5/USB_std.c ****             /* Find endpoints which belong to current interface and alternate settings. */
 835:Generated_Source\PSoC5/USB_std.c ****             if ((interfaceNum == pEP->interface) && 
 836:Generated_Source\PSoC5/USB_std.c ****                 (USB_interfaceSetting[interfaceNum] == pEP->altSetting))
 837:Generated_Source\PSoC5/USB_std.c ****             {
 838:Generated_Source\PSoC5/USB_std.c ****                 curEp  = ((uint8) pEP->addr & USB_DIR_UNUSED);
 839:Generated_Source\PSoC5/USB_std.c ****                 epType = ((uint8) pEP->attributes & USB_EP_TYPE_MASK);
 840:Generated_Source\PSoC5/USB_std.c ****                 
 841:Generated_Source\PSoC5/USB_std.c ****                 /* Change the SIE mode for the selected EP to NAK ALL */
 842:Generated_Source\PSoC5/USB_std.c ****                 USB_EP[curEp].epToggle   = 0u;
 843:Generated_Source\PSoC5/USB_std.c ****                 USB_EP[curEp].addr       = pEP->addr;
 844:Generated_Source\PSoC5/USB_std.c ****                 USB_EP[curEp].attrib     = pEP->attributes;
 845:Generated_Source\PSoC5/USB_std.c ****                 USB_EP[curEp].bufferSize = pEP->bufferSize;
 846:Generated_Source\PSoC5/USB_std.c **** 
 847:Generated_Source\PSoC5/USB_std.c ****                 if (0u != (pEP->addr & USB_DIR_IN))
 848:Generated_Source\PSoC5/USB_std.c ****                 {
 849:Generated_Source\PSoC5/USB_std.c ****                     /* IN Endpoint */
 850:Generated_Source\PSoC5/USB_std.c ****                     USB_EP[curEp].epMode     = USB_GET_ACTIVE_IN_EP_CR0_MODE(epType);
 851:Generated_Source\PSoC5/USB_std.c ****                     USB_EP[curEp].apiEpState = USB_EVENT_PENDING;
 852:Generated_Source\PSoC5/USB_std.c ****                 }
 853:Generated_Source\PSoC5/USB_std.c ****                 else
 854:Generated_Source\PSoC5/USB_std.c ****                 {
 855:Generated_Source\PSoC5/USB_std.c ****                     /* OUT Endpoint */
 856:Generated_Source\PSoC5/USB_std.c ****                     USB_EP[curEp].epMode     = USB_GET_ACTIVE_OUT_EP_CR0_MODE(epType);
 857:Generated_Source\PSoC5/USB_std.c ****                     USB_EP[curEp].apiEpState = USB_NO_EVENT_PENDING;
 858:Generated_Source\PSoC5/USB_std.c ****                 }
 859:Generated_Source\PSoC5/USB_std.c ****                 
 860:Generated_Source\PSoC5/USB_std.c ****                 /* Make SIE to NAK any endpoint requests */
 861:Generated_Source\PSoC5/USB_std.c ****                 USB_SIE_EP_BASE.sieEp[curEp].epCr0 = USB_MODE_NAK_IN_OUT;
 862:Generated_Source\PSoC5/USB_std.c **** 
 863:Generated_Source\PSoC5/USB_std.c ****             #if (USB_EP_MANAGEMENT_DMA_AUTO)
 864:Generated_Source\PSoC5/USB_std.c ****                 /* Clear IN data ready. */
 865:Generated_Source\PSoC5/USB_std.c ****                 USB_ARB_EP_BASE.arbEp[curEp].epCfg &= (uint8) ~USB_ARB_EPX_CFG_IN_DATA_RDY;
 866:Generated_Source\PSoC5/USB_std.c **** 
 867:Generated_Source\PSoC5/USB_std.c ****                 /* Select endpoint number of reconfiguration */
 868:Generated_Source\PSoC5/USB_std.c ****                 USB_DYN_RECONFIG_REG = (uint8) ((curEp - 1u) << USB_DYN_RECONFIG_EP_SHIFT);
 869:Generated_Source\PSoC5/USB_std.c ****                 
 870:Generated_Source\PSoC5/USB_std.c ****                 /* Request for dynamic re-configuration of endpoint. */
 871:Generated_Source\PSoC5/USB_std.c ****                 USB_DYN_RECONFIG_REG |= USB_DYN_RECONFIG_ENABLE;
ARM GAS  C:\Users\CHANTI~1\AppData\Local\Temp\cckZxxwg.s 			page 20


 872:Generated_Source\PSoC5/USB_std.c ****                 
 873:Generated_Source\PSoC5/USB_std.c ****                 /* Wait until block is ready for re-configuration */
 874:Generated_Source\PSoC5/USB_std.c ****                 while (0u == (USB_DYN_RECONFIG_REG & USB_DYN_RECONFIG_RDY_STS))
 875:Generated_Source\PSoC5/USB_std.c ****                 {
 876:Generated_Source\PSoC5/USB_std.c ****                 }
 877:Generated_Source\PSoC5/USB_std.c ****                 
 878:Generated_Source\PSoC5/USB_std.c ****                 /* Once DYN_RECONFIG_RDY_STS bit is set, FW can change the EP configuration. */
 879:Generated_Source\PSoC5/USB_std.c ****                 /* Change EP Type with new direction */
 880:Generated_Source\PSoC5/USB_std.c ****                 if (0u != (pEP->addr & USB_DIR_IN))
 881:Generated_Source\PSoC5/USB_std.c ****                 {
 882:Generated_Source\PSoC5/USB_std.c ****                     /* Set endpoint type: 0 - IN and 1 - OUT. */
 883:Generated_Source\PSoC5/USB_std.c ****                     USB_EP_TYPE_REG &= (uint8) ~(uint8)((uint8) 0x01u << (curEp - 1u));
 884:Generated_Source\PSoC5/USB_std.c ****                     
 885:Generated_Source\PSoC5/USB_std.c ****                 #if (CY_PSOC4)
 886:Generated_Source\PSoC5/USB_std.c ****                     /* Clear DMA_TERMIN for IN endpoint */
 887:Generated_Source\PSoC5/USB_std.c ****                     USB_ARB_EP_BASE.arbEp[curEp].epIntEn &= (uint32) ~USB_ARB_EPX_INT_DMA_TERMIN;
 888:Generated_Source\PSoC5/USB_std.c ****                 #endif /* (CY_PSOC4) */
 889:Generated_Source\PSoC5/USB_std.c ****                 }
 890:Generated_Source\PSoC5/USB_std.c ****                 else
 891:Generated_Source\PSoC5/USB_std.c ****                 {
 892:Generated_Source\PSoC5/USB_std.c ****                     /* Set endpoint type: 0 - IN and 1- OUT. */
 893:Generated_Source\PSoC5/USB_std.c ****                     USB_EP_TYPE_REG |= (uint8) ((uint8) 0x01u << (curEp - 1u));
 894:Generated_Source\PSoC5/USB_std.c ****                     
 895:Generated_Source\PSoC5/USB_std.c ****                 #if (CY_PSOC4)
 896:Generated_Source\PSoC5/USB_std.c ****                     /* Set DMA_TERMIN for OUT endpoint */
 897:Generated_Source\PSoC5/USB_std.c ****                     USB_ARB_EP_BASE.arbEp[curEp].epIntEn |= (uint32) USB_ARB_EPX_INT_DMA_TERMIN;
 898:Generated_Source\PSoC5/USB_std.c ****                 #endif /* (CY_PSOC4) */
 899:Generated_Source\PSoC5/USB_std.c ****                 }
 900:Generated_Source\PSoC5/USB_std.c ****                 
 901:Generated_Source\PSoC5/USB_std.c ****                 /* Complete dynamic re-configuration: all endpoint related status and signals 
 902:Generated_Source\PSoC5/USB_std.c ****                 * are set into the default state.
 903:Generated_Source\PSoC5/USB_std.c ****                 */
 904:Generated_Source\PSoC5/USB_std.c ****                 USB_DYN_RECONFIG_REG &= (uint8) ~USB_DYN_RECONFIG_ENABLE;
 905:Generated_Source\PSoC5/USB_std.c **** 
 906:Generated_Source\PSoC5/USB_std.c ****             #else
 907:Generated_Source\PSoC5/USB_std.c ****                 USB_SIE_EP_BASE.sieEp[curEp].epCnt0 = HI8(USB_EP[curEp].bufferSize);
 908:Generated_Source\PSoC5/USB_std.c ****                 USB_SIE_EP_BASE.sieEp[curEp].epCnt1 = LO8(USB_EP[curEp].bufferSize);
 909:Generated_Source\PSoC5/USB_std.c ****                 
 910:Generated_Source\PSoC5/USB_std.c ****                 #if (CY_PSOC4)
 911:Generated_Source\PSoC5/USB_std.c ****                     USB_ARB_EP16_BASE.arbEp[curEp].rwRa16  = (uint32) USB_EP[curEp].buffOffset;
 912:Generated_Source\PSoC5/USB_std.c ****                     USB_ARB_EP16_BASE.arbEp[curEp].rwWa16  = (uint32) USB_EP[curEp].buffOffset;
 913:Generated_Source\PSoC5/USB_std.c ****                 #else
 914:Generated_Source\PSoC5/USB_std.c ****                     USB_ARB_EP_BASE.arbEp[curEp].rwRa    = LO8(USB_EP[curEp].buffOffset);
 915:Generated_Source\PSoC5/USB_std.c ****                     USB_ARB_EP_BASE.arbEp[curEp].rwRaMsb = HI8(USB_EP[curEp].buffOffset);
 916:Generated_Source\PSoC5/USB_std.c ****                     USB_ARB_EP_BASE.arbEp[curEp].rwWa    = LO8(USB_EP[curEp].buffOffset);
 917:Generated_Source\PSoC5/USB_std.c ****                     USB_ARB_EP_BASE.arbEp[curEp].rwWaMsb = HI8(USB_EP[curEp].buffOffset);
 918:Generated_Source\PSoC5/USB_std.c ****                 #endif /* (CY_PSOC4) */                
 919:Generated_Source\PSoC5/USB_std.c ****             #endif /* (USB_EP_MANAGEMENT_DMA_AUTO) */
 920:Generated_Source\PSoC5/USB_std.c ****             }
 921:Generated_Source\PSoC5/USB_std.c ****             
 922:Generated_Source\PSoC5/USB_std.c ****             pEP = &pEP[1u]; /* Get next EP element */
 923:Generated_Source\PSoC5/USB_std.c ****         }
 924:Generated_Source\PSoC5/USB_std.c ****         
 925:Generated_Source\PSoC5/USB_std.c ****         /* The main loop has to re-enable DMA and OUT endpoint */
 926:Generated_Source\PSoC5/USB_std.c ****     }
 927:Generated_Source\PSoC5/USB_std.c **** }
 928:Generated_Source\PSoC5/USB_std.c **** 
ARM GAS  C:\Users\CHANTI~1\AppData\Local\Temp\cckZxxwg.s 			page 21


 929:Generated_Source\PSoC5/USB_std.c **** 
 930:Generated_Source\PSoC5/USB_std.c **** /*******************************************************************************
 931:Generated_Source\PSoC5/USB_std.c **** * Function Name: USB_GetConfigTablePtr
 932:Generated_Source\PSoC5/USB_std.c **** ****************************************************************************//**
 933:Generated_Source\PSoC5/USB_std.c **** *
 934:Generated_Source\PSoC5/USB_std.c **** *  This routine returns a pointer a configuration table entry
 935:Generated_Source\PSoC5/USB_std.c **** *
 936:Generated_Source\PSoC5/USB_std.c **** *  \param confIndex:  Configuration Index
 937:Generated_Source\PSoC5/USB_std.c **** *
 938:Generated_Source\PSoC5/USB_std.c **** * \return
 939:Generated_Source\PSoC5/USB_std.c **** *  Device Descriptor pointer or NULL when descriptor does not exist.
 940:Generated_Source\PSoC5/USB_std.c **** *
 941:Generated_Source\PSoC5/USB_std.c **** *******************************************************************************/
 942:Generated_Source\PSoC5/USB_std.c **** const T_USB_LUT CYCODE *USB_GetConfigTablePtr(uint8 confIndex)
 943:Generated_Source\PSoC5/USB_std.c ****                                                         
 944:Generated_Source\PSoC5/USB_std.c **** {
 209              		.loc 1 944 0
 210              		.cfi_startproc
 211              		@ args = 0, pretend = 0, frame = 0
 212              		@ frame_needed = 0, uses_anonymous_args = 0
 213              		@ link register save eliminated.
 214              	.LVL9:
 945:Generated_Source\PSoC5/USB_std.c ****     /* Device Table */
 946:Generated_Source\PSoC5/USB_std.c ****     const T_USB_LUT CYCODE *pTmp;
 947:Generated_Source\PSoC5/USB_std.c **** 
 948:Generated_Source\PSoC5/USB_std.c ****     pTmp = (const T_USB_LUT CYCODE *) USB_TABLE[USB_device].p_list;
 215              		.loc 1 948 0
 216 0000 074B     		ldr	r3, .L20
 217 0002 1A78     		ldrb	r2, [r3]	@ zero_extendqisi2
 218 0004 074B     		ldr	r3, .L20+4
 219 0006 03EBC203 		add	r3, r3, r2, lsl #3
 220 000a 5B68     		ldr	r3, [r3, #4]
 221              	.LVL10:
 949:Generated_Source\PSoC5/USB_std.c **** 
 950:Generated_Source\PSoC5/USB_std.c ****     /* The first entry points to the Device Descriptor,
 951:Generated_Source\PSoC5/USB_std.c ****     *  the second entry point to the BOS Descriptor
 952:Generated_Source\PSoC5/USB_std.c ****     *  the rest configuration entries.
 953:Generated_Source\PSoC5/USB_std.c ****     *  Set pointer to the first Configuration Descriptor
 954:Generated_Source\PSoC5/USB_std.c ****     */
 955:Generated_Source\PSoC5/USB_std.c ****     pTmp = &pTmp[2u];
 956:Generated_Source\PSoC5/USB_std.c ****     /* For this table, c is the number of configuration descriptors  */
 957:Generated_Source\PSoC5/USB_std.c ****     if(confIndex >= pTmp->c)   /* Verify that required configuration descriptor exists */
 222              		.loc 1 957 0
 223 000c 1A7C     		ldrb	r2, [r3, #16]	@ zero_extendqisi2
 224 000e 8242     		cmp	r2, r0
 225 0010 04D9     		bls	.L19
 958:Generated_Source\PSoC5/USB_std.c ****     {
 959:Generated_Source\PSoC5/USB_std.c ****         pTmp = (const T_USB_LUT CYCODE *) NULL;
 960:Generated_Source\PSoC5/USB_std.c ****     }
 961:Generated_Source\PSoC5/USB_std.c ****     else
 962:Generated_Source\PSoC5/USB_std.c ****     {
 963:Generated_Source\PSoC5/USB_std.c ****         pTmp = (const T_USB_LUT CYCODE *) pTmp[confIndex].p_list;
 226              		.loc 1 963 0
 227 0012 C000     		lsls	r0, r0, #3
 228              	.LVL11:
 229 0014 1030     		adds	r0, r0, #16
 230 0016 1844     		add	r0, r0, r3
ARM GAS  C:\Users\CHANTI~1\AppData\Local\Temp\cckZxxwg.s 			page 22


 231 0018 4068     		ldr	r0, [r0, #4]
 232              	.LVL12:
 233 001a 7047     		bx	lr
 234              	.LVL13:
 235              	.L19:
 959:Generated_Source\PSoC5/USB_std.c ****     }
 236              		.loc 1 959 0
 237 001c 0020     		movs	r0, #0
 238              	.LVL14:
 964:Generated_Source\PSoC5/USB_std.c ****     }
 965:Generated_Source\PSoC5/USB_std.c **** 
 966:Generated_Source\PSoC5/USB_std.c ****     return (pTmp);
 967:Generated_Source\PSoC5/USB_std.c **** }
 239              		.loc 1 967 0
 240 001e 7047     		bx	lr
 241              	.L21:
 242              		.align	2
 243              	.L20:
 244 0020 00000000 		.word	USB_device
 245 0024 00000000 		.word	USB_TABLE
 246              		.cfi_endproc
 247              	.LFE5:
 248              		.size	USB_GetConfigTablePtr, .-USB_GetConfigTablePtr
 249              		.section	.text.USB_ConfigAltChanged,"ax",%progbits
 250              		.align	2
 251              		.global	USB_ConfigAltChanged
 252              		.thumb
 253              		.thumb_func
 254              		.type	USB_ConfigAltChanged, %function
 255              	USB_ConfigAltChanged:
 256              	.LFB4:
 806:Generated_Source\PSoC5/USB_std.c ****     uint8 ep;
 257              		.loc 1 806 0
 258              		.cfi_startproc
 259              		@ args = 0, pretend = 0, frame = 0
 260              		@ frame_needed = 0, uses_anonymous_args = 0
 261 0000 F8B5     		push	{r3, r4, r5, r6, r7, lr}
 262              		.cfi_def_cfa_offset 24
 263              		.cfi_offset 3, -24
 264              		.cfi_offset 4, -20
 265              		.cfi_offset 5, -16
 266              		.cfi_offset 6, -12
 267              		.cfi_offset 7, -8
 268              		.cfi_offset 14, -4
 817:Generated_Source\PSoC5/USB_std.c ****     {
 269              		.loc 1 817 0
 270 0002 404B     		ldr	r3, .L34
 271 0004 1B78     		ldrb	r3, [r3]	@ zero_extendqisi2
 272 0006 13F0FF0F 		tst	r3, #255
 273 000a 79D0     		beq	.L22
 820:Generated_Source\PSoC5/USB_std.c ****         pTmp = &pTmp[1u];
 274              		.loc 1 820 0
 275 000c 3D4B     		ldr	r3, .L34
 276 000e 1878     		ldrb	r0, [r3]	@ zero_extendqisi2
 277 0010 0138     		subs	r0, r0, #1
 278 0012 C0B2     		uxtb	r0, r0
 279 0014 FFF7FEFF 		bl	USB_GetConfigTablePtr
ARM GAS  C:\Users\CHANTI~1\AppData\Local\Temp\cckZxxwg.s 			page 23


 280              	.LVL15:
 822:Generated_Source\PSoC5/USB_std.c **** 
 281              		.loc 1 822 0
 282 0018 047A     		ldrb	r4, [r0, #8]	@ zero_extendqisi2
 283              	.LVL16:
 825:Generated_Source\PSoC5/USB_std.c ****         
 284              		.loc 1 825 0
 285 001a C268     		ldr	r2, [r0, #12]
 286              	.LVL17:
 831:Generated_Source\PSoC5/USB_std.c ****         for (i = 0u; i < ep; i++)
 287              		.loc 1 831 0
 288 001c 3A4B     		ldr	r3, .L34+4
 289 001e 1878     		ldrb	r0, [r3]	@ zero_extendqisi2
 290              	.LVL18:
 291 0020 C0B2     		uxtb	r0, r0
 292              	.LVL19:
 832:Generated_Source\PSoC5/USB_std.c ****         {
 293              		.loc 1 832 0
 294 0022 0023     		movs	r3, #0
 295 0024 6AE0     		b	.L24
 296              	.LVL20:
 297              	.L30:
 835:Generated_Source\PSoC5/USB_std.c ****                 (USB_interfaceSetting[interfaceNum] == pEP->altSetting))
 298              		.loc 1 835 0
 299 0026 1178     		ldrb	r1, [r2]	@ zero_extendqisi2
 300 0028 8842     		cmp	r0, r1
 301 002a 64D1     		bne	.L25
 836:Generated_Source\PSoC5/USB_std.c ****             {
 302              		.loc 1 836 0 discriminator 1
 303 002c 3749     		ldr	r1, .L34+8
 304 002e 095C     		ldrb	r1, [r1, r0]	@ zero_extendqisi2
 305 0030 C9B2     		uxtb	r1, r1
 306 0032 5578     		ldrb	r5, [r2, #1]	@ zero_extendqisi2
 835:Generated_Source\PSoC5/USB_std.c ****                 (USB_interfaceSetting[interfaceNum] == pEP->altSetting))
 307              		.loc 1 835 0 discriminator 1
 308 0034 A942     		cmp	r1, r5
 309 0036 5ED1     		bne	.L25
 838:Generated_Source\PSoC5/USB_std.c ****                 epType = ((uint8) pEP->attributes & USB_EP_TYPE_MASK);
 310              		.loc 1 838 0
 311 0038 9178     		ldrb	r1, [r2, #2]	@ zero_extendqisi2
 312 003a 01F07F01 		and	r1, r1, #127
 313              	.LVL21:
 839:Generated_Source\PSoC5/USB_std.c ****                 
 314              		.loc 1 839 0
 315 003e D678     		ldrb	r6, [r2, #3]	@ zero_extendqisi2
 316 0040 06F00306 		and	r6, r6, #3
 317              	.LVL22:
 842:Generated_Source\PSoC5/USB_std.c ****                 USB_EP[curEp].addr       = pEP->addr;
 318              		.loc 1 842 0
 319 0044 DFF8C8E0 		ldr	lr, .L34+12
 320 0048 4D00     		lsls	r5, r1, #1
 321 004a 0D44     		add	r5, r5, r1
 322 004c AF00     		lsls	r7, r5, #2
 323 004e 0EEB0705 		add	r5, lr, r7
 324 0052 4FF0000C 		mov	ip, #0
 325 0056 85F803C0 		strb	ip, [r5, #3]
 843:Generated_Source\PSoC5/USB_std.c ****                 USB_EP[curEp].attrib     = pEP->attributes;
ARM GAS  C:\Users\CHANTI~1\AppData\Local\Temp\cckZxxwg.s 			page 24


 326              		.loc 1 843 0
 327 005a 92F802C0 		ldrb	ip, [r2, #2]	@ zero_extendqisi2
 328 005e 85F804C0 		strb	ip, [r5, #4]
 844:Generated_Source\PSoC5/USB_std.c ****                 USB_EP[curEp].bufferSize = pEP->bufferSize;
 329              		.loc 1 844 0
 330 0062 92F803C0 		ldrb	ip, [r2, #3]	@ zero_extendqisi2
 331 0066 0EF807C0 		strb	ip, [lr, r7]
 845:Generated_Source\PSoC5/USB_std.c **** 
 332              		.loc 1 845 0
 333 006a 9788     		ldrh	r7, [r2, #4]
 334 006c 2F81     		strh	r7, [r5, #8]	@ movhi
 847:Generated_Source\PSoC5/USB_std.c ****                 {
 335              		.loc 1 847 0
 336 006e 92F90250 		ldrsb	r5, [r2, #2]
 337 0072 002D     		cmp	r5, #0
 338 0074 0DDA     		bge	.L26
 850:Generated_Source\PSoC5/USB_std.c ****                     USB_EP[curEp].apiEpState = USB_EVENT_PENDING;
 339              		.loc 1 850 0
 340 0076 012E     		cmp	r6, #1
 341 0078 01D1     		bne	.L31
 342 007a 0727     		movs	r7, #7
 343 007c 00E0     		b	.L27
 344              	.L31:
 345 007e 0D27     		movs	r7, #13
 346              	.L27:
 850:Generated_Source\PSoC5/USB_std.c ****                     USB_EP[curEp].apiEpState = USB_EVENT_PENDING;
 347              		.loc 1 850 0 is_stmt 0 discriminator 4
 348 0080 4E00     		lsls	r6, r1, #1
 349              	.LVL23:
 350 0082 0E44     		add	r6, r6, r1
 351 0084 B500     		lsls	r5, r6, #2
 352 0086 224E     		ldr	r6, .L34+12
 353 0088 3544     		add	r5, r5, r6
 354 008a 6F71     		strb	r7, [r5, #5]
 851:Generated_Source\PSoC5/USB_std.c ****                 }
 355              		.loc 1 851 0 is_stmt 1 discriminator 4
 356 008c 0126     		movs	r6, #1
 357 008e 6E70     		strb	r6, [r5, #1]
 358 0090 0CE0     		b	.L28
 359              	.LVL24:
 360              	.L26:
 856:Generated_Source\PSoC5/USB_std.c ****                     USB_EP[curEp].apiEpState = USB_NO_EVENT_PENDING;
 361              		.loc 1 856 0
 362 0092 012E     		cmp	r6, #1
 363 0094 01D1     		bne	.L32
 364 0096 0527     		movs	r7, #5
 365 0098 00E0     		b	.L29
 366              	.L32:
 367 009a 0927     		movs	r7, #9
 368              	.L29:
 856:Generated_Source\PSoC5/USB_std.c ****                     USB_EP[curEp].apiEpState = USB_NO_EVENT_PENDING;
 369              		.loc 1 856 0 is_stmt 0 discriminator 4
 370 009c 4E00     		lsls	r6, r1, #1
 371              	.LVL25:
 372 009e 0E44     		add	r6, r6, r1
 373 00a0 B500     		lsls	r5, r6, #2
 374 00a2 1B4E     		ldr	r6, .L34+12
ARM GAS  C:\Users\CHANTI~1\AppData\Local\Temp\cckZxxwg.s 			page 25


 375 00a4 3544     		add	r5, r5, r6
 376 00a6 6F71     		strb	r7, [r5, #5]
 857:Generated_Source\PSoC5/USB_std.c ****                 }
 377              		.loc 1 857 0 is_stmt 1 discriminator 4
 378 00a8 0026     		movs	r6, #0
 379 00aa 6E70     		strb	r6, [r5, #1]
 380              	.L28:
 861:Generated_Source\PSoC5/USB_std.c **** 
 381              		.loc 1 861 0
 382 00ac DFF868E0 		ldr	lr, .L34+20
 383 00b0 0F01     		lsls	r7, r1, #4
 384 00b2 0EEB0706 		add	r6, lr, r7
 385 00b6 0125     		movs	r5, #1
 386 00b8 B570     		strb	r5, [r6, #2]
 907:Generated_Source\PSoC5/USB_std.c ****                 USB_SIE_EP_BASE.sieEp[curEp].epCnt1 = LO8(USB_EP[curEp].bufferSize);
 387              		.loc 1 907 0
 388 00ba 01FA05F5 		lsl	r5, r1, r5
 389 00be 2944     		add	r1, r1, r5
 390              	.LVL26:
 391 00c0 8D00     		lsls	r5, r1, #2
 392 00c2 1349     		ldr	r1, .L34+12
 393 00c4 2944     		add	r1, r1, r5
 394 00c6 0D89     		ldrh	r5, [r1, #8]
 395 00c8 C5F30725 		ubfx	r5, r5, #8, #8
 396 00cc 0EF80750 		strb	r5, [lr, r7]
 908:Generated_Source\PSoC5/USB_std.c ****                 
 397              		.loc 1 908 0
 398 00d0 0D89     		ldrh	r5, [r1, #8]
 399 00d2 EDB2     		uxtb	r5, r5
 400 00d4 7570     		strb	r5, [r6, #1]
 914:Generated_Source\PSoC5/USB_std.c ****                     USB_ARB_EP_BASE.arbEp[curEp].rwRaMsb = HI8(USB_EP[curEp].buffOffset);
 401              		.loc 1 914 0
 402 00d6 CE88     		ldrh	r6, [r1, #6]
 403 00d8 F6B2     		uxtb	r6, r6
 404 00da 0E4D     		ldr	r5, .L34+16
 405 00dc 3D44     		add	r5, r5, r7
 406 00de AE71     		strb	r6, [r5, #6]
 915:Generated_Source\PSoC5/USB_std.c ****                     USB_ARB_EP_BASE.arbEp[curEp].rwWa    = LO8(USB_EP[curEp].buffOffset);
 407              		.loc 1 915 0
 408 00e0 CE88     		ldrh	r6, [r1, #6]
 409 00e2 C6F30726 		ubfx	r6, r6, #8, #8
 410 00e6 EE71     		strb	r6, [r5, #7]
 916:Generated_Source\PSoC5/USB_std.c ****                     USB_ARB_EP_BASE.arbEp[curEp].rwWaMsb = HI8(USB_EP[curEp].buffOffset);
 411              		.loc 1 916 0
 412 00e8 CE88     		ldrh	r6, [r1, #6]
 413 00ea F6B2     		uxtb	r6, r6
 414 00ec 2E71     		strb	r6, [r5, #4]
 917:Generated_Source\PSoC5/USB_std.c ****                 #endif /* (CY_PSOC4) */                
 415              		.loc 1 917 0
 416 00ee C988     		ldrh	r1, [r1, #6]
 417 00f0 C1F30721 		ubfx	r1, r1, #8, #8
 418 00f4 6971     		strb	r1, [r5, #5]
 419              	.L25:
 922:Generated_Source\PSoC5/USB_std.c ****         }
 420              		.loc 1 922 0 discriminator 2
 421 00f6 0832     		adds	r2, r2, #8
 422              	.LVL27:
ARM GAS  C:\Users\CHANTI~1\AppData\Local\Temp\cckZxxwg.s 			page 26


 832:Generated_Source\PSoC5/USB_std.c ****         {
 423              		.loc 1 832 0 discriminator 2
 424 00f8 0133     		adds	r3, r3, #1
 425              	.LVL28:
 426 00fa DBB2     		uxtb	r3, r3
 427              	.LVL29:
 428              	.L24:
 832:Generated_Source\PSoC5/USB_std.c ****         {
 429              		.loc 1 832 0 is_stmt 0 discriminator 1
 430 00fc A342     		cmp	r3, r4
 431 00fe 92D3     		bcc	.L30
 432              	.LVL30:
 433              	.L22:
 434 0100 F8BD     		pop	{r3, r4, r5, r6, r7, pc}
 435              	.L35:
 436 0102 00BF     		.align	2
 437              	.L34:
 438 0104 00000000 		.word	USB_configuration
 439 0108 00000000 		.word	USB_interfaceNumber
 440 010c 00000000 		.word	USB_interfaceSetting
 441 0110 00000000 		.word	USB_EP
 442 0114 70600040 		.word	1073766512
 443 0118 FC5F0040 		.word	1073766396
 444              		.cfi_endproc
 445              	.LFE4:
 446              		.size	USB_ConfigAltChanged, .-USB_ConfigAltChanged
 447              		.section	.text.USB_GetDeviceTablePtr,"ax",%progbits
 448              		.align	2
 449              		.global	USB_GetDeviceTablePtr
 450              		.thumb
 451              		.thumb_func
 452              		.type	USB_GetDeviceTablePtr, %function
 453              	USB_GetDeviceTablePtr:
 454              	.LFB6:
 968:Generated_Source\PSoC5/USB_std.c **** 
 969:Generated_Source\PSoC5/USB_std.c **** 
 970:Generated_Source\PSoC5/USB_std.c **** #if (USB_BOS_ENABLE)
 971:Generated_Source\PSoC5/USB_std.c ****     /*******************************************************************************
 972:Generated_Source\PSoC5/USB_std.c ****     * Function Name: USB_GetBOSPtr
 973:Generated_Source\PSoC5/USB_std.c ****     ****************************************************************************//**
 974:Generated_Source\PSoC5/USB_std.c ****     *
 975:Generated_Source\PSoC5/USB_std.c ****     *  This routine returns a pointer a BOS table entry
 976:Generated_Source\PSoC5/USB_std.c ****     *
 977:Generated_Source\PSoC5/USB_std.c ****     *  
 978:Generated_Source\PSoC5/USB_std.c ****     *
 979:Generated_Source\PSoC5/USB_std.c ****     * \return
 980:Generated_Source\PSoC5/USB_std.c ****     *  BOS Descriptor pointer or NULL when descriptor does not exist.
 981:Generated_Source\PSoC5/USB_std.c ****     *
 982:Generated_Source\PSoC5/USB_std.c ****     *******************************************************************************/
 983:Generated_Source\PSoC5/USB_std.c ****     const T_USB_LUT CYCODE *USB_GetBOSPtr(void)
 984:Generated_Source\PSoC5/USB_std.c ****                                                             
 985:Generated_Source\PSoC5/USB_std.c ****     {
 986:Generated_Source\PSoC5/USB_std.c ****         /* Device Table */
 987:Generated_Source\PSoC5/USB_std.c ****         const T_USB_LUT CYCODE *pTmp;
 988:Generated_Source\PSoC5/USB_std.c **** 
 989:Generated_Source\PSoC5/USB_std.c ****         pTmp = (const T_USB_LUT CYCODE *) USB_TABLE[USB_device].p_list;
 990:Generated_Source\PSoC5/USB_std.c **** 
ARM GAS  C:\Users\CHANTI~1\AppData\Local\Temp\cckZxxwg.s 			page 27


 991:Generated_Source\PSoC5/USB_std.c ****         /* The first entry points to the Device Descriptor,
 992:Generated_Source\PSoC5/USB_std.c ****         *  the second entry points to the BOS Descriptor
 993:Generated_Source\PSoC5/USB_std.c ****         */
 994:Generated_Source\PSoC5/USB_std.c ****         pTmp = &pTmp[1u];
 995:Generated_Source\PSoC5/USB_std.c ****         pTmp = (const T_USB_LUT CYCODE *) pTmp->p_list;
 996:Generated_Source\PSoC5/USB_std.c ****         return (pTmp);
 997:Generated_Source\PSoC5/USB_std.c ****     }
 998:Generated_Source\PSoC5/USB_std.c **** #endif /* (USB_BOS_ENABLE) */
 999:Generated_Source\PSoC5/USB_std.c **** 
1000:Generated_Source\PSoC5/USB_std.c **** 
1001:Generated_Source\PSoC5/USB_std.c **** /*******************************************************************************
1002:Generated_Source\PSoC5/USB_std.c **** * Function Name: USB_GetDeviceTablePtr
1003:Generated_Source\PSoC5/USB_std.c **** ****************************************************************************//**
1004:Generated_Source\PSoC5/USB_std.c **** *
1005:Generated_Source\PSoC5/USB_std.c **** *  This routine returns a pointer to the Device table
1006:Generated_Source\PSoC5/USB_std.c **** *
1007:Generated_Source\PSoC5/USB_std.c **** * \return
1008:Generated_Source\PSoC5/USB_std.c **** *  Device Table pointer
1009:Generated_Source\PSoC5/USB_std.c **** *
1010:Generated_Source\PSoC5/USB_std.c **** *******************************************************************************/
1011:Generated_Source\PSoC5/USB_std.c **** const T_USB_LUT CYCODE *USB_GetDeviceTablePtr(void)
1012:Generated_Source\PSoC5/USB_std.c ****                                                             
1013:Generated_Source\PSoC5/USB_std.c **** {
 455              		.loc 1 1013 0 is_stmt 1
 456              		.cfi_startproc
 457              		@ args = 0, pretend = 0, frame = 0
 458              		@ frame_needed = 0, uses_anonymous_args = 0
 459              		@ link register save eliminated.
1014:Generated_Source\PSoC5/USB_std.c ****     /* Device Table */
1015:Generated_Source\PSoC5/USB_std.c ****     return( (const T_USB_LUT CYCODE *) USB_TABLE[USB_device].p_list );
 460              		.loc 1 1015 0
 461 0000 034B     		ldr	r3, .L37
 462 0002 1A78     		ldrb	r2, [r3]	@ zero_extendqisi2
 463 0004 034B     		ldr	r3, .L37+4
 464 0006 03EBC203 		add	r3, r3, r2, lsl #3
1016:Generated_Source\PSoC5/USB_std.c **** }
 465              		.loc 1 1016 0
 466 000a 5868     		ldr	r0, [r3, #4]
 467 000c 7047     		bx	lr
 468              	.L38:
 469 000e 00BF     		.align	2
 470              	.L37:
 471 0010 00000000 		.word	USB_device
 472 0014 00000000 		.word	USB_TABLE
 473              		.cfi_endproc
 474              	.LFE6:
 475              		.size	USB_GetDeviceTablePtr, .-USB_GetDeviceTablePtr
 476              		.section	.text.USB_GetInterfaceClassTablePtr,"ax",%progbits
 477              		.align	2
 478              		.global	USB_GetInterfaceClassTablePtr
 479              		.thumb
 480              		.thumb_func
 481              		.type	USB_GetInterfaceClassTablePtr, %function
 482              	USB_GetInterfaceClassTablePtr:
 483              	.LFB7:
1017:Generated_Source\PSoC5/USB_std.c **** 
1018:Generated_Source\PSoC5/USB_std.c **** 
ARM GAS  C:\Users\CHANTI~1\AppData\Local\Temp\cckZxxwg.s 			page 28


1019:Generated_Source\PSoC5/USB_std.c **** /*******************************************************************************
1020:Generated_Source\PSoC5/USB_std.c **** * Function Name: USB_GetInterfaceClassTablePtr
1021:Generated_Source\PSoC5/USB_std.c **** ****************************************************************************//**
1022:Generated_Source\PSoC5/USB_std.c **** *
1023:Generated_Source\PSoC5/USB_std.c **** *  This routine returns Interface Class table pointer, which contains
1024:Generated_Source\PSoC5/USB_std.c **** *  the relation between interface number and interface class.
1025:Generated_Source\PSoC5/USB_std.c **** *
1026:Generated_Source\PSoC5/USB_std.c **** * \return
1027:Generated_Source\PSoC5/USB_std.c **** *  Interface Class table pointer.
1028:Generated_Source\PSoC5/USB_std.c **** *
1029:Generated_Source\PSoC5/USB_std.c **** *******************************************************************************/
1030:Generated_Source\PSoC5/USB_std.c **** const uint8 CYCODE *USB_GetInterfaceClassTablePtr(void)
1031:Generated_Source\PSoC5/USB_std.c ****                                                         
1032:Generated_Source\PSoC5/USB_std.c **** {
 484              		.loc 1 1032 0
 485              		.cfi_startproc
 486              		@ args = 0, pretend = 0, frame = 0
 487              		@ frame_needed = 0, uses_anonymous_args = 0
 488 0000 08B5     		push	{r3, lr}
 489              		.cfi_def_cfa_offset 8
 490              		.cfi_offset 3, -8
 491              		.cfi_offset 14, -4
1033:Generated_Source\PSoC5/USB_std.c ****     const T_USB_LUT CYCODE *pTmp;
1034:Generated_Source\PSoC5/USB_std.c ****     const uint8 CYCODE *pInterfaceClass;
1035:Generated_Source\PSoC5/USB_std.c ****     uint8 currentInterfacesNum;
1036:Generated_Source\PSoC5/USB_std.c **** 
1037:Generated_Source\PSoC5/USB_std.c ****     pTmp = USB_GetConfigTablePtr(USB_configuration - 1u);
 492              		.loc 1 1037 0
 493 0002 084B     		ldr	r3, .L43
 494 0004 1878     		ldrb	r0, [r3]	@ zero_extendqisi2
 495 0006 0138     		subs	r0, r0, #1
 496 0008 C0B2     		uxtb	r0, r0
 497 000a FFF7FEFF 		bl	USB_GetConfigTablePtr
 498              	.LVL31:
1038:Generated_Source\PSoC5/USB_std.c ****     if (pTmp != NULL)
 499              		.loc 1 1038 0
 500 000e 30B1     		cbz	r0, .L41
1039:Generated_Source\PSoC5/USB_std.c ****     {
1040:Generated_Source\PSoC5/USB_std.c ****         currentInterfacesNum  = ((const uint8 *) pTmp->p_list)[USB_CONFIG_DESCR_NUM_INTERFACES];
 501              		.loc 1 1040 0
 502 0010 4268     		ldr	r2, [r0, #4]
 503 0012 1279     		ldrb	r2, [r2, #4]	@ zero_extendqisi2
 504              	.LVL32:
1041:Generated_Source\PSoC5/USB_std.c ****         /* Third entry in the LUT starts the Interface Table pointers */
1042:Generated_Source\PSoC5/USB_std.c ****         /* The INTERFACE_CLASS table is located after all interfaces */
1043:Generated_Source\PSoC5/USB_std.c ****         pTmp = &pTmp[currentInterfacesNum + 2u];
 505              		.loc 1 1043 0
 506 0014 0232     		adds	r2, r2, #2
 507              	.LVL33:
 508 0016 00EBC203 		add	r3, r0, r2, lsl #3
 509              	.LVL34:
1044:Generated_Source\PSoC5/USB_std.c ****         pInterfaceClass = (const uint8 CYCODE *) pTmp->p_list;
 510              		.loc 1 1044 0
 511 001a 5868     		ldr	r0, [r3, #4]
 512              	.LVL35:
 513 001c 08BD     		pop	{r3, pc}
 514              	.LVL36:
ARM GAS  C:\Users\CHANTI~1\AppData\Local\Temp\cckZxxwg.s 			page 29


 515              	.L41:
1045:Generated_Source\PSoC5/USB_std.c ****     }
1046:Generated_Source\PSoC5/USB_std.c ****     else
1047:Generated_Source\PSoC5/USB_std.c ****     {
1048:Generated_Source\PSoC5/USB_std.c ****         pInterfaceClass = (const uint8 CYCODE *) NULL;
 516              		.loc 1 1048 0
 517 001e 0020     		movs	r0, #0
 518              	.LVL37:
1049:Generated_Source\PSoC5/USB_std.c ****     }
1050:Generated_Source\PSoC5/USB_std.c **** 
1051:Generated_Source\PSoC5/USB_std.c ****     return (pInterfaceClass);
1052:Generated_Source\PSoC5/USB_std.c **** }
 519              		.loc 1 1052 0
 520 0020 08BD     		pop	{r3, pc}
 521              	.L44:
 522 0022 00BF     		.align	2
 523              	.L43:
 524 0024 00000000 		.word	USB_configuration
 525              		.cfi_endproc
 526              	.LFE7:
 527              		.size	USB_GetInterfaceClassTablePtr, .-USB_GetInterfaceClassTablePtr
 528              		.section	.text.USB_Config,"ax",%progbits
 529              		.align	2
 530              		.global	USB_Config
 531              		.thumb
 532              		.thumb_func
 533              		.type	USB_Config, %function
 534              	USB_Config:
 535              	.LFB3:
 571:Generated_Source\PSoC5/USB_std.c ****     uint8 ep;
 536              		.loc 1 571 0
 537              		.cfi_startproc
 538              		@ args = 0, pretend = 0, frame = 0
 539              		@ frame_needed = 0, uses_anonymous_args = 0
 540              	.LVL38:
 541 0000 2DE9F041 		push	{r4, r5, r6, r7, r8, lr}
 542              		.cfi_def_cfa_offset 24
 543              		.cfi_offset 4, -24
 544              		.cfi_offset 5, -20
 545              		.cfi_offset 6, -16
 546              		.cfi_offset 7, -12
 547              		.cfi_offset 8, -8
 548              		.cfi_offset 14, -4
 549              	.LVL39:
 586:Generated_Source\PSoC5/USB_std.c ****     {
 550              		.loc 1 586 0
 551 0004 0023     		movs	r3, #0
 552 0006 10E0     		b	.L46
 553              	.LVL40:
 554              	.L47:
 588:Generated_Source\PSoC5/USB_std.c ****         USB_EP[ep].hwEpState  = 0u;
 555              		.loc 1 588 0 discriminator 3
 556 0008 684D     		ldr	r5, .L71
 557 000a 5900     		lsls	r1, r3, #1
 558 000c CA18     		adds	r2, r1, r3
 559 000e 9600     		lsls	r6, r2, #2
 560 0010 AC19     		adds	r4, r5, r6
ARM GAS  C:\Users\CHANTI~1\AppData\Local\Temp\cckZxxwg.s 			page 30


 561 0012 0022     		movs	r2, #0
 562 0014 AA55     		strb	r2, [r5, r6]
 589:Generated_Source\PSoC5/USB_std.c ****         USB_EP[ep].epToggle   = 0u;
 563              		.loc 1 589 0 discriminator 3
 564 0016 A270     		strb	r2, [r4, #2]
 590:Generated_Source\PSoC5/USB_std.c ****         USB_EP[ep].bufferSize = 0u;
 565              		.loc 1 590 0 discriminator 3
 566 0018 E270     		strb	r2, [r4, #3]
 591:Generated_Source\PSoC5/USB_std.c ****         USB_EP[ep].interface  = 0u;
 567              		.loc 1 591 0 discriminator 3
 568 001a 2281     		strh	r2, [r4, #8]	@ movhi
 592:Generated_Source\PSoC5/USB_std.c ****         USB_EP[ep].apiEpState = USB_NO_EVENT_PENDING;
 569              		.loc 1 592 0 discriminator 3
 570 001c A272     		strb	r2, [r4, #10]
 593:Generated_Source\PSoC5/USB_std.c ****         USB_EP[ep].epMode     = USB_MODE_DISABLE;   
 571              		.loc 1 593 0 discriminator 3
 572 001e 6270     		strb	r2, [r4, #1]
 594:Generated_Source\PSoC5/USB_std.c ****     }
 573              		.loc 1 594 0 discriminator 3
 574 0020 3446     		mov	r4, r6
 575 0022 2C44     		add	r4, r4, r5
 576 0024 6271     		strb	r2, [r4, #5]
 586:Generated_Source\PSoC5/USB_std.c ****     {
 577              		.loc 1 586 0 discriminator 3
 578 0026 0133     		adds	r3, r3, #1
 579              	.LVL41:
 580 0028 DBB2     		uxtb	r3, r3
 581              	.LVL42:
 582              	.L46:
 586:Generated_Source\PSoC5/USB_std.c ****     {
 583              		.loc 1 586 0 is_stmt 0 discriminator 1
 584 002a 082B     		cmp	r3, #8
 585 002c ECD9     		bls	.L47
 598:Generated_Source\PSoC5/USB_std.c ****     {
 586              		.loc 1 598 0 is_stmt 1
 587 002e 40B9     		cbnz	r0, .L67
 588 0030 0AE0     		b	.L49
 589              	.LVL43:
 590              	.L50:
 602:Generated_Source\PSoC5/USB_std.c ****             USB_interfaceSettingLast[i] = 0u;
 591              		.loc 1 602 0 discriminator 3
 592 0032 0022     		movs	r2, #0
 593 0034 5E49     		ldr	r1, .L71+4
 594 0036 CA54     		strb	r2, [r1, r3]
 603:Generated_Source\PSoC5/USB_std.c ****         }
 595              		.loc 1 603 0 discriminator 3
 596 0038 5E49     		ldr	r1, .L71+8
 597 003a CA54     		strb	r2, [r1, r3]
 600:Generated_Source\PSoC5/USB_std.c ****         {
 598              		.loc 1 600 0 discriminator 3
 599 003c 0133     		adds	r3, r3, #1
 600              	.LVL44:
 601 003e DBB2     		uxtb	r3, r3
 602              	.LVL45:
 603 0040 00E0     		b	.L48
 604              	.LVL46:
 605              	.L67:
ARM GAS  C:\Users\CHANTI~1\AppData\Local\Temp\cckZxxwg.s 			page 31


 606 0042 0023     		movs	r3, #0
 607              	.LVL47:
 608              	.L48:
 600:Generated_Source\PSoC5/USB_std.c ****         {
 609              		.loc 1 600 0 is_stmt 0 discriminator 1
 610 0044 002B     		cmp	r3, #0
 611 0046 F4D0     		beq	.L50
 612              	.LVL48:
 613              	.L49:
 608:Generated_Source\PSoC5/USB_std.c ****     {
 614              		.loc 1 608 0 is_stmt 1
 615 0048 5B4B     		ldr	r3, .L71+12
 616 004a 1B78     		ldrb	r3, [r3]	@ zero_extendqisi2
 617 004c 13F0FF0F 		tst	r3, #255
 618 0050 00F0A980 		beq	.L45
 614:Generated_Source\PSoC5/USB_std.c ****         
 619              		.loc 1 614 0
 620 0054 584B     		ldr	r3, .L71+12
 621 0056 1878     		ldrb	r0, [r3]	@ zero_extendqisi2
 622              	.LVL49:
 623 0058 0138     		subs	r0, r0, #1
 624 005a C0B2     		uxtb	r0, r0
 625 005c FFF7FEFF 		bl	USB_GetConfigTablePtr
 626              	.LVL50:
 617:Generated_Source\PSoC5/USB_std.c ****         if ((pDescr[USB_CONFIG_DESCR_ATTRIB] & USB_CONFIG_DESCR_ATTRIB_SELF_POWERED) != 0u)
 627              		.loc 1 617 0
 628 0060 4368     		ldr	r3, [r0, #4]
 629              	.LVL51:
 618:Generated_Source\PSoC5/USB_std.c ****         {
 630              		.loc 1 618 0
 631 0062 DB79     		ldrb	r3, [r3, #7]	@ zero_extendqisi2
 632              	.LVL52:
 633 0064 13F0400F 		tst	r3, #64
 634 0068 05D0     		beq	.L52
 620:Generated_Source\PSoC5/USB_std.c ****         }
 635              		.loc 1 620 0
 636 006a 544A     		ldr	r2, .L71+16
 637 006c 1378     		ldrb	r3, [r2]	@ zero_extendqisi2
 638 006e 43F00103 		orr	r3, r3, #1
 639 0072 1370     		strb	r3, [r2]
 640 0074 04E0     		b	.L53
 641              	.L52:
 624:Generated_Source\PSoC5/USB_std.c ****         }
 642              		.loc 1 624 0
 643 0076 514A     		ldr	r2, .L71+16
 644 0078 1378     		ldrb	r3, [r2]	@ zero_extendqisi2
 645 007a 03F0FE03 		and	r3, r3, #254
 646 007e 1370     		strb	r3, [r2]
 647              	.L53:
 648              	.LVL53:
 629:Generated_Source\PSoC5/USB_std.c **** 
 649              		.loc 1 629 0
 650 0080 057A     		ldrb	r5, [r0, #8]	@ zero_extendqisi2
 651              	.LVL54:
 687:Generated_Source\PSoC5/USB_std.c ****             {
 652              		.loc 1 687 0
 653 0082 0124     		movs	r4, #1
ARM GAS  C:\Users\CHANTI~1\AppData\Local\Temp\cckZxxwg.s 			page 32


 654 0084 64E0     		b	.L54
 655              	.LVL55:
 656              	.L62:
 690:Generated_Source\PSoC5/USB_std.c ****                 /* Find max length for each EP and select it (length could be different in differen
 657              		.loc 1 690 0
 658 0086 C168     		ldr	r1, [r0, #12]
 659              	.LVL56:
 694:Generated_Source\PSoC5/USB_std.c ****                 {
 660              		.loc 1 694 0
 661 0088 0023     		movs	r3, #0
 662 008a 5DE0     		b	.L55
 663              	.LVL57:
 664              	.L61:
 696:Generated_Source\PSoC5/USB_std.c ****                     {
 665              		.loc 1 696 0
 666 008c 8A78     		ldrb	r2, [r1, #2]	@ zero_extendqisi2
 667 008e 02F07F02 		and	r2, r2, #127
 668 0092 9442     		cmp	r4, r2
 669 0094 55D1     		bne	.L56
 699:Generated_Source\PSoC5/USB_std.c ****                         {
 670              		.loc 1 699 0
 671 0096 2646     		mov	r6, r4
 672 0098 04EB4407 		add	r7, r4, r4, lsl #1
 673 009c BA00     		lsls	r2, r7, #2
 674 009e 434F     		ldr	r7, .L71
 675 00a0 3A44     		add	r2, r2, r7
 676 00a2 1289     		ldrh	r2, [r2, #8]
 677 00a4 92B2     		uxth	r2, r2
 678 00a6 8F88     		ldrh	r7, [r1, #4]
 679 00a8 BA42     		cmp	r2, r7
 680 00aa 07D2     		bcs	.L57
 701:Generated_Source\PSoC5/USB_std.c ****                         }
 681              		.loc 1 701 0
 682 00ac 04EB440E 		add	lr, r4, r4, lsl #1
 683 00b0 4FEA8E02 		lsl	r2, lr, #2
 684 00b4 DFF8F4E0 		ldr	lr, .L71
 685 00b8 7244     		add	r2, r2, lr
 686 00ba 1781     		strh	r7, [r2, #8]	@ movhi
 687              	.L57:
 705:Generated_Source\PSoC5/USB_std.c ****                         {                            
 688              		.loc 1 705 0
 689 00bc 0A78     		ldrb	r2, [r1]	@ zero_extendqisi2
 690 00be 3C4F     		ldr	r7, .L71+4
 691 00c0 BA5C     		ldrb	r2, [r7, r2]	@ zero_extendqisi2
 692 00c2 D2B2     		uxtb	r2, r2
 693 00c4 4F78     		ldrb	r7, [r1, #1]	@ zero_extendqisi2
 694 00c6 BA42     		cmp	r2, r7
 695 00c8 3BD1     		bne	.L56
 707:Generated_Source\PSoC5/USB_std.c ****                             USB_EP[i].attrib = pEP->attributes;
 696              		.loc 1 707 0
 697 00ca 91F802C0 		ldrb	ip, [r1, #2]	@ zero_extendqisi2
 698 00ce DFF8DCE0 		ldr	lr, .L71
 699 00d2 7200     		lsls	r2, r6, #1
 700 00d4 3244     		add	r2, r2, r6
 701 00d6 9700     		lsls	r7, r2, #2
 702 00d8 0EEB0702 		add	r2, lr, r7
 703 00dc 82F804C0 		strb	ip, [r2, #4]
ARM GAS  C:\Users\CHANTI~1\AppData\Local\Temp\cckZxxwg.s 			page 33


 708:Generated_Source\PSoC5/USB_std.c ****                             
 704              		.loc 1 708 0
 705 00e0 CA78     		ldrb	r2, [r1, #3]	@ zero_extendqisi2
 706 00e2 0EF80720 		strb	r2, [lr, r7]
 710:Generated_Source\PSoC5/USB_std.c ****                             
 707              		.loc 1 710 0
 708 00e6 CA78     		ldrb	r2, [r1, #3]	@ zero_extendqisi2
 709 00e8 02F00302 		and	r2, r2, #3
 710              	.LVL58:
 712:Generated_Source\PSoC5/USB_std.c ****                             {
 711              		.loc 1 712 0
 712 00ec 91F90270 		ldrsb	r7, [r1, #2]
 713 00f0 002F     		cmp	r7, #0
 714 00f2 13DA     		bge	.L58
 715:Generated_Source\PSoC5/USB_std.c ****                                 USB_EP[i].apiEpState = USB_EVENT_PENDING;
 715              		.loc 1 715 0
 716 00f4 012A     		cmp	r2, #1
 717 00f6 02D1     		bne	.L68
 718 00f8 4FF00708 		mov	r8, #7
 719 00fc 01E0     		b	.L59
 720              	.L68:
 721 00fe 4FF00D08 		mov	r8, #13
 722              	.L59:
 715:Generated_Source\PSoC5/USB_std.c ****                                 USB_EP[i].apiEpState = USB_EVENT_PENDING;
 723              		.loc 1 715 0 is_stmt 0 discriminator 4
 724 0102 DFF8A8E0 		ldr	lr, .L71
 725 0106 7200     		lsls	r2, r6, #1
 726              	.LVL59:
 727 0108 02EB060C 		add	ip, r2, r6
 728 010c 4FEA8C07 		lsl	r7, ip, #2
 729 0110 7744     		add	r7, r7, lr
 730 0112 87F80580 		strb	r8, [r7, #5]
 731              	.LVL60:
 716:Generated_Source\PSoC5/USB_std.c ****                                 
 732              		.loc 1 716 0 is_stmt 1 discriminator 4
 733 0116 0126     		movs	r6, #1
 734 0118 7E70     		strb	r6, [r7, #1]
 735 011a 12E0     		b	.L56
 736              	.LVL61:
 737              	.L58:
 728:Generated_Source\PSoC5/USB_std.c ****                                 USB_EP[i].apiEpState = USB_NO_EVENT_PENDING;
 738              		.loc 1 728 0
 739 011c 012A     		cmp	r2, #1
 740 011e 02D1     		bne	.L69
 741 0120 4FF00508 		mov	r8, #5
 742 0124 01E0     		b	.L60
 743              	.L69:
 744 0126 4FF00908 		mov	r8, #9
 745              	.L60:
 728:Generated_Source\PSoC5/USB_std.c ****                                 USB_EP[i].apiEpState = USB_NO_EVENT_PENDING;
 746              		.loc 1 728 0 is_stmt 0 discriminator 4
 747 012a DFF880E0 		ldr	lr, .L71
 748 012e 7200     		lsls	r2, r6, #1
 749              	.LVL62:
 750 0130 02EB060C 		add	ip, r2, r6
 751 0134 4FEA8C07 		lsl	r7, ip, #2
 752 0138 7744     		add	r7, r7, lr
ARM GAS  C:\Users\CHANTI~1\AppData\Local\Temp\cckZxxwg.s 			page 34


 753 013a 87F80580 		strb	r8, [r7, #5]
 754              	.LVL63:
 729:Generated_Source\PSoC5/USB_std.c ****                                 
 755              		.loc 1 729 0 is_stmt 1 discriminator 4
 756 013e 0026     		movs	r6, #0
 757 0140 7E70     		strb	r6, [r7, #1]
 758              	.L56:
 752:Generated_Source\PSoC5/USB_std.c ****                 }
 759              		.loc 1 752 0 discriminator 2
 760 0142 0831     		adds	r1, r1, #8
 761              	.LVL64:
 694:Generated_Source\PSoC5/USB_std.c ****                 {
 762              		.loc 1 694 0 discriminator 2
 763 0144 0133     		adds	r3, r3, #1
 764              	.LVL65:
 765 0146 DBB2     		uxtb	r3, r3
 766              	.LVL66:
 767              	.L55:
 694:Generated_Source\PSoC5/USB_std.c ****                 {
 768              		.loc 1 694 0 is_stmt 0 discriminator 1
 769 0148 AB42     		cmp	r3, r5
 770 014a 9FD3     		bcc	.L61
 687:Generated_Source\PSoC5/USB_std.c ****             {
 771              		.loc 1 687 0 is_stmt 1 discriminator 2
 772 014c 0134     		adds	r4, r4, #1
 773              	.LVL67:
 774 014e E4B2     		uxtb	r4, r4
 775              	.LVL68:
 776              	.L54:
 687:Generated_Source\PSoC5/USB_std.c ****             {
 777              		.loc 1 687 0 is_stmt 0 discriminator 1
 778 0150 082C     		cmp	r4, #8
 779 0152 98D9     		bls	.L62
 762:Generated_Source\PSoC5/USB_std.c ****         for (i = 0u; i < ep; i++)
 780              		.loc 1 762 0 is_stmt 1
 781 0154 C068     		ldr	r0, [r0, #12]
 782              	.LVL69:
 763:Generated_Source\PSoC5/USB_std.c ****         {
 783              		.loc 1 763 0
 784 0156 0022     		movs	r2, #0
 785 0158 0CE0     		b	.L63
 786              	.LVL70:
 787              	.L64:
 766:Generated_Source\PSoC5/USB_std.c ****             pEP = &pEP[1u];
 788              		.loc 1 766 0 discriminator 3
 789 015a 8378     		ldrb	r3, [r0, #2]	@ zero_extendqisi2
 790 015c 03F07F03 		and	r3, r3, #127
 791 0160 10F8084B 		ldrb	r4, [r0], #8	@ zero_extendqisi2
 792              	.LVL71:
 793 0164 03EB4303 		add	r3, r3, r3, lsl #1
 794 0168 9900     		lsls	r1, r3, #2
 795 016a 104B     		ldr	r3, .L71
 796 016c 1944     		add	r1, r1, r3
 797 016e 8C72     		strb	r4, [r1, #10]
 798              	.LVL72:
 763:Generated_Source\PSoC5/USB_std.c ****         {
 799              		.loc 1 763 0 discriminator 3
ARM GAS  C:\Users\CHANTI~1\AppData\Local\Temp\cckZxxwg.s 			page 35


 800 0170 0132     		adds	r2, r2, #1
 801              	.LVL73:
 802 0172 D2B2     		uxtb	r2, r2
 803              	.LVL74:
 804              	.L63:
 763:Generated_Source\PSoC5/USB_std.c ****         {
 805              		.loc 1 763 0 is_stmt 0 discriminator 1
 806 0174 AA42     		cmp	r2, r5
 807 0176 F0D3     		bcc	.L64
 771:Generated_Source\PSoC5/USB_std.c ****         
 808              		.loc 1 771 0 is_stmt 1
 809 0178 FFF7FEFF 		bl	USB_GetInterfaceClassTablePtr
 810              	.LVL75:
 811 017c 104B     		ldr	r3, .L71+20
 812 017e 1860     		str	r0, [r3]
 813              	.LVL76:
 775:Generated_Source\PSoC5/USB_std.c ****         for (ep = USB_EP1; ep < USB_MAX_EP; ++ep)
 814              		.loc 1 775 0
 815 0180 0021     		movs	r1, #0
 776:Generated_Source\PSoC5/USB_std.c ****         {
 816              		.loc 1 776 0
 817 0182 0123     		movs	r3, #1
 818 0184 0BE0     		b	.L65
 819              	.LVL77:
 820              	.L66:
 778:Generated_Source\PSoC5/USB_std.c ****             buffCount += USB_EP[ep].bufferSize;
 821              		.loc 1 778 0 discriminator 3
 822 0186 094D     		ldr	r5, .L71
 823 0188 5A00     		lsls	r2, r3, #1
 824 018a D018     		adds	r0, r2, r3
 825 018c 8400     		lsls	r4, r0, #2
 826 018e 2C44     		add	r4, r4, r5
 827 0190 E180     		strh	r1, [r4, #6]	@ movhi
 779:Generated_Source\PSoC5/USB_std.c ****             
 828              		.loc 1 779 0 discriminator 3
 829 0192 2289     		ldrh	r2, [r4, #8]
 830 0194 92B2     		uxth	r2, r2
 831 0196 1144     		add	r1, r1, r2
 832              	.LVL78:
 833 0198 89B2     		uxth	r1, r1
 834              	.LVL79:
 776:Generated_Source\PSoC5/USB_std.c ****         {
 835              		.loc 1 776 0 discriminator 3
 836 019a 0133     		adds	r3, r3, #1
 837              	.LVL80:
 838 019c DBB2     		uxtb	r3, r3
 839              	.LVL81:
 840              	.L65:
 776:Generated_Source\PSoC5/USB_std.c ****         {
 841              		.loc 1 776 0 is_stmt 0 discriminator 1
 842 019e 082B     		cmp	r3, #8
 843 01a0 F1D9     		bls	.L66
 789:Generated_Source\PSoC5/USB_std.c ****     }
 844              		.loc 1 789 0 is_stmt 1
 845 01a2 FFF7FEFF 		bl	USB_ConfigReg
 846              	.LVL82:
 847              	.L45:
ARM GAS  C:\Users\CHANTI~1\AppData\Local\Temp\cckZxxwg.s 			page 36


 848 01a6 BDE8F081 		pop	{r4, r5, r6, r7, r8, pc}
 849              	.L72:
 850 01aa 00BF     		.align	2
 851              	.L71:
 852 01ac 00000000 		.word	USB_EP
 853 01b0 00000000 		.word	USB_interfaceSetting
 854 01b4 00000000 		.word	USB_interfaceSettingLast
 855 01b8 00000000 		.word	USB_configuration
 856 01bc 00000000 		.word	USB_deviceStatus
 857 01c0 00000000 		.word	USB_interfaceClass
 858              		.cfi_endproc
 859              	.LFE3:
 860              		.size	USB_Config, .-USB_Config
 861              		.section	.text.USB_TerminateEP,"ax",%progbits
 862              		.align	2
 863              		.global	USB_TerminateEP
 864              		.thumb
 865              		.thumb_func
 866              		.type	USB_TerminateEP, %function
 867              	USB_TerminateEP:
 868              	.LFB8:
1053:Generated_Source\PSoC5/USB_std.c **** 
1054:Generated_Source\PSoC5/USB_std.c **** 
1055:Generated_Source\PSoC5/USB_std.c **** /*******************************************************************************
1056:Generated_Source\PSoC5/USB_std.c **** * Function Name: USB_TerminateEP
1057:Generated_Source\PSoC5/USB_std.c **** ****************************************************************************//**
1058:Generated_Source\PSoC5/USB_std.c **** *
1059:Generated_Source\PSoC5/USB_std.c **** *  This function terminates the specified USBFS endpoint.
1060:Generated_Source\PSoC5/USB_std.c **** *  This function should be used before endpoint reconfiguration.
1061:Generated_Source\PSoC5/USB_std.c **** *
1062:Generated_Source\PSoC5/USB_std.c **** *  \param ep Contains the data endpoint number.
1063:Generated_Source\PSoC5/USB_std.c **** *
1064:Generated_Source\PSoC5/USB_std.c **** *  \reentrant
1065:Generated_Source\PSoC5/USB_std.c **** *  No.
1066:Generated_Source\PSoC5/USB_std.c **** *
1067:Generated_Source\PSoC5/USB_std.c **** * \sideeffect
1068:Generated_Source\PSoC5/USB_std.c **** * 
1069:Generated_Source\PSoC5/USB_std.c **** * The device responds with a NAK for any transactions on the selected endpoint.
1070:Generated_Source\PSoC5/USB_std.c **** *   
1071:Generated_Source\PSoC5/USB_std.c **** *******************************************************************************/
1072:Generated_Source\PSoC5/USB_std.c **** void USB_TerminateEP(uint8 epNumber) 
1073:Generated_Source\PSoC5/USB_std.c **** {
 869              		.loc 1 1073 0
 870              		.cfi_startproc
 871              		@ args = 0, pretend = 0, frame = 0
 872              		@ frame_needed = 0, uses_anonymous_args = 0
 873              		@ link register save eliminated.
 874              	.LVL83:
1074:Generated_Source\PSoC5/USB_std.c ****     /* Get endpoint number */
1075:Generated_Source\PSoC5/USB_std.c ****     epNumber &= USB_DIR_UNUSED;
 875              		.loc 1 1075 0
 876 0000 00F07F00 		and	r0, r0, #127
 877              	.LVL84:
1076:Generated_Source\PSoC5/USB_std.c **** 
1077:Generated_Source\PSoC5/USB_std.c ****     if ((epNumber > USB_EP0) && (epNumber < USB_MAX_EP))
 878              		.loc 1 1077 0
 879 0004 431E     		subs	r3, r0, #1
ARM GAS  C:\Users\CHANTI~1\AppData\Local\Temp\cckZxxwg.s 			page 37


 880 0006 DBB2     		uxtb	r3, r3
 881 0008 072B     		cmp	r3, #7
 882 000a 19D8     		bhi	.L73
1078:Generated_Source\PSoC5/USB_std.c ****     {
1079:Generated_Source\PSoC5/USB_std.c ****         /* Set the endpoint Halt */
1080:Generated_Source\PSoC5/USB_std.c ****         USB_EP[epNumber].hwEpState |= USB_ENDPOINT_STATUS_HALT;
 883              		.loc 1 1080 0
 884 000c 4200     		lsls	r2, r0, #1
 885 000e 0244     		add	r2, r2, r0
 886 0010 9300     		lsls	r3, r2, #2
 887 0012 0C4A     		ldr	r2, .L76
 888 0014 1344     		add	r3, r3, r2
 889 0016 9A78     		ldrb	r2, [r3, #2]	@ zero_extendqisi2
 890 0018 42F00102 		orr	r2, r2, #1
 891 001c 9A70     		strb	r2, [r3, #2]
1081:Generated_Source\PSoC5/USB_std.c **** 
1082:Generated_Source\PSoC5/USB_std.c ****         /* Clear the data toggle */
1083:Generated_Source\PSoC5/USB_std.c ****         USB_EP[epNumber].epToggle = 0u;
 892              		.loc 1 1083 0
 893 001e 0022     		movs	r2, #0
 894 0020 DA70     		strb	r2, [r3, #3]
1084:Generated_Source\PSoC5/USB_std.c ****         USB_EP[epNumber].apiEpState = USB_NO_EVENT_ALLOWED;
 895              		.loc 1 1084 0
 896 0022 0222     		movs	r2, #2
 897 0024 5A70     		strb	r2, [r3, #1]
1085:Generated_Source\PSoC5/USB_std.c **** 
1086:Generated_Source\PSoC5/USB_std.c ****         if ((USB_EP[epNumber].addr & USB_DIR_IN) != 0u)
 898              		.loc 1 1086 0
 899 0026 1B79     		ldrb	r3, [r3, #4]	@ zero_extendqisi2
 900 0028 13F0800F 		tst	r3, #128
 901 002c 04D0     		beq	.L75
1087:Generated_Source\PSoC5/USB_std.c ****         {   
1088:Generated_Source\PSoC5/USB_std.c ****             /* IN Endpoint */
1089:Generated_Source\PSoC5/USB_std.c ****             USB_SIE_EP_BASE.sieEp[epNumber].epCr0 = USB_MODE_NAK_IN;
 902              		.loc 1 1089 0
 903 002e 0001     		lsls	r0, r0, #4
 904              	.LVL85:
 905 0030 054B     		ldr	r3, .L76+4
 906 0032 0C22     		movs	r2, #12
 907 0034 1A54     		strb	r2, [r3, r0]
 908 0036 7047     		bx	lr
 909              	.LVL86:
 910              	.L75:
1090:Generated_Source\PSoC5/USB_std.c ****         }
1091:Generated_Source\PSoC5/USB_std.c ****         else
1092:Generated_Source\PSoC5/USB_std.c ****         {
1093:Generated_Source\PSoC5/USB_std.c ****             /* OUT Endpoint */
1094:Generated_Source\PSoC5/USB_std.c ****             USB_SIE_EP_BASE.sieEp[epNumber].epCr0 = USB_MODE_NAK_OUT;
 911              		.loc 1 1094 0
 912 0038 0001     		lsls	r0, r0, #4
 913              	.LVL87:
 914 003a 034B     		ldr	r3, .L76+4
 915 003c 0822     		movs	r2, #8
 916 003e 1A54     		strb	r2, [r3, r0]
 917              	.L73:
 918 0040 7047     		bx	lr
 919              	.L77:
ARM GAS  C:\Users\CHANTI~1\AppData\Local\Temp\cckZxxwg.s 			page 38


 920 0042 00BF     		.align	2
 921              	.L76:
 922 0044 00000000 		.word	USB_EP
 923 0048 FE5F0040 		.word	1073766398
 924              		.cfi_endproc
 925              	.LFE8:
 926              		.size	USB_TerminateEP, .-USB_TerminateEP
 927              		.section	.text.USB_SetEndpointHalt,"ax",%progbits
 928              		.align	2
 929              		.global	USB_SetEndpointHalt
 930              		.thumb
 931              		.thumb_func
 932              		.type	USB_SetEndpointHalt, %function
 933              	USB_SetEndpointHalt:
 934              	.LFB9:
1095:Generated_Source\PSoC5/USB_std.c ****         }
1096:Generated_Source\PSoC5/USB_std.c ****     }
1097:Generated_Source\PSoC5/USB_std.c **** }
1098:Generated_Source\PSoC5/USB_std.c **** 
1099:Generated_Source\PSoC5/USB_std.c **** 
1100:Generated_Source\PSoC5/USB_std.c **** /*******************************************************************************
1101:Generated_Source\PSoC5/USB_std.c **** * Function Name: USB_SetEndpointHalt
1102:Generated_Source\PSoC5/USB_std.c **** ****************************************************************************//**
1103:Generated_Source\PSoC5/USB_std.c **** *
1104:Generated_Source\PSoC5/USB_std.c **** *  This routine handles set endpoint halt.
1105:Generated_Source\PSoC5/USB_std.c **** *
1106:Generated_Source\PSoC5/USB_std.c **** * \return
1107:Generated_Source\PSoC5/USB_std.c **** *  requestHandled.
1108:Generated_Source\PSoC5/USB_std.c **** *
1109:Generated_Source\PSoC5/USB_std.c **** * \reentrant
1110:Generated_Source\PSoC5/USB_std.c **** *  No.
1111:Generated_Source\PSoC5/USB_std.c **** *
1112:Generated_Source\PSoC5/USB_std.c **** *******************************************************************************/
1113:Generated_Source\PSoC5/USB_std.c **** uint8 USB_SetEndpointHalt(void) 
1114:Generated_Source\PSoC5/USB_std.c **** {
 935              		.loc 1 1114 0
 936              		.cfi_startproc
 937              		@ args = 0, pretend = 0, frame = 0
 938              		@ frame_needed = 0, uses_anonymous_args = 0
 939 0000 08B5     		push	{r3, lr}
 940              		.cfi_def_cfa_offset 8
 941              		.cfi_offset 3, -8
 942              		.cfi_offset 14, -4
 943              	.LVL88:
1115:Generated_Source\PSoC5/USB_std.c ****     uint8 requestHandled = USB_FALSE;
1116:Generated_Source\PSoC5/USB_std.c ****     uint8 ep;
1117:Generated_Source\PSoC5/USB_std.c ****     
1118:Generated_Source\PSoC5/USB_std.c ****     /* Set endpoint halt */
1119:Generated_Source\PSoC5/USB_std.c ****     ep = USB_wIndexLoReg & USB_DIR_UNUSED;
 944              		.loc 1 1119 0
 945 0002 154B     		ldr	r3, .L84
 946 0004 1B79     		ldrb	r3, [r3, #4]	@ zero_extendqisi2
 947 0006 03F07F03 		and	r3, r3, #127
 948              	.LVL89:
1120:Generated_Source\PSoC5/USB_std.c **** 
1121:Generated_Source\PSoC5/USB_std.c ****     if ((ep > USB_EP0) && (ep < USB_MAX_EP))
 949              		.loc 1 1121 0
ARM GAS  C:\Users\CHANTI~1\AppData\Local\Temp\cckZxxwg.s 			page 39


 950 000a 5A1E     		subs	r2, r3, #1
 951 000c D2B2     		uxtb	r2, r2
 952 000e 072A     		cmp	r2, #7
 953 0010 20D8     		bhi	.L82
1122:Generated_Source\PSoC5/USB_std.c ****     {
1123:Generated_Source\PSoC5/USB_std.c ****         /* Set the endpoint Halt */
1124:Generated_Source\PSoC5/USB_std.c ****         USB_EP[ep].hwEpState |= (USB_ENDPOINT_STATUS_HALT);
 954              		.loc 1 1124 0
 955 0012 5900     		lsls	r1, r3, #1
 956 0014 1944     		add	r1, r1, r3
 957 0016 8A00     		lsls	r2, r1, #2
 958 0018 1049     		ldr	r1, .L84+4
 959 001a 0A44     		add	r2, r2, r1
 960 001c 9178     		ldrb	r1, [r2, #2]	@ zero_extendqisi2
 961 001e 41F00101 		orr	r1, r1, #1
 962 0022 9170     		strb	r1, [r2, #2]
1125:Generated_Source\PSoC5/USB_std.c **** 
1126:Generated_Source\PSoC5/USB_std.c ****         /* Clear the data toggle */
1127:Generated_Source\PSoC5/USB_std.c ****         USB_EP[ep].epToggle = 0u;
 963              		.loc 1 1127 0
 964 0024 0021     		movs	r1, #0
 965 0026 D170     		strb	r1, [r2, #3]
1128:Generated_Source\PSoC5/USB_std.c ****         USB_EP[ep].apiEpState |= USB_NO_EVENT_ALLOWED;
 966              		.loc 1 1128 0
 967 0028 5178     		ldrb	r1, [r2, #1]	@ zero_extendqisi2
 968 002a 41F00201 		orr	r1, r1, #2
 969 002e 5170     		strb	r1, [r2, #1]
1129:Generated_Source\PSoC5/USB_std.c **** 
1130:Generated_Source\PSoC5/USB_std.c ****         if ((USB_EP[ep].addr & USB_DIR_IN) != 0u)
 970              		.loc 1 1130 0
 971 0030 1279     		ldrb	r2, [r2, #4]	@ zero_extendqisi2
 972 0032 12F0800F 		tst	r2, #128
 973 0036 05D0     		beq	.L80
1131:Generated_Source\PSoC5/USB_std.c ****         {
1132:Generated_Source\PSoC5/USB_std.c ****             /* IN Endpoint */
1133:Generated_Source\PSoC5/USB_std.c ****             USB_SIE_EP_BASE.sieEp[ep].epCr0 = (USB_MODE_STALL_DATA_EP | 
 974              		.loc 1 1133 0
 975 0038 1B01     		lsls	r3, r3, #4
 976              	.LVL90:
 977 003a 094A     		ldr	r2, .L84+8
 978 003c 1A44     		add	r2, r2, r3
 979 003e 8D23     		movs	r3, #141
 980 0040 9370     		strb	r3, [r2, #2]
 981 0042 04E0     		b	.L81
 982              	.LVL91:
 983              	.L80:
1134:Generated_Source\PSoC5/USB_std.c ****                                                             USB_MODE_ACK_IN);
1135:Generated_Source\PSoC5/USB_std.c ****         }
1136:Generated_Source\PSoC5/USB_std.c ****         else
1137:Generated_Source\PSoC5/USB_std.c ****         {
1138:Generated_Source\PSoC5/USB_std.c ****             /* OUT Endpoint */
1139:Generated_Source\PSoC5/USB_std.c ****             USB_SIE_EP_BASE.sieEp[ep].epCr0 = (USB_MODE_STALL_DATA_EP | 
 984              		.loc 1 1139 0
 985 0044 1B01     		lsls	r3, r3, #4
 986              	.LVL92:
 987 0046 064A     		ldr	r2, .L84+8
 988 0048 1A44     		add	r2, r2, r3
ARM GAS  C:\Users\CHANTI~1\AppData\Local\Temp\cckZxxwg.s 			page 40


 989 004a 8923     		movs	r3, #137
 990 004c 9370     		strb	r3, [r2, #2]
 991              	.L81:
1140:Generated_Source\PSoC5/USB_std.c ****                                                             USB_MODE_ACK_OUT);
1141:Generated_Source\PSoC5/USB_std.c ****         }
1142:Generated_Source\PSoC5/USB_std.c ****         requestHandled = USB_InitNoDataControlTransfer();
 992              		.loc 1 1142 0
 993 004e FFF7FEFF 		bl	USB_InitNoDataControlTransfer
 994              	.LVL93:
 995 0052 08BD     		pop	{r3, pc}
 996              	.LVL94:
 997              	.L82:
1115:Generated_Source\PSoC5/USB_std.c ****     uint8 ep;
 998              		.loc 1 1115 0
 999 0054 0020     		movs	r0, #0
 1000              	.LVL95:
1143:Generated_Source\PSoC5/USB_std.c ****     }
1144:Generated_Source\PSoC5/USB_std.c **** 
1145:Generated_Source\PSoC5/USB_std.c ****     return (requestHandled);
1146:Generated_Source\PSoC5/USB_std.c **** }
 1001              		.loc 1 1146 0
 1002 0056 08BD     		pop	{r3, pc}
 1003              	.LVL96:
 1004              	.L85:
 1005              		.align	2
 1006              	.L84:
 1007 0058 00600040 		.word	1073766400
 1008 005c 00000000 		.word	USB_EP
 1009 0060 FC5F0040 		.word	1073766396
 1010              		.cfi_endproc
 1011              	.LFE9:
 1012              		.size	USB_SetEndpointHalt, .-USB_SetEndpointHalt
 1013              		.section	.text.USB_ClearEndpointHalt,"ax",%progbits
 1014              		.align	2
 1015              		.global	USB_ClearEndpointHalt
 1016              		.thumb
 1017              		.thumb_func
 1018              		.type	USB_ClearEndpointHalt, %function
 1019              	USB_ClearEndpointHalt:
 1020              	.LFB10:
1147:Generated_Source\PSoC5/USB_std.c **** 
1148:Generated_Source\PSoC5/USB_std.c **** 
1149:Generated_Source\PSoC5/USB_std.c **** /*******************************************************************************
1150:Generated_Source\PSoC5/USB_std.c **** * Function Name: USB_ClearEndpointHalt
1151:Generated_Source\PSoC5/USB_std.c **** ****************************************************************************//**
1152:Generated_Source\PSoC5/USB_std.c **** *
1153:Generated_Source\PSoC5/USB_std.c **** *  This routine handles clear endpoint halt.
1154:Generated_Source\PSoC5/USB_std.c **** *
1155:Generated_Source\PSoC5/USB_std.c **** * \return
1156:Generated_Source\PSoC5/USB_std.c **** *  requestHandled.
1157:Generated_Source\PSoC5/USB_std.c **** *
1158:Generated_Source\PSoC5/USB_std.c **** * \reentrant
1159:Generated_Source\PSoC5/USB_std.c **** *  No.
1160:Generated_Source\PSoC5/USB_std.c **** *
1161:Generated_Source\PSoC5/USB_std.c **** *******************************************************************************/
1162:Generated_Source\PSoC5/USB_std.c **** uint8 USB_ClearEndpointHalt(void) 
1163:Generated_Source\PSoC5/USB_std.c **** {
ARM GAS  C:\Users\CHANTI~1\AppData\Local\Temp\cckZxxwg.s 			page 41


 1021              		.loc 1 1163 0
 1022              		.cfi_startproc
 1023              		@ args = 0, pretend = 0, frame = 0
 1024              		@ frame_needed = 0, uses_anonymous_args = 0
 1025              	.LVL97:
1164:Generated_Source\PSoC5/USB_std.c ****     uint8 requestHandled = USB_FALSE;
1165:Generated_Source\PSoC5/USB_std.c ****     uint8 ep;
1166:Generated_Source\PSoC5/USB_std.c **** 
1167:Generated_Source\PSoC5/USB_std.c ****     /* Clear endpoint halt */
1168:Generated_Source\PSoC5/USB_std.c ****     ep = USB_wIndexLoReg & USB_DIR_UNUSED;
 1026              		.loc 1 1168 0
 1027 0000 274B     		ldr	r3, .L95
 1028 0002 1B79     		ldrb	r3, [r3, #4]	@ zero_extendqisi2
 1029 0004 03F07F03 		and	r3, r3, #127
 1030              	.LVL98:
1169:Generated_Source\PSoC5/USB_std.c **** 
1170:Generated_Source\PSoC5/USB_std.c ****     if ((ep > USB_EP0) && (ep < USB_MAX_EP))
 1031              		.loc 1 1170 0
 1032 0008 5A1E     		subs	r2, r3, #1
 1033 000a D2B2     		uxtb	r2, r2
 1034 000c 072A     		cmp	r2, #7
 1035 000e 44D8     		bhi	.L92
1163:Generated_Source\PSoC5/USB_std.c ****     uint8 requestHandled = USB_FALSE;
 1036              		.loc 1 1163 0
 1037 0010 10B5     		push	{r4, lr}
 1038              		.cfi_def_cfa_offset 8
 1039              		.cfi_offset 4, -8
 1040              		.cfi_offset 14, -4
1171:Generated_Source\PSoC5/USB_std.c ****     {
1172:Generated_Source\PSoC5/USB_std.c ****         /* Clear the endpoint Halt */
1173:Generated_Source\PSoC5/USB_std.c ****         USB_EP[ep].hwEpState &= (uint8) ~USB_ENDPOINT_STATUS_HALT;
 1041              		.loc 1 1173 0
 1042 0012 5900     		lsls	r1, r3, #1
 1043 0014 1944     		add	r1, r1, r3
 1044 0016 8A00     		lsls	r2, r1, #2
 1045 0018 2249     		ldr	r1, .L95+4
 1046 001a 0A44     		add	r2, r2, r1
 1047 001c 9178     		ldrb	r1, [r2, #2]	@ zero_extendqisi2
 1048 001e 01F0FE01 		and	r1, r1, #254
 1049 0022 9170     		strb	r1, [r2, #2]
1174:Generated_Source\PSoC5/USB_std.c **** 
1175:Generated_Source\PSoC5/USB_std.c ****         /* Clear the data toggle */
1176:Generated_Source\PSoC5/USB_std.c ****         USB_EP[ep].epToggle = 0u;
 1050              		.loc 1 1176 0
 1051 0024 0021     		movs	r1, #0
 1052 0026 D170     		strb	r1, [r2, #3]
1177:Generated_Source\PSoC5/USB_std.c ****         
1178:Generated_Source\PSoC5/USB_std.c ****         /* Clear toggle bit for already armed packet */
1179:Generated_Source\PSoC5/USB_std.c ****         USB_SIE_EP_BASE.sieEp[ep].epCnt0 &= (uint8) ~(uint8)USB_EPX_CNT_DATA_TOGGLE;
 1053              		.loc 1 1179 0
 1054 0028 1F4C     		ldr	r4, .L95+8
 1055 002a 1801     		lsls	r0, r3, #4
 1056 002c 215C     		ldrb	r1, [r4, r0]	@ zero_extendqisi2
 1057 002e 01F07F01 		and	r1, r1, #127
 1058 0032 2154     		strb	r1, [r4, r0]
1180:Generated_Source\PSoC5/USB_std.c ****         
1181:Generated_Source\PSoC5/USB_std.c ****         /* Return API State as it was defined before */
ARM GAS  C:\Users\CHANTI~1\AppData\Local\Temp\cckZxxwg.s 			page 42


1182:Generated_Source\PSoC5/USB_std.c ****         USB_EP[ep].apiEpState &= (uint8) ~USB_NO_EVENT_ALLOWED;
 1059              		.loc 1 1182 0
 1060 0034 5178     		ldrb	r1, [r2, #1]	@ zero_extendqisi2
 1061 0036 01F0FD01 		and	r1, r1, #253
 1062 003a 5170     		strb	r1, [r2, #1]
1183:Generated_Source\PSoC5/USB_std.c **** 
1184:Generated_Source\PSoC5/USB_std.c ****         if ((USB_EP[ep].addr & USB_DIR_IN) != 0u)
 1063              		.loc 1 1184 0
 1064 003c 1279     		ldrb	r2, [r2, #4]	@ zero_extendqisi2
 1065 003e 12F0800F 		tst	r2, #128
 1066 0042 13D0     		beq	.L88
1185:Generated_Source\PSoC5/USB_std.c ****         {
1186:Generated_Source\PSoC5/USB_std.c ****             /* IN Endpoint */
1187:Generated_Source\PSoC5/USB_std.c ****             if(USB_EP[ep].apiEpState == USB_IN_BUFFER_EMPTY)
 1067              		.loc 1 1187 0
 1068 0044 03EB4301 		add	r1, r3, r3, lsl #1
 1069 0048 8A00     		lsls	r2, r1, #2
 1070 004a 1649     		ldr	r1, .L95+4
 1071 004c 0A44     		add	r2, r2, r1
 1072 004e 5278     		ldrb	r2, [r2, #1]	@ zero_extendqisi2
 1073 0050 D2B2     		uxtb	r2, r2
 1074 0052 012A     		cmp	r2, #1
 1075 0054 04D1     		bne	.L89
1188:Generated_Source\PSoC5/USB_std.c ****             {       
1189:Generated_Source\PSoC5/USB_std.c ****                 /* Wait for next packet from application */
1190:Generated_Source\PSoC5/USB_std.c ****                 USB_SIE_EP_BASE.sieEp[ep].epCr0 = USB_MODE_NAK_IN;
 1076              		.loc 1 1190 0
 1077 0056 2246     		mov	r2, r4
 1078 0058 0244     		add	r2, r2, r0
 1079 005a 0C23     		movs	r3, #12
 1080              	.LVL99:
 1081 005c 9370     		strb	r3, [r2, #2]
 1082 005e 19E0     		b	.L90
 1083              	.LVL100:
 1084              	.L89:
1191:Generated_Source\PSoC5/USB_std.c ****             }
1192:Generated_Source\PSoC5/USB_std.c ****             else    /* Continue armed transfer */
1193:Generated_Source\PSoC5/USB_std.c ****             {
1194:Generated_Source\PSoC5/USB_std.c ****                 USB_SIE_EP_BASE.sieEp[ep].epCr0 = USB_MODE_ACK_IN;
 1085              		.loc 1 1194 0
 1086 0060 1B01     		lsls	r3, r3, #4
 1087              	.LVL101:
 1088 0062 114A     		ldr	r2, .L95+8
 1089 0064 1A44     		add	r2, r2, r3
 1090 0066 0D23     		movs	r3, #13
 1091 0068 9370     		strb	r3, [r2, #2]
 1092 006a 13E0     		b	.L90
 1093              	.LVL102:
 1094              	.L88:
1195:Generated_Source\PSoC5/USB_std.c ****             }
1196:Generated_Source\PSoC5/USB_std.c ****         }
1197:Generated_Source\PSoC5/USB_std.c ****         else
1198:Generated_Source\PSoC5/USB_std.c ****         {
1199:Generated_Source\PSoC5/USB_std.c ****             /* OUT Endpoint */
1200:Generated_Source\PSoC5/USB_std.c ****             if (USB_EP[ep].apiEpState == USB_OUT_BUFFER_FULL)
 1095              		.loc 1 1200 0
 1096 006c 03EB4301 		add	r1, r3, r3, lsl #1
ARM GAS  C:\Users\CHANTI~1\AppData\Local\Temp\cckZxxwg.s 			page 43


 1097 0070 8A00     		lsls	r2, r1, #2
 1098 0072 0C49     		ldr	r1, .L95+4
 1099 0074 0A44     		add	r2, r2, r1
 1100 0076 5278     		ldrb	r2, [r2, #1]	@ zero_extendqisi2
 1101 0078 D2B2     		uxtb	r2, r2
 1102 007a 012A     		cmp	r2, #1
 1103 007c 05D1     		bne	.L91
1201:Generated_Source\PSoC5/USB_std.c ****             {       
1202:Generated_Source\PSoC5/USB_std.c ****                 /* Allow application to read full buffer */
1203:Generated_Source\PSoC5/USB_std.c ****                 USB_SIE_EP_BASE.sieEp[ep].epCr0 = USB_MODE_NAK_OUT;
 1104              		.loc 1 1203 0
 1105 007e 1B01     		lsls	r3, r3, #4
 1106              	.LVL103:
 1107 0080 094A     		ldr	r2, .L95+8
 1108 0082 1A44     		add	r2, r2, r3
 1109 0084 0823     		movs	r3, #8
 1110 0086 9370     		strb	r3, [r2, #2]
 1111 0088 04E0     		b	.L90
 1112              	.LVL104:
 1113              	.L91:
1204:Generated_Source\PSoC5/USB_std.c ****             }
1205:Generated_Source\PSoC5/USB_std.c ****             else    /* Mark endpoint as empty, so it will be reloaded */
1206:Generated_Source\PSoC5/USB_std.c ****             {
1207:Generated_Source\PSoC5/USB_std.c ****                 USB_SIE_EP_BASE.sieEp[ep].epCr0 = USB_MODE_ACK_OUT;
 1114              		.loc 1 1207 0
 1115 008a 1B01     		lsls	r3, r3, #4
 1116              	.LVL105:
 1117 008c 064A     		ldr	r2, .L95+8
 1118 008e 1A44     		add	r2, r2, r3
 1119 0090 0923     		movs	r3, #9
 1120 0092 9370     		strb	r3, [r2, #2]
 1121              	.L90:
1208:Generated_Source\PSoC5/USB_std.c ****             }
1209:Generated_Source\PSoC5/USB_std.c ****         }
1210:Generated_Source\PSoC5/USB_std.c ****         
1211:Generated_Source\PSoC5/USB_std.c ****         requestHandled = USB_InitNoDataControlTransfer();
 1122              		.loc 1 1211 0
 1123 0094 FFF7FEFF 		bl	USB_InitNoDataControlTransfer
 1124              	.LVL106:
 1125 0098 10BD     		pop	{r4, pc}
 1126              	.LVL107:
 1127              	.L92:
 1128              		.cfi_def_cfa_offset 0
 1129              		.cfi_restore 4
 1130              		.cfi_restore 14
1164:Generated_Source\PSoC5/USB_std.c ****     uint8 ep;
 1131              		.loc 1 1164 0
 1132 009a 0020     		movs	r0, #0
 1133 009c 7047     		bx	lr
 1134              	.L96:
 1135 009e 00BF     		.align	2
 1136              	.L95:
 1137 00a0 00600040 		.word	1073766400
 1138 00a4 00000000 		.word	USB_EP
 1139 00a8 FC5F0040 		.word	1073766396
 1140              		.cfi_endproc
 1141              	.LFE10:
ARM GAS  C:\Users\CHANTI~1\AppData\Local\Temp\cckZxxwg.s 			page 44


 1142              		.size	USB_ClearEndpointHalt, .-USB_ClearEndpointHalt
 1143              		.section	.text.USB_ValidateAlternateSetting,"ax",%progbits
 1144              		.align	2
 1145              		.global	USB_ValidateAlternateSetting
 1146              		.thumb
 1147              		.thumb_func
 1148              		.type	USB_ValidateAlternateSetting, %function
 1149              	USB_ValidateAlternateSetting:
 1150              	.LFB11:
1212:Generated_Source\PSoC5/USB_std.c ****     }
1213:Generated_Source\PSoC5/USB_std.c **** 
1214:Generated_Source\PSoC5/USB_std.c ****     return(requestHandled);
1215:Generated_Source\PSoC5/USB_std.c **** }
1216:Generated_Source\PSoC5/USB_std.c **** 
1217:Generated_Source\PSoC5/USB_std.c **** 
1218:Generated_Source\PSoC5/USB_std.c **** /*******************************************************************************
1219:Generated_Source\PSoC5/USB_std.c **** * Function Name: USB_ValidateAlternateSetting
1220:Generated_Source\PSoC5/USB_std.c **** ****************************************************************************//**
1221:Generated_Source\PSoC5/USB_std.c **** *
1222:Generated_Source\PSoC5/USB_std.c **** *  Validates (and records) a SET INTERFACE request.
1223:Generated_Source\PSoC5/USB_std.c **** *
1224:Generated_Source\PSoC5/USB_std.c **** * \return
1225:Generated_Source\PSoC5/USB_std.c **** *  requestHandled.
1226:Generated_Source\PSoC5/USB_std.c **** *
1227:Generated_Source\PSoC5/USB_std.c **** * \reentrant
1228:Generated_Source\PSoC5/USB_std.c **** *  No.
1229:Generated_Source\PSoC5/USB_std.c **** *
1230:Generated_Source\PSoC5/USB_std.c **** *******************************************************************************/
1231:Generated_Source\PSoC5/USB_std.c **** uint8 USB_ValidateAlternateSetting(void) 
1232:Generated_Source\PSoC5/USB_std.c **** {
 1151              		.loc 1 1232 0
 1152              		.cfi_startproc
 1153              		@ args = 0, pretend = 0, frame = 0
 1154              		@ frame_needed = 0, uses_anonymous_args = 0
 1155 0000 10B5     		push	{r4, lr}
 1156              		.cfi_def_cfa_offset 8
 1157              		.cfi_offset 4, -8
 1158              		.cfi_offset 14, -4
 1159              	.LVL108:
1233:Generated_Source\PSoC5/USB_std.c ****     uint8 requestHandled = USB_FALSE;
1234:Generated_Source\PSoC5/USB_std.c ****     
1235:Generated_Source\PSoC5/USB_std.c ****     uint8 interfaceNum;
1236:Generated_Source\PSoC5/USB_std.c ****     uint8 curInterfacesNum;
1237:Generated_Source\PSoC5/USB_std.c ****     const T_USB_LUT CYCODE *pTmp;
1238:Generated_Source\PSoC5/USB_std.c ****     
1239:Generated_Source\PSoC5/USB_std.c ****     /* Get interface number from the request. */
1240:Generated_Source\PSoC5/USB_std.c ****     interfaceNum = (uint8) USB_wIndexLoReg;
 1160              		.loc 1 1240 0
 1161 0002 0E4B     		ldr	r3, .L102
 1162 0004 1C79     		ldrb	r4, [r3, #4]	@ zero_extendqisi2
 1163 0006 E4B2     		uxtb	r4, r4
 1164              	.LVL109:
1241:Generated_Source\PSoC5/USB_std.c ****     
1242:Generated_Source\PSoC5/USB_std.c ****     /* Get number of interfaces for current configuration. */
1243:Generated_Source\PSoC5/USB_std.c ****     pTmp = USB_GetConfigTablePtr(USB_configuration - 1u);
 1165              		.loc 1 1243 0
 1166 0008 0D4B     		ldr	r3, .L102+4
ARM GAS  C:\Users\CHANTI~1\AppData\Local\Temp\cckZxxwg.s 			page 45


 1167 000a 1878     		ldrb	r0, [r3]	@ zero_extendqisi2
 1168 000c 0138     		subs	r0, r0, #1
 1169 000e C0B2     		uxtb	r0, r0
 1170 0010 FFF7FEFF 		bl	USB_GetConfigTablePtr
 1171              	.LVL110:
1244:Generated_Source\PSoC5/USB_std.c ****     curInterfacesNum  = ((const uint8 *) pTmp->p_list)[USB_CONFIG_DESCR_NUM_INTERFACES];
 1172              		.loc 1 1244 0
 1173 0014 4368     		ldr	r3, [r0, #4]
 1174 0016 1B79     		ldrb	r3, [r3, #4]	@ zero_extendqisi2
 1175              	.LVL111:
1245:Generated_Source\PSoC5/USB_std.c **** 
1246:Generated_Source\PSoC5/USB_std.c ****     /* Validate that interface number is within range. */
1247:Generated_Source\PSoC5/USB_std.c ****     if ((interfaceNum <= curInterfacesNum) || (interfaceNum <= USB_MAX_INTERFACES_NUMBER))
 1176              		.loc 1 1247 0
 1177 0018 9C42     		cmp	r4, r3
 1178 001a 01D9     		bls	.L98
 1179              		.loc 1 1247 0 is_stmt 0 discriminator 1
 1180 001c 012C     		cmp	r4, #1
 1181 001e 0AD8     		bhi	.L100
 1182              	.L98:
1248:Generated_Source\PSoC5/USB_std.c ****     {
1249:Generated_Source\PSoC5/USB_std.c ****         /* Save current and new alternate settings (come with request) to make 
1250:Generated_Source\PSoC5/USB_std.c ****         * desicion about following endpoint re-configuration.
1251:Generated_Source\PSoC5/USB_std.c ****         */
1252:Generated_Source\PSoC5/USB_std.c ****         USB_interfaceSettingLast[interfaceNum] = USB_interfaceSetting[interfaceNum];
 1183              		.loc 1 1252 0 is_stmt 1
 1184 0020 084A     		ldr	r2, .L102+8
 1185 0022 135D     		ldrb	r3, [r2, r4]	@ zero_extendqisi2
 1186              	.LVL112:
 1187 0024 DBB2     		uxtb	r3, r3
 1188 0026 0849     		ldr	r1, .L102+12
 1189 0028 0B55     		strb	r3, [r1, r4]
1253:Generated_Source\PSoC5/USB_std.c ****         USB_interfaceSetting[interfaceNum]     = (uint8) USB_wValueLoReg;
 1190              		.loc 1 1253 0
 1191 002a 044B     		ldr	r3, .L102
 1192 002c 9B78     		ldrb	r3, [r3, #2]	@ zero_extendqisi2
 1193 002e DBB2     		uxtb	r3, r3
 1194 0030 1355     		strb	r3, [r2, r4]
 1195              	.LVL113:
1254:Generated_Source\PSoC5/USB_std.c ****         
1255:Generated_Source\PSoC5/USB_std.c ****         requestHandled = USB_TRUE;
 1196              		.loc 1 1255 0
 1197 0032 0120     		movs	r0, #1
 1198              	.LVL114:
 1199 0034 10BD     		pop	{r4, pc}
 1200              	.LVL115:
 1201              	.L100:
1233:Generated_Source\PSoC5/USB_std.c ****     
 1202              		.loc 1 1233 0
 1203 0036 0020     		movs	r0, #0
 1204              	.LVL116:
1256:Generated_Source\PSoC5/USB_std.c ****     }
1257:Generated_Source\PSoC5/USB_std.c **** 
1258:Generated_Source\PSoC5/USB_std.c ****     return (requestHandled);
1259:Generated_Source\PSoC5/USB_std.c **** }
 1205              		.loc 1 1259 0
 1206 0038 10BD     		pop	{r4, pc}
ARM GAS  C:\Users\CHANTI~1\AppData\Local\Temp\cckZxxwg.s 			page 46


 1207              	.LVL117:
 1208              	.L103:
 1209 003a 00BF     		.align	2
 1210              	.L102:
 1211 003c 00600040 		.word	1073766400
 1212 0040 00000000 		.word	USB_configuration
 1213 0044 00000000 		.word	USB_interfaceSetting
 1214 0048 00000000 		.word	USB_interfaceSettingLast
 1215              		.cfi_endproc
 1216              	.LFE11:
 1217              		.size	USB_ValidateAlternateSetting, .-USB_ValidateAlternateSetting
 1218              		.section	.text.USB_HandleStandardRqst,"ax",%progbits
 1219              		.align	2
 1220              		.global	USB_HandleStandardRqst
 1221              		.thumb
 1222              		.thumb_func
 1223              		.type	USB_HandleStandardRqst, %function
 1224              	USB_HandleStandardRqst:
 1225              	.LFB0:
  85:Generated_Source\PSoC5/USB_std.c ****     uint8 requestHandled = USB_FALSE;
 1226              		.loc 1 85 0
 1227              		.cfi_startproc
 1228              		@ args = 0, pretend = 0, frame = 0
 1229              		@ frame_needed = 0, uses_anonymous_args = 0
 1230 0000 10B5     		push	{r4, lr}
 1231              		.cfi_def_cfa_offset 8
 1232              		.cfi_offset 4, -8
 1233              		.cfi_offset 14, -4
 1234              	.LVL118:
  89:Generated_Source\PSoC5/USB_std.c **** 
 1235              		.loc 1 89 0
 1236 0002 9A4B     		ldr	r3, .L151
 1237 0004 1B78     		ldrb	r3, [r3]	@ zero_extendqisi2
 1238 0006 DBB2     		uxtb	r3, r3
 1239              	.LVL119:
 102:Generated_Source\PSoC5/USB_std.c **** 
 1240              		.loc 1 102 0
 1241 0008 0021     		movs	r1, #0
 1242 000a 994A     		ldr	r2, .L151+4
 1243 000c 1180     		strh	r1, [r2]	@ movhi
 104:Generated_Source\PSoC5/USB_std.c ****     {
 1244              		.loc 1 104 0
 1245 000e 13F0800F 		tst	r3, #128
 1246 0012 79D0     		beq	.L105
 107:Generated_Source\PSoC5/USB_std.c ****         {
 1247              		.loc 1 107 0
 1248 0014 954A     		ldr	r2, .L151
 1249 0016 5278     		ldrb	r2, [r2, #1]	@ zero_extendqisi2
 1250 0018 D2B2     		uxtb	r2, r2
 1251 001a 0A2A     		cmp	r2, #10
 1252 001c 00F21D81 		bhi	.L133
 1253 0020 DFE812F0 		tbh	[pc, r2, lsl #1]
 1254              	.L108:
 1255 0024 3600     		.2byte	(.L107-.L108)/2
 1256 0026 1B01     		.2byte	(.L133-.L108)/2
 1257 0028 1B01     		.2byte	(.L133-.L108)/2
 1258 002a 1B01     		.2byte	(.L133-.L108)/2
ARM GAS  C:\Users\CHANTI~1\AppData\Local\Temp\cckZxxwg.s 			page 47


 1259 002c 1B01     		.2byte	(.L133-.L108)/2
 1260 002e 1B01     		.2byte	(.L133-.L108)/2
 1261 0030 0B00     		.2byte	(.L109-.L108)/2
 1262 0032 1B01     		.2byte	(.L133-.L108)/2
 1263 0034 5F00     		.2byte	(.L110-.L108)/2
 1264 0036 1B01     		.2byte	(.L133-.L108)/2
 1265 0038 6700     		.2byte	(.L111-.L108)/2
 1266              		.p2align 1
 1267              	.L109:
 110:Generated_Source\PSoC5/USB_std.c ****                 {
 1268              		.loc 1 110 0
 1269 003a 8C4B     		ldr	r3, .L151
 1270              	.LVL120:
 1271 003c DB78     		ldrb	r3, [r3, #3]	@ zero_extendqisi2
 1272 003e DBB2     		uxtb	r3, r3
 1273 0040 012B     		cmp	r3, #1
 1274 0042 09D1     		bne	.L112
 112:Generated_Source\PSoC5/USB_std.c ****                     USB_currentTD.pData = (volatile uint8 *)pTmp->p_list;
 1275              		.loc 1 112 0
 1276 0044 FFF7FEFF 		bl	USB_GetDeviceTablePtr
 1277              	.LVL121:
 113:Generated_Source\PSoC5/USB_std.c ****                     USB_currentTD.count = USB_DEVICE_DESCR_LENGTH;
 1278              		.loc 1 113 0
 1279 0048 4268     		ldr	r2, [r0, #4]
 1280 004a 894B     		ldr	r3, .L151+4
 1281 004c 5A60     		str	r2, [r3, #4]
 114:Generated_Source\PSoC5/USB_std.c ****                     
 1282              		.loc 1 114 0
 1283 004e 1222     		movs	r2, #18
 1284 0050 1A80     		strh	r2, [r3]	@ movhi
 116:Generated_Source\PSoC5/USB_std.c ****                 }
 1285              		.loc 1 116 0
 1286 0052 FFF7FEFF 		bl	USB_InitControlRead
 1287              	.LVL122:
 1288 0056 10BD     		pop	{r4, pc}
 1289              	.LVL123:
 1290              	.L112:
 118:Generated_Source\PSoC5/USB_std.c ****                 {
 1291              		.loc 1 118 0
 1292 0058 844B     		ldr	r3, .L151
 1293 005a DB78     		ldrb	r3, [r3, #3]	@ zero_extendqisi2
 1294 005c DBB2     		uxtb	r3, r3
 1295 005e 022B     		cmp	r3, #2
 1296 0060 13D1     		bne	.L113
 120:Generated_Source\PSoC5/USB_std.c ****                     
 1297              		.loc 1 120 0
 1298 0062 824B     		ldr	r3, .L151
 1299 0064 9878     		ldrb	r0, [r3, #2]	@ zero_extendqisi2
 1300 0066 FFF7FEFF 		bl	USB_GetConfigTablePtr
 1301              	.LVL124:
 123:Generated_Source\PSoC5/USB_std.c ****                     {
 1302              		.loc 1 123 0
 1303 006a 0028     		cmp	r0, #0
 1304 006c 00F0F780 		beq	.L134
 125:Generated_Source\PSoC5/USB_std.c ****                         USB_currentTD.count = (uint16)((uint16)(USB_currentTD.pData)[USB_CONFIG_DES
 1305              		.loc 1 125 0
 1306 0070 4268     		ldr	r2, [r0, #4]
ARM GAS  C:\Users\CHANTI~1\AppData\Local\Temp\cckZxxwg.s 			page 48


 1307 0072 7F4B     		ldr	r3, .L151+4
 1308 0074 5A60     		str	r2, [r3, #4]
 126:Generated_Source\PSoC5/USB_std.c ****                                                                             (USB_currentTD.pData)[U
 1309              		.loc 1 126 0
 1310 0076 5A68     		ldr	r2, [r3, #4]
 1311 0078 D178     		ldrb	r1, [r2, #3]	@ zero_extendqisi2
 127:Generated_Source\PSoC5/USB_std.c ****                         requestHandled  = USB_InitControlRead();
 1312              		.loc 1 127 0
 1313 007a 5A68     		ldr	r2, [r3, #4]
 1314 007c 9278     		ldrb	r2, [r2, #2]	@ zero_extendqisi2
 126:Generated_Source\PSoC5/USB_std.c ****                                                                             (USB_currentTD.pData)[U
 1315              		.loc 1 126 0
 1316 007e 42EA0122 		orr	r2, r2, r1, lsl #8
 1317 0082 1A80     		strh	r2, [r3]	@ movhi
 128:Generated_Source\PSoC5/USB_std.c ****                     }
 1318              		.loc 1 128 0
 1319 0084 FFF7FEFF 		bl	USB_InitControlRead
 1320              	.LVL125:
 1321 0088 10BD     		pop	{r4, pc}
 1322              	.LVL126:
 1323              	.L113:
 209:Generated_Source\PSoC5/USB_std.c ****                 }
 1324              		.loc 1 209 0
 1325 008a FFF7FEFF 		bl	USB_DispatchClassRqst
 1326              	.LVL127:
 1327 008e 10BD     		pop	{r4, pc}
 1328              	.LVL128:
 1329              	.L107:
 214:Generated_Source\PSoC5/USB_std.c ****                 {
 1330              		.loc 1 214 0
 1331 0090 13F00303 		ands	r3, r3, #3
 1332              	.LVL129:
 1333 0094 17D0     		beq	.L114
 1334 0096 022B     		cmp	r3, #2
 1335 0098 40F0E380 		bne	.L147
 217:Generated_Source\PSoC5/USB_std.c ****                         USB_tBuffer[0u]     = USB_EP[USB_wIndexLoReg & USB_DIR_UNUSED].hwEpState;
 1336              		.loc 1 217 0
 1337 009c 7449     		ldr	r1, .L151+4
 1338 009e 0B80     		strh	r3, [r1]	@ movhi
 218:Generated_Source\PSoC5/USB_std.c ****                         USB_tBuffer[1u]     = 0u;
 1339              		.loc 1 218 0
 1340 00a0 724B     		ldr	r3, .L151
 1341 00a2 1B79     		ldrb	r3, [r3, #4]	@ zero_extendqisi2
 1342 00a4 03F07F03 		and	r3, r3, #127
 1343 00a8 03EB4303 		add	r3, r3, r3, lsl #1
 1344 00ac 9A00     		lsls	r2, r3, #2
 1345 00ae 714B     		ldr	r3, .L151+8
 1346 00b0 1A44     		add	r2, r2, r3
 1347 00b2 9278     		ldrb	r2, [r2, #2]	@ zero_extendqisi2
 1348 00b4 D2B2     		uxtb	r2, r2
 1349 00b6 704B     		ldr	r3, .L151+12
 1350 00b8 1A70     		strb	r2, [r3]
 219:Generated_Source\PSoC5/USB_std.c ****                         USB_currentTD.pData = &USB_tBuffer[0u];
 1351              		.loc 1 219 0
 1352 00ba 0022     		movs	r2, #0
 1353 00bc 5A70     		strb	r2, [r3, #1]
 220:Generated_Source\PSoC5/USB_std.c ****                         
ARM GAS  C:\Users\CHANTI~1\AppData\Local\Temp\cckZxxwg.s 			page 49


 1354              		.loc 1 220 0
 1355 00be 4B60     		str	r3, [r1, #4]
 222:Generated_Source\PSoC5/USB_std.c ****                         break;
 1356              		.loc 1 222 0
 1357 00c0 FFF7FEFF 		bl	USB_InitControlRead
 1358              	.LVL130:
 223:Generated_Source\PSoC5/USB_std.c ****                     case USB_RQST_RCPT_DEV:
 1359              		.loc 1 223 0
 1360 00c4 10BD     		pop	{r4, pc}
 1361              	.LVL131:
 1362              	.L114:
 225:Generated_Source\PSoC5/USB_std.c ****                         USB_tBuffer[0u]     = USB_deviceStatus;
 1363              		.loc 1 225 0
 1364 00c6 6A49     		ldr	r1, .L151+4
 1365 00c8 0223     		movs	r3, #2
 1366 00ca 0B80     		strh	r3, [r1]	@ movhi
 226:Generated_Source\PSoC5/USB_std.c ****                         USB_tBuffer[1u]     = 0u;
 1367              		.loc 1 226 0
 1368 00cc 6B4B     		ldr	r3, .L151+16
 1369 00ce 1A78     		ldrb	r2, [r3]	@ zero_extendqisi2
 1370 00d0 D2B2     		uxtb	r2, r2
 1371 00d2 694B     		ldr	r3, .L151+12
 1372 00d4 1A70     		strb	r2, [r3]
 227:Generated_Source\PSoC5/USB_std.c ****                         USB_currentTD.pData = &USB_tBuffer[0u];
 1373              		.loc 1 227 0
 1374 00d6 0022     		movs	r2, #0
 1375 00d8 5A70     		strb	r2, [r3, #1]
 228:Generated_Source\PSoC5/USB_std.c ****                         
 1376              		.loc 1 228 0
 1377 00da 4B60     		str	r3, [r1, #4]
 230:Generated_Source\PSoC5/USB_std.c ****                         break;
 1378              		.loc 1 230 0
 1379 00dc FFF7FEFF 		bl	USB_InitControlRead
 1380              	.LVL132:
 231:Generated_Source\PSoC5/USB_std.c ****                     default:    /* requestHandled is initialized as FALSE by default */
 1381              		.loc 1 231 0
 1382 00e0 10BD     		pop	{r4, pc}
 1383              	.LVL133:
 1384              	.L110:
 238:Generated_Source\PSoC5/USB_std.c ****                 USB_currentTD.pData = (volatile uint8 *) &USB_configuration;
 1385              		.loc 1 238 0
 1386 00e2 634B     		ldr	r3, .L151+4
 1387              	.LVL134:
 1388 00e4 0122     		movs	r2, #1
 1389 00e6 1A80     		strh	r2, [r3]	@ movhi
 239:Generated_Source\PSoC5/USB_std.c ****                 requestHandled  = USB_InitControlRead();
 1390              		.loc 1 239 0
 1391 00e8 654A     		ldr	r2, .L151+20
 1392 00ea 5A60     		str	r2, [r3, #4]
 240:Generated_Source\PSoC5/USB_std.c ****                 break;
 1393              		.loc 1 240 0
 1394 00ec FFF7FEFF 		bl	USB_InitControlRead
 1395              	.LVL135:
 241:Generated_Source\PSoC5/USB_std.c ****                 
 1396              		.loc 1 241 0
 1397 00f0 10BD     		pop	{r4, pc}
 1398              	.LVL136:
ARM GAS  C:\Users\CHANTI~1\AppData\Local\Temp\cckZxxwg.s 			page 50


 1399              	.L111:
 244:Generated_Source\PSoC5/USB_std.c ****                 USB_currentTD.pData = (volatile uint8 *) &USB_interfaceSetting[USB_wIndexLoReg];
 1400              		.loc 1 244 0
 1401 00f2 5F4A     		ldr	r2, .L151+4
 1402 00f4 0123     		movs	r3, #1
 1403              	.LVL137:
 1404 00f6 1380     		strh	r3, [r2]	@ movhi
 245:Generated_Source\PSoC5/USB_std.c ****                 requestHandled  = USB_InitControlRead();
 1405              		.loc 1 245 0
 1406 00f8 5C4B     		ldr	r3, .L151
 1407 00fa 1B79     		ldrb	r3, [r3, #4]	@ zero_extendqisi2
 1408 00fc 6149     		ldr	r1, .L151+24
 1409 00fe 0B44     		add	r3, r3, r1
 1410 0100 5360     		str	r3, [r2, #4]
 246:Generated_Source\PSoC5/USB_std.c ****                 break;
 1411              		.loc 1 246 0
 1412 0102 FFF7FEFF 		bl	USB_InitControlRead
 1413              	.LVL138:
 247:Generated_Source\PSoC5/USB_std.c ****                 
 1414              		.loc 1 247 0
 1415 0106 10BD     		pop	{r4, pc}
 1416              	.LVL139:
 1417              	.L105:
 256:Generated_Source\PSoC5/USB_std.c ****         {
 1418              		.loc 1 256 0
 1419 0108 584A     		ldr	r2, .L151
 1420 010a 5278     		ldrb	r2, [r2, #1]	@ zero_extendqisi2
 1421 010c 013A     		subs	r2, r2, #1
 1422 010e 0A2A     		cmp	r2, #10
 1423 0110 00F2A980 		bhi	.L136
 1424 0114 DFE802F0 		tbb	[pc, r2]
 1425              	.L117:
 1426 0118 47       		.byte	(.L116-.L117)/2
 1427 0119 A7       		.byte	(.L136-.L117)/2
 1428 011a 74       		.byte	(.L118-.L117)/2
 1429 011b A7       		.byte	(.L136-.L117)/2
 1430 011c 06       		.byte	(.L119-.L117)/2
 1431 011d A7       		.byte	(.L136-.L117)/2
 1432 011e A7       		.byte	(.L136-.L117)/2
 1433 011f A7       		.byte	(.L136-.L117)/2
 1434 0120 0E       		.byte	(.L120-.L117)/2
 1435 0121 A7       		.byte	(.L136-.L117)/2
 1436 0122 2B       		.byte	(.L121-.L117)/2
 1437 0123 00       		.p2align 1
 1438              	.L119:
 260:Generated_Source\PSoC5/USB_std.c ****                 requestHandled = USB_InitNoDataControlTransfer();
 1439              		.loc 1 260 0
 1440 0124 514B     		ldr	r3, .L151
 1441              	.LVL140:
 1442 0126 9B78     		ldrb	r3, [r3, #2]	@ zero_extendqisi2
 1443 0128 DBB2     		uxtb	r3, r3
 1444 012a 574A     		ldr	r2, .L151+28
 1445 012c 1370     		strb	r3, [r2]
 261:Generated_Source\PSoC5/USB_std.c ****                 break;
 1446              		.loc 1 261 0
 1447 012e FFF7FEFF 		bl	USB_InitNoDataControlTransfer
 1448              	.LVL141:
ARM GAS  C:\Users\CHANTI~1\AppData\Local\Temp\cckZxxwg.s 			page 51


 262:Generated_Source\PSoC5/USB_std.c ****                 
 1449              		.loc 1 262 0
 1450 0132 10BD     		pop	{r4, pc}
 1451              	.LVL142:
 1452              	.L120:
 265:Generated_Source\PSoC5/USB_std.c ****                 
 1453              		.loc 1 265 0
 1454 0134 4D4B     		ldr	r3, .L151
 1455              	.LVL143:
 1456 0136 9B78     		ldrb	r3, [r3, #2]	@ zero_extendqisi2
 1457              	.LVL144:
 268:Generated_Source\PSoC5/USB_std.c ****                 {
 1458              		.loc 1 268 0
 1459 0138 03F0FF04 		and	r4, r3, #255
 1460 013c 1BB1     		cbz	r3, .L122
 270:Generated_Source\PSoC5/USB_std.c ****                 }
 1461              		.loc 1 270 0
 1462 013e 601E     		subs	r0, r4, #1
 1463 0140 C0B2     		uxtb	r0, r0
 1464 0142 FFF7FEFF 		bl	USB_GetConfigTablePtr
 1465              	.LVL145:
 1466              	.L122:
 274:Generated_Source\PSoC5/USB_std.c ****                 {
 1467              		.loc 1 274 0
 1468 0146 04B1     		cbz	r4, .L123
 274:Generated_Source\PSoC5/USB_std.c ****                 {
 1469              		.loc 1 274 0 is_stmt 0 discriminator 1
 1470 0148 10B9     		cbnz	r0, .L124
 1471              	.L123:
 274:Generated_Source\PSoC5/USB_std.c ****                 {
 1472              		.loc 1 274 0 discriminator 3
 1473 014a 002C     		cmp	r4, #0
 1474 014c 40F0A680 		bne	.L137
 1475              	.L124:
 277:Generated_Source\PSoC5/USB_std.c ****                     {
 1476              		.loc 1 277 0 is_stmt 1
 1477 0150 4B4B     		ldr	r3, .L151+20
 1478 0152 1B78     		ldrb	r3, [r3]	@ zero_extendqisi2
 1479 0154 DBB2     		uxtb	r3, r3
 1480 0156 9C42     		cmp	r4, r3
 1481 0158 06D0     		beq	.L125
 279:Generated_Source\PSoC5/USB_std.c ****                         USB_configurationChanged = USB_TRUE;
 1482              		.loc 1 279 0
 1483 015a 494B     		ldr	r3, .L151+20
 1484 015c 1C70     		strb	r4, [r3]
 280:Generated_Source\PSoC5/USB_std.c ****                         USB_Config(USB_TRUE);
 1485              		.loc 1 280 0
 1486 015e 0120     		movs	r0, #1
 1487              	.LVL146:
 1488 0160 4A4B     		ldr	r3, .L151+32
 1489 0162 1870     		strb	r0, [r3]
 281:Generated_Source\PSoC5/USB_std.c ****                     }
 1490              		.loc 1 281 0
 1491 0164 FFF7FEFF 		bl	USB_Config
 1492              	.LVL147:
 1493              	.L125:
 283:Generated_Source\PSoC5/USB_std.c ****                 }
ARM GAS  C:\Users\CHANTI~1\AppData\Local\Temp\cckZxxwg.s 			page 52


 1494              		.loc 1 283 0
 1495 0168 FFF7FEFF 		bl	USB_InitNoDataControlTransfer
 1496              	.LVL148:
 1497 016c 10BD     		pop	{r4, pc}
 1498              	.LVL149:
 1499              	.L121:
 288:Generated_Source\PSoC5/USB_std.c ****                 {
 1500              		.loc 1 288 0
 1501 016e FFF7FEFF 		bl	USB_ValidateAlternateSetting
 1502              	.LVL150:
 1503 0172 0028     		cmp	r0, #0
 1504 0174 00F09480 		beq	.L138
 291:Generated_Source\PSoC5/USB_std.c ****                     USB_interfaceNumber = (uint8) USB_wIndexLoReg;
 1505              		.loc 1 291 0
 1506 0178 3C4A     		ldr	r2, .L151
 1507 017a 1379     		ldrb	r3, [r2, #4]	@ zero_extendqisi2
 1508 017c DBB2     		uxtb	r3, r3
 1509              	.LVL151:
 292:Generated_Source\PSoC5/USB_std.c ****                      
 1510              		.loc 1 292 0
 1511 017e 1279     		ldrb	r2, [r2, #4]	@ zero_extendqisi2
 1512 0180 D2B2     		uxtb	r2, r2
 1513 0182 4349     		ldr	r1, .L151+36
 1514 0184 0A70     		strb	r2, [r1]
 295:Generated_Source\PSoC5/USB_std.c ****                     {
 1515              		.loc 1 295 0
 1516 0186 434A     		ldr	r2, .L151+40
 1517 0188 D25C     		ldrb	r2, [r2, r3]	@ zero_extendqisi2
 1518 018a D2B2     		uxtb	r2, r2
 1519 018c 3D49     		ldr	r1, .L151+24
 1520 018e CB5C     		ldrb	r3, [r1, r3]	@ zero_extendqisi2
 1521              	.LVL152:
 1522 0190 DBB2     		uxtb	r3, r3
 1523 0192 9A42     		cmp	r2, r3
 1524 0194 04D0     		beq	.L126
 297:Generated_Source\PSoC5/USB_std.c ****                     
 1525              		.loc 1 297 0
 1526 0196 0122     		movs	r2, #1
 1527 0198 3C4B     		ldr	r3, .L151+32
 1528 019a 1A70     		strb	r2, [r3]
 303:Generated_Source\PSoC5/USB_std.c ****                     #endif /* (USB_EP_MANAGEMENT_MANUAL && USB_EP_ALLOC_DYNAMIC) */
 1529              		.loc 1 303 0
 1530 019c FFF7FEFF 		bl	USB_ConfigAltChanged
 1531              	.LVL153:
 1532              	.L126:
 307:Generated_Source\PSoC5/USB_std.c ****                 }
 1533              		.loc 1 307 0
 1534 01a0 FFF7FEFF 		bl	USB_InitNoDataControlTransfer
 1535              	.LVL154:
 1536 01a4 10BD     		pop	{r4, pc}
 1537              	.LVL155:
 1538              	.L116:
 312:Generated_Source\PSoC5/USB_std.c ****                 {
 1539              		.loc 1 312 0
 1540 01a6 03F00303 		and	r3, r3, #3
 1541              	.LVL156:
 1542 01aa 012B     		cmp	r3, #1
ARM GAS  C:\Users\CHANTI~1\AppData\Local\Temp\cckZxxwg.s 			page 53


 1543 01ac 17D0     		beq	.L127
 1544 01ae 4BB1     		cbz	r3, .L128
 1545 01b0 022B     		cmp	r3, #2
 1546 01b2 77D1     		bne	.L148
 315:Generated_Source\PSoC5/USB_std.c ****                         {
 1547              		.loc 1 315 0
 1548 01b4 2D4B     		ldr	r3, .L151
 1549 01b6 9B78     		ldrb	r3, [r3, #2]	@ zero_extendqisi2
 1550 01b8 13F0FF0F 		tst	r3, #255
 1551 01bc 74D1     		bne	.L140
 317:Generated_Source\PSoC5/USB_std.c ****                         }
 1552              		.loc 1 317 0
 1553 01be FFF7FEFF 		bl	USB_ClearEndpointHalt
 1554              	.LVL157:
 1555 01c2 10BD     		pop	{r4, pc}
 1556              	.LVL158:
 1557              	.L128:
 322:Generated_Source\PSoC5/USB_std.c ****                         {
 1558              		.loc 1 322 0
 1559 01c4 294B     		ldr	r3, .L151
 1560 01c6 9B78     		ldrb	r3, [r3, #2]	@ zero_extendqisi2
 1561 01c8 DBB2     		uxtb	r3, r3
 1562 01ca 012B     		cmp	r3, #1
 1563 01cc 6ED1     		bne	.L141
 324:Generated_Source\PSoC5/USB_std.c ****                             requestHandled = USB_InitNoDataControlTransfer();
 1564              		.loc 1 324 0
 1565 01ce 2B4A     		ldr	r2, .L151+16
 1566 01d0 1378     		ldrb	r3, [r2]	@ zero_extendqisi2
 1567 01d2 03F0FD03 		and	r3, r3, #253
 1568 01d6 1370     		strb	r3, [r2]
 325:Generated_Source\PSoC5/USB_std.c ****                         }
 1569              		.loc 1 325 0
 1570 01d8 FFF7FEFF 		bl	USB_InitNoDataControlTransfer
 1571              	.LVL159:
 1572 01dc 10BD     		pop	{r4, pc}
 1573              	.LVL160:
 1574              	.L127:
 330:Generated_Source\PSoC5/USB_std.c ****                         {
 1575              		.loc 1 330 0
 1576 01de 234B     		ldr	r3, .L151
 1577 01e0 1B79     		ldrb	r3, [r3, #4]	@ zero_extendqisi2
 1578 01e2 13F0FF0F 		tst	r3, #255
 1579 01e6 63D1     		bne	.L142
 332:Generated_Source\PSoC5/USB_std.c ****                             requestHandled = USB_InitNoDataControlTransfer();
 1580              		.loc 1 332 0
 1581 01e8 204B     		ldr	r3, .L151
 1582 01ea 9878     		ldrb	r0, [r3, #2]	@ zero_extendqisi2
 1583 01ec 1B79     		ldrb	r3, [r3, #4]	@ zero_extendqisi2
 1584 01ee DBB2     		uxtb	r3, r3
 1585 01f0 2949     		ldr	r1, .L151+44
 1586 01f2 CA5C     		ldrb	r2, [r1, r3]	@ zero_extendqisi2
 1587 01f4 22EA0002 		bic	r2, r2, r0
 1588 01f8 CA54     		strb	r2, [r1, r3]
 333:Generated_Source\PSoC5/USB_std.c ****                         }
 1589              		.loc 1 333 0
 1590 01fa FFF7FEFF 		bl	USB_InitNoDataControlTransfer
 1591              	.LVL161:
ARM GAS  C:\Users\CHANTI~1\AppData\Local\Temp\cckZxxwg.s 			page 54


 1592 01fe 10BD     		pop	{r4, pc}
 1593              	.LVL162:
 1594              	.L118:
 342:Generated_Source\PSoC5/USB_std.c ****                 {
 1595              		.loc 1 342 0
 1596 0200 03F00303 		and	r3, r3, #3
 1597              	.LVL163:
 1598 0204 012B     		cmp	r3, #1
 1599 0206 17D0     		beq	.L130
 1600 0208 4BB1     		cbz	r3, .L131
 1601 020a 022B     		cmp	r3, #2
 1602 020c 52D1     		bne	.L149
 345:Generated_Source\PSoC5/USB_std.c ****                         {
 1603              		.loc 1 345 0
 1604 020e 174B     		ldr	r3, .L151
 1605 0210 9B78     		ldrb	r3, [r3, #2]	@ zero_extendqisi2
 1606 0212 13F0FF0F 		tst	r3, #255
 1607 0216 4FD1     		bne	.L144
 347:Generated_Source\PSoC5/USB_std.c ****                         }
 1608              		.loc 1 347 0
 1609 0218 FFF7FEFF 		bl	USB_SetEndpointHalt
 1610              	.LVL164:
 1611 021c 10BD     		pop	{r4, pc}
 1612              	.LVL165:
 1613              	.L131:
 353:Generated_Source\PSoC5/USB_std.c ****                         {
 1614              		.loc 1 353 0
 1615 021e 134B     		ldr	r3, .L151
 1616 0220 9B78     		ldrb	r3, [r3, #2]	@ zero_extendqisi2
 1617 0222 DBB2     		uxtb	r3, r3
 1618 0224 012B     		cmp	r3, #1
 1619 0226 49D1     		bne	.L145
 355:Generated_Source\PSoC5/USB_std.c ****                             requestHandled = USB_InitNoDataControlTransfer();
 1620              		.loc 1 355 0
 1621 0228 144A     		ldr	r2, .L151+16
 1622 022a 1378     		ldrb	r3, [r2]	@ zero_extendqisi2
 1623 022c 43F00203 		orr	r3, r3, #2
 1624 0230 1370     		strb	r3, [r2]
 356:Generated_Source\PSoC5/USB_std.c ****                         }
 1625              		.loc 1 356 0
 1626 0232 FFF7FEFF 		bl	USB_InitNoDataControlTransfer
 1627              	.LVL166:
 1628 0236 10BD     		pop	{r4, pc}
 1629              	.LVL167:
 1630              	.L130:
 362:Generated_Source\PSoC5/USB_std.c ****                         {
 1631              		.loc 1 362 0
 1632 0238 0C4B     		ldr	r3, .L151
 1633 023a 1B79     		ldrb	r3, [r3, #4]	@ zero_extendqisi2
 1634 023c 13F0FF0F 		tst	r3, #255
 1635 0240 3ED1     		bne	.L146
 364:Generated_Source\PSoC5/USB_std.c ****                             requestHandled = USB_InitNoDataControlTransfer();
 1636              		.loc 1 364 0
 1637 0242 0A4B     		ldr	r3, .L151
 1638 0244 9878     		ldrb	r0, [r3, #2]	@ zero_extendqisi2
 1639 0246 1B79     		ldrb	r3, [r3, #4]	@ zero_extendqisi2
 1640 0248 DBB2     		uxtb	r3, r3
ARM GAS  C:\Users\CHANTI~1\AppData\Local\Temp\cckZxxwg.s 			page 55


 1641 024a 1349     		ldr	r1, .L151+44
 1642 024c CA5C     		ldrb	r2, [r1, r3]	@ zero_extendqisi2
 1643 024e 22EA0002 		bic	r2, r2, r0
 1644 0252 CA54     		strb	r2, [r1, r3]
 365:Generated_Source\PSoC5/USB_std.c ****                         }
 1645              		.loc 1 365 0
 1646 0254 FFF7FEFF 		bl	USB_InitNoDataControlTransfer
 1647              	.LVL168:
 1648 0258 10BD     		pop	{r4, pc}
 1649              	.LVL169:
 1650              	.L133:
  86:Generated_Source\PSoC5/USB_std.c ****     uint8 interfaceNumber;
 1651              		.loc 1 86 0
 1652 025a 0020     		movs	r0, #0
 1653 025c 10BD     		pop	{r4, pc}
 1654              	.LVL170:
 1655              	.L134:
 1656 025e 0020     		movs	r0, #0
 1657              	.LVL171:
 1658 0260 10BD     		pop	{r4, pc}
 1659              	.L147:
 1660 0262 0020     		movs	r0, #0
 1661 0264 10BD     		pop	{r4, pc}
 1662              	.LVL172:
 1663              	.L136:
 1664 0266 0020     		movs	r0, #0
 1665 0268 10BD     		pop	{r4, pc}
 1666              	.L152:
 1667 026a 00BF     		.align	2
 1668              	.L151:
 1669 026c 00600040 		.word	1073766400
 1670 0270 00000000 		.word	USB_currentTD
 1671 0274 00000000 		.word	USB_EP
 1672 0278 00000000 		.word	.LANCHOR0
 1673 027c 00000000 		.word	USB_deviceStatus
 1674 0280 00000000 		.word	USB_configuration
 1675 0284 00000000 		.word	USB_interfaceSetting
 1676 0288 00000000 		.word	USB_deviceAddress
 1677 028c 00000000 		.word	USB_configurationChanged
 1678 0290 00000000 		.word	USB_interfaceNumber
 1679 0294 00000000 		.word	USB_interfaceSettingLast
 1680 0298 00000000 		.word	USB_interfaceStatus
 1681              	.LVL173:
 1682              	.L137:
 1683 029c 0020     		movs	r0, #0
 1684              	.LVL174:
 1685 029e 10BD     		pop	{r4, pc}
 1686              	.L138:
 1687 02a0 0020     		movs	r0, #0
 1688 02a2 10BD     		pop	{r4, pc}
 1689              	.L148:
 1690 02a4 0020     		movs	r0, #0
 1691 02a6 10BD     		pop	{r4, pc}
 1692              	.L140:
 1693 02a8 0020     		movs	r0, #0
 1694 02aa 10BD     		pop	{r4, pc}
 1695              	.L141:
ARM GAS  C:\Users\CHANTI~1\AppData\Local\Temp\cckZxxwg.s 			page 56


 1696 02ac 0020     		movs	r0, #0
 1697 02ae 10BD     		pop	{r4, pc}
 1698              	.L142:
 1699 02b0 0020     		movs	r0, #0
 1700 02b2 10BD     		pop	{r4, pc}
 1701              	.L149:
 1702 02b4 0020     		movs	r0, #0
 1703 02b6 10BD     		pop	{r4, pc}
 1704              	.L144:
 1705 02b8 0020     		movs	r0, #0
 1706 02ba 10BD     		pop	{r4, pc}
 1707              	.L145:
 1708 02bc 0020     		movs	r0, #0
 1709 02be 10BD     		pop	{r4, pc}
 1710              	.L146:
 1711 02c0 0020     		movs	r0, #0
 1712              	.LVL175:
 380:Generated_Source\PSoC5/USB_std.c **** 
 1713              		.loc 1 380 0
 1714 02c2 10BD     		pop	{r4, pc}
 1715              		.cfi_endproc
 1716              	.LFE0:
 1717              		.size	USB_HandleStandardRqst, .-USB_HandleStandardRqst
 1718              		.bss
 1719              		.align	2
 1720              		.set	.LANCHOR0,. + 0
 1721              		.type	USB_tBuffer.5176, %object
 1722              		.size	USB_tBuffer.5176, 2
 1723              	USB_tBuffer.5176:
 1724 0000 0000     		.space	2
 1725              		.text
 1726              	.Letext0:
 1727              		.file 2 "Generated_Source\\PSoC5\\cytypes.h"
 1728              		.file 3 "Generated_Source\\PSoC5\\USB.h"
 1729              		.file 4 "Generated_Source\\PSoC5\\USB_pvt.h"
 1730              		.section	.debug_info,"",%progbits
 1731              	.Ldebug_info0:
 1732 0000 93090000 		.4byte	0x993
 1733 0004 0400     		.2byte	0x4
 1734 0006 00000000 		.4byte	.Ldebug_abbrev0
 1735 000a 04       		.byte	0x4
 1736 000b 01       		.uleb128 0x1
 1737 000c 46040000 		.4byte	.LASF104
 1738 0010 0C       		.byte	0xc
 1739 0011 DC040000 		.4byte	.LASF105
 1740 0015 BC020000 		.4byte	.LASF106
 1741 0019 00000000 		.4byte	.Ldebug_ranges0+0
 1742 001d 00000000 		.4byte	0
 1743 0021 00000000 		.4byte	.Ldebug_line0
 1744 0025 02       		.uleb128 0x2
 1745 0026 01       		.byte	0x1
 1746 0027 06       		.byte	0x6
 1747 0028 E8000000 		.4byte	.LASF0
 1748 002c 02       		.uleb128 0x2
 1749 002d 01       		.byte	0x1
 1750 002e 08       		.byte	0x8
 1751 002f FB030000 		.4byte	.LASF1
ARM GAS  C:\Users\CHANTI~1\AppData\Local\Temp\cckZxxwg.s 			page 57


 1752 0033 02       		.uleb128 0x2
 1753 0034 02       		.byte	0x2
 1754 0035 05       		.byte	0x5
 1755 0036 09040000 		.4byte	.LASF2
 1756 003a 02       		.uleb128 0x2
 1757 003b 02       		.byte	0x2
 1758 003c 07       		.byte	0x7
 1759 003d EF010000 		.4byte	.LASF3
 1760 0041 02       		.uleb128 0x2
 1761 0042 04       		.byte	0x4
 1762 0043 05       		.byte	0x5
 1763 0044 28010000 		.4byte	.LASF4
 1764 0048 02       		.uleb128 0x2
 1765 0049 04       		.byte	0x4
 1766 004a 07       		.byte	0x7
 1767 004b DD010000 		.4byte	.LASF5
 1768 004f 02       		.uleb128 0x2
 1769 0050 08       		.byte	0x8
 1770 0051 05       		.byte	0x5
 1771 0052 DA000000 		.4byte	.LASF6
 1772 0056 02       		.uleb128 0x2
 1773 0057 08       		.byte	0x8
 1774 0058 07       		.byte	0x7
 1775 0059 5B000000 		.4byte	.LASF7
 1776 005d 03       		.uleb128 0x3
 1777 005e 04       		.byte	0x4
 1778 005f 05       		.byte	0x5
 1779 0060 696E7400 		.ascii	"int\000"
 1780 0064 02       		.uleb128 0x2
 1781 0065 04       		.byte	0x4
 1782 0066 07       		.byte	0x7
 1783 0067 D0010000 		.4byte	.LASF8
 1784 006b 04       		.uleb128 0x4
 1785 006c 31010000 		.4byte	.LASF9
 1786 0070 02       		.byte	0x2
 1787 0071 E401     		.2byte	0x1e4
 1788 0073 2C000000 		.4byte	0x2c
 1789 0077 04       		.uleb128 0x4
 1790 0078 1E000000 		.4byte	.LASF10
 1791 007c 02       		.byte	0x2
 1792 007d E501     		.2byte	0x1e5
 1793 007f 3A000000 		.4byte	0x3a
 1794 0083 02       		.uleb128 0x2
 1795 0084 04       		.byte	0x4
 1796 0085 04       		.byte	0x4
 1797 0086 9F030000 		.4byte	.LASF11
 1798 008a 02       		.uleb128 0x2
 1799 008b 08       		.byte	0x8
 1800 008c 04       		.byte	0x4
 1801 008d 45010000 		.4byte	.LASF12
 1802 0091 02       		.uleb128 0x2
 1803 0092 01       		.byte	0x1
 1804 0093 08       		.byte	0x8
 1805 0094 27050000 		.4byte	.LASF13
 1806 0098 04       		.uleb128 0x4
 1807 0099 F6030000 		.4byte	.LASF14
 1808 009d 02       		.byte	0x2
ARM GAS  C:\Users\CHANTI~1\AppData\Local\Temp\cckZxxwg.s 			page 58


 1809 009e 8E02     		.2byte	0x28e
 1810 00a0 A4000000 		.4byte	0xa4
 1811 00a4 05       		.uleb128 0x5
 1812 00a5 6B000000 		.4byte	0x6b
 1813 00a9 02       		.uleb128 0x2
 1814 00aa 08       		.byte	0x8
 1815 00ab 04       		.byte	0x4
 1816 00ac B0020000 		.4byte	.LASF15
 1817 00b0 02       		.uleb128 0x2
 1818 00b1 04       		.byte	0x4
 1819 00b2 07       		.byte	0x7
 1820 00b3 90020000 		.4byte	.LASF16
 1821 00b7 06       		.uleb128 0x6
 1822 00b8 0C       		.byte	0xc
 1823 00b9 03       		.byte	0x3
 1824 00ba 8C       		.byte	0x8c
 1825 00bb 2C010000 		.4byte	0x12c
 1826 00bf 07       		.uleb128 0x7
 1827 00c0 4F030000 		.4byte	.LASF17
 1828 00c4 03       		.byte	0x3
 1829 00c5 8E       		.byte	0x8e
 1830 00c6 6B000000 		.4byte	0x6b
 1831 00ca 00       		.byte	0
 1832 00cb 07       		.uleb128 0x7
 1833 00cc B8030000 		.4byte	.LASF18
 1834 00d0 03       		.byte	0x3
 1835 00d1 8F       		.byte	0x8f
 1836 00d2 6B000000 		.4byte	0x6b
 1837 00d6 01       		.byte	0x1
 1838 00d7 07       		.uleb128 0x7
 1839 00d8 86020000 		.4byte	.LASF19
 1840 00dc 03       		.byte	0x3
 1841 00dd 90       		.byte	0x90
 1842 00de 6B000000 		.4byte	0x6b
 1843 00e2 02       		.byte	0x2
 1844 00e3 07       		.uleb128 0x7
 1845 00e4 37010000 		.4byte	.LASF20
 1846 00e8 03       		.byte	0x3
 1847 00e9 91       		.byte	0x91
 1848 00ea 6B000000 		.4byte	0x6b
 1849 00ee 03       		.byte	0x3
 1850 00ef 07       		.uleb128 0x7
 1851 00f0 72000000 		.4byte	.LASF21
 1852 00f4 03       		.byte	0x3
 1853 00f5 92       		.byte	0x92
 1854 00f6 6B000000 		.4byte	0x6b
 1855 00fa 04       		.byte	0x4
 1856 00fb 07       		.uleb128 0x7
 1857 00fc 93010000 		.4byte	.LASF22
 1858 0100 03       		.byte	0x3
 1859 0101 93       		.byte	0x93
 1860 0102 6B000000 		.4byte	0x6b
 1861 0106 05       		.byte	0x5
 1862 0107 07       		.uleb128 0x7
 1863 0108 67050000 		.4byte	.LASF23
 1864 010c 03       		.byte	0x3
 1865 010d 94       		.byte	0x94
ARM GAS  C:\Users\CHANTI~1\AppData\Local\Temp\cckZxxwg.s 			page 59


 1866 010e 77000000 		.4byte	0x77
 1867 0112 06       		.byte	0x6
 1868 0113 07       		.uleb128 0x7
 1869 0114 38050000 		.4byte	.LASF24
 1870 0118 03       		.byte	0x3
 1871 0119 95       		.byte	0x95
 1872 011a 77000000 		.4byte	0x77
 1873 011e 08       		.byte	0x8
 1874 011f 07       		.uleb128 0x7
 1875 0120 35020000 		.4byte	.LASF25
 1876 0124 03       		.byte	0x3
 1877 0125 96       		.byte	0x96
 1878 0126 6B000000 		.4byte	0x6b
 1879 012a 0A       		.byte	0xa
 1880 012b 00       		.byte	0
 1881 012c 08       		.uleb128 0x8
 1882 012d 92000000 		.4byte	.LASF26
 1883 0131 03       		.byte	0x3
 1884 0132 97       		.byte	0x97
 1885 0133 B7000000 		.4byte	0xb7
 1886 0137 06       		.uleb128 0x6
 1887 0138 08       		.byte	0x8
 1888 0139 03       		.byte	0x3
 1889 013a 99       		.byte	0x99
 1890 013b 88010000 		.4byte	0x188
 1891 013f 07       		.uleb128 0x7
 1892 0140 35020000 		.4byte	.LASF25
 1893 0144 03       		.byte	0x3
 1894 0145 9B       		.byte	0x9b
 1895 0146 6B000000 		.4byte	0x6b
 1896 014a 00       		.byte	0
 1897 014b 07       		.uleb128 0x7
 1898 014c 1C050000 		.4byte	.LASF27
 1899 0150 03       		.byte	0x3
 1900 0151 9C       		.byte	0x9c
 1901 0152 6B000000 		.4byte	0x6b
 1902 0156 01       		.byte	0x1
 1903 0157 07       		.uleb128 0x7
 1904 0158 72000000 		.4byte	.LASF21
 1905 015c 03       		.byte	0x3
 1906 015d 9D       		.byte	0x9d
 1907 015e 6B000000 		.4byte	0x6b
 1908 0162 02       		.byte	0x2
 1909 0163 07       		.uleb128 0x7
 1910 0164 FD040000 		.4byte	.LASF28
 1911 0168 03       		.byte	0x3
 1912 0169 9E       		.byte	0x9e
 1913 016a 6B000000 		.4byte	0x6b
 1914 016e 03       		.byte	0x3
 1915 016f 07       		.uleb128 0x7
 1916 0170 38050000 		.4byte	.LASF24
 1917 0174 03       		.byte	0x3
 1918 0175 9F       		.byte	0x9f
 1919 0176 77000000 		.4byte	0x77
 1920 017a 04       		.byte	0x4
 1921 017b 07       		.uleb128 0x7
 1922 017c EE050000 		.4byte	.LASF29
ARM GAS  C:\Users\CHANTI~1\AppData\Local\Temp\cckZxxwg.s 			page 60


 1923 0180 03       		.byte	0x3
 1924 0181 A0       		.byte	0xa0
 1925 0182 6B000000 		.4byte	0x6b
 1926 0186 06       		.byte	0x6
 1927 0187 00       		.byte	0
 1928 0188 08       		.uleb128 0x8
 1929 0189 13040000 		.4byte	.LASF30
 1930 018d 03       		.byte	0x3
 1931 018e A1       		.byte	0xa1
 1932 018f 37010000 		.4byte	0x137
 1933 0193 06       		.uleb128 0x6
 1934 0194 04       		.byte	0x4
 1935 0195 03       		.byte	0x3
 1936 0196 A3       		.byte	0xa3
 1937 0197 B4010000 		.4byte	0x1b4
 1938 019b 07       		.uleb128 0x7
 1939 019c B1050000 		.4byte	.LASF31
 1940 01a0 03       		.byte	0x3
 1941 01a1 A5       		.byte	0xa5
 1942 01a2 6B000000 		.4byte	0x6b
 1943 01a6 00       		.byte	0
 1944 01a7 07       		.uleb128 0x7
 1945 01a8 98050000 		.4byte	.LASF32
 1946 01ac 03       		.byte	0x3
 1947 01ad A6       		.byte	0xa6
 1948 01ae 77000000 		.4byte	0x77
 1949 01b2 02       		.byte	0x2
 1950 01b3 00       		.byte	0
 1951 01b4 08       		.uleb128 0x8
 1952 01b5 B8010000 		.4byte	.LASF33
 1953 01b9 03       		.byte	0x3
 1954 01ba A7       		.byte	0xa7
 1955 01bb 93010000 		.4byte	0x193
 1956 01bf 06       		.uleb128 0x6
 1957 01c0 0C       		.byte	0xc
 1958 01c1 03       		.byte	0x3
 1959 01c2 A9       		.byte	0xa9
 1960 01c3 EC010000 		.4byte	0x1ec
 1961 01c7 07       		.uleb128 0x7
 1962 01c8 18000000 		.4byte	.LASF34
 1963 01cc 03       		.byte	0x3
 1964 01cd AB       		.byte	0xab
 1965 01ce 77000000 		.4byte	0x77
 1966 01d2 00       		.byte	0
 1967 01d3 07       		.uleb128 0x7
 1968 01d4 6A010000 		.4byte	.LASF35
 1969 01d8 03       		.byte	0x3
 1970 01d9 AC       		.byte	0xac
 1971 01da EC010000 		.4byte	0x1ec
 1972 01de 04       		.byte	0x4
 1973 01df 07       		.uleb128 0x7
 1974 01e0 00000000 		.4byte	.LASF36
 1975 01e4 03       		.byte	0x3
 1976 01e5 AD       		.byte	0xad
 1977 01e6 F2010000 		.4byte	0x1f2
 1978 01ea 08       		.byte	0x8
 1979 01eb 00       		.byte	0
ARM GAS  C:\Users\CHANTI~1\AppData\Local\Temp\cckZxxwg.s 			page 61


 1980 01ec 09       		.uleb128 0x9
 1981 01ed 04       		.byte	0x4
 1982 01ee A4000000 		.4byte	0xa4
 1983 01f2 09       		.uleb128 0x9
 1984 01f3 04       		.byte	0x4
 1985 01f4 B4010000 		.4byte	0x1b4
 1986 01f8 08       		.uleb128 0x8
 1987 01f9 1F030000 		.4byte	.LASF37
 1988 01fd 03       		.byte	0x3
 1989 01fe AE       		.byte	0xae
 1990 01ff BF010000 		.4byte	0x1bf
 1991 0203 06       		.uleb128 0x6
 1992 0204 08       		.byte	0x8
 1993 0205 03       		.byte	0x3
 1994 0206 B0       		.byte	0xb0
 1995 0207 22020000 		.4byte	0x222
 1996 020b 0A       		.uleb128 0xa
 1997 020c 6300     		.ascii	"c\000"
 1998 020e 03       		.byte	0x3
 1999 020f B2       		.byte	0xb2
 2000 0210 6B000000 		.4byte	0x6b
 2001 0214 00       		.byte	0
 2002 0215 07       		.uleb128 0x7
 2003 0216 3E030000 		.4byte	.LASF38
 2004 021a 03       		.byte	0x3
 2005 021b B3       		.byte	0xb3
 2006 021c 22020000 		.4byte	0x222
 2007 0220 04       		.byte	0x4
 2008 0221 00       		.byte	0
 2009 0222 09       		.uleb128 0x9
 2010 0223 04       		.byte	0x4
 2011 0224 28020000 		.4byte	0x228
 2012 0228 0B       		.uleb128 0xb
 2013 0229 08       		.uleb128 0x8
 2014 022a 1E010000 		.4byte	.LASF39
 2015 022e 03       		.byte	0x3
 2016 022f B4       		.byte	0xb4
 2017 0230 03020000 		.4byte	0x203
 2018 0234 06       		.uleb128 0x6
 2019 0235 08       		.byte	0x8
 2020 0236 03       		.byte	0x3
 2021 0237 C4       		.byte	0xc4
 2022 0238 49020000 		.4byte	0x249
 2023 023c 07       		.uleb128 0x7
 2024 023d E7050000 		.4byte	.LASF40
 2025 0241 03       		.byte	0x3
 2026 0242 C6       		.byte	0xc6
 2027 0243 49020000 		.4byte	0x249
 2028 0247 00       		.byte	0
 2029 0248 00       		.byte	0
 2030 0249 0C       		.uleb128 0xc
 2031 024a 6B000000 		.4byte	0x6b
 2032 024e 59020000 		.4byte	0x259
 2033 0252 0D       		.uleb128 0xd
 2034 0253 B0000000 		.4byte	0xb0
 2035 0257 07       		.byte	0x7
 2036 0258 00       		.byte	0
ARM GAS  C:\Users\CHANTI~1\AppData\Local\Temp\cckZxxwg.s 			page 62


 2037 0259 08       		.uleb128 0x8
 2038 025a F4050000 		.4byte	.LASF41
 2039 025e 03       		.byte	0x3
 2040 025f C7       		.byte	0xc7
 2041 0260 34020000 		.4byte	0x234
 2042 0264 06       		.uleb128 0x6
 2043 0265 10       		.byte	0x10
 2044 0266 03       		.byte	0x3
 2045 0267 D3       		.byte	0xd3
 2046 0268 9D020000 		.4byte	0x29d
 2047 026c 07       		.uleb128 0x7
 2048 026d 77030000 		.4byte	.LASF42
 2049 0271 03       		.byte	0x3
 2050 0272 D5       		.byte	0xd5
 2051 0273 6B000000 		.4byte	0x6b
 2052 0277 00       		.byte	0
 2053 0278 07       		.uleb128 0x7
 2054 0279 7E030000 		.4byte	.LASF43
 2055 027d 03       		.byte	0x3
 2056 027e D6       		.byte	0xd6
 2057 027f 6B000000 		.4byte	0x6b
 2058 0283 01       		.byte	0x1
 2059 0284 07       		.uleb128 0x7
 2060 0285 8C030000 		.4byte	.LASF44
 2061 0289 03       		.byte	0x3
 2062 028a D7       		.byte	0xd7
 2063 028b 6B000000 		.4byte	0x6b
 2064 028f 02       		.byte	0x2
 2065 0290 0A       		.uleb128 0xa
 2066 0291 67617000 		.ascii	"gap\000"
 2067 0295 03       		.byte	0x3
 2068 0296 D8       		.byte	0xd8
 2069 0297 9D020000 		.4byte	0x29d
 2070 029b 03       		.byte	0x3
 2071 029c 00       		.byte	0
 2072 029d 0C       		.uleb128 0xc
 2073 029e 6B000000 		.4byte	0x6b
 2074 02a2 AD020000 		.4byte	0x2ad
 2075 02a6 0D       		.uleb128 0xd
 2076 02a7 B0000000 		.4byte	0xb0
 2077 02ab 0C       		.byte	0xc
 2078 02ac 00       		.byte	0
 2079 02ad 08       		.uleb128 0x8
 2080 02ae 9F050000 		.4byte	.LASF45
 2081 02b2 03       		.byte	0x3
 2082 02b3 D9       		.byte	0xd9
 2083 02b4 64020000 		.4byte	0x264
 2084 02b8 06       		.uleb128 0x6
 2085 02b9 10       		.byte	0x10
 2086 02ba 03       		.byte	0x3
 2087 02bb E5       		.byte	0xe5
 2088 02bc 39030000 		.4byte	0x339
 2089 02c0 07       		.uleb128 0x7
 2090 02c1 77000000 		.4byte	.LASF46
 2091 02c5 03       		.byte	0x3
 2092 02c6 E7       		.byte	0xe7
 2093 02c7 6B000000 		.4byte	0x6b
ARM GAS  C:\Users\CHANTI~1\AppData\Local\Temp\cckZxxwg.s 			page 63


 2094 02cb 00       		.byte	0
 2095 02cc 07       		.uleb128 0x7
 2096 02cd 26060000 		.4byte	.LASF47
 2097 02d1 03       		.byte	0x3
 2098 02d2 E8       		.byte	0xe8
 2099 02d3 6B000000 		.4byte	0x6b
 2100 02d7 01       		.byte	0x1
 2101 02d8 07       		.uleb128 0x7
 2102 02d9 4C010000 		.4byte	.LASF48
 2103 02dd 03       		.byte	0x3
 2104 02de E9       		.byte	0xe9
 2105 02df 6B000000 		.4byte	0x6b
 2106 02e3 02       		.byte	0x2
 2107 02e4 07       		.uleb128 0x7
 2108 02e5 AF010000 		.4byte	.LASF49
 2109 02e9 03       		.byte	0x3
 2110 02ea EA       		.byte	0xea
 2111 02eb 6B000000 		.4byte	0x6b
 2112 02ef 03       		.byte	0x3
 2113 02f0 07       		.uleb128 0x7
 2114 02f1 40010000 		.4byte	.LASF50
 2115 02f5 03       		.byte	0x3
 2116 02f6 EB       		.byte	0xeb
 2117 02f7 6B000000 		.4byte	0x6b
 2118 02fb 04       		.byte	0x4
 2119 02fc 07       		.uleb128 0x7
 2120 02fd D4040000 		.4byte	.LASF51
 2121 0301 03       		.byte	0x3
 2122 0302 EC       		.byte	0xec
 2123 0303 6B000000 		.4byte	0x6b
 2124 0307 05       		.byte	0x5
 2125 0308 07       		.uleb128 0x7
 2126 0309 2B040000 		.4byte	.LASF52
 2127 030d 03       		.byte	0x3
 2128 030e ED       		.byte	0xed
 2129 030f 6B000000 		.4byte	0x6b
 2130 0313 06       		.byte	0x6
 2131 0314 07       		.uleb128 0x7
 2132 0315 6F030000 		.4byte	.LASF53
 2133 0319 03       		.byte	0x3
 2134 031a EE       		.byte	0xee
 2135 031b 6B000000 		.4byte	0x6b
 2136 031f 07       		.byte	0x7
 2137 0320 07       		.uleb128 0x7
 2138 0321 B8050000 		.4byte	.LASF54
 2139 0325 03       		.byte	0x3
 2140 0326 EF       		.byte	0xef
 2141 0327 6B000000 		.4byte	0x6b
 2142 032b 08       		.byte	0x8
 2143 032c 0A       		.uleb128 0xa
 2144 032d 67617000 		.ascii	"gap\000"
 2145 0331 03       		.byte	0x3
 2146 0332 F0       		.byte	0xf0
 2147 0333 39030000 		.4byte	0x339
 2148 0337 09       		.byte	0x9
 2149 0338 00       		.byte	0
 2150 0339 0C       		.uleb128 0xc
ARM GAS  C:\Users\CHANTI~1\AppData\Local\Temp\cckZxxwg.s 			page 64


 2151 033a 6B000000 		.4byte	0x6b
 2152 033e 49030000 		.4byte	0x349
 2153 0342 0D       		.uleb128 0xd
 2154 0343 B0000000 		.4byte	0xb0
 2155 0347 06       		.byte	0x6
 2156 0348 00       		.byte	0
 2157 0349 08       		.uleb128 0x8
 2158 034a E4030000 		.4byte	.LASF55
 2159 034e 03       		.byte	0x3
 2160 034f F1       		.byte	0xf1
 2161 0350 B8020000 		.4byte	0x2b8
 2162 0354 0E       		.uleb128 0xe
 2163 0355 90       		.byte	0x90
 2164 0356 03       		.byte	0x3
 2165 0357 0D01     		.2byte	0x10d
 2166 0359 6B030000 		.4byte	0x36b
 2167 035d 0F       		.uleb128 0xf
 2168 035e 8D010000 		.4byte	.LASF56
 2169 0362 03       		.byte	0x3
 2170 0363 0F01     		.2byte	0x10f
 2171 0365 6B030000 		.4byte	0x36b
 2172 0369 00       		.byte	0
 2173 036a 00       		.byte	0
 2174 036b 0C       		.uleb128 0xc
 2175 036c AD020000 		.4byte	0x2ad
 2176 0370 7B030000 		.4byte	0x37b
 2177 0374 0D       		.uleb128 0xd
 2178 0375 B0000000 		.4byte	0xb0
 2179 0379 08       		.byte	0x8
 2180 037a 00       		.byte	0
 2181 037b 04       		.uleb128 0x4
 2182 037c 60020000 		.4byte	.LASF57
 2183 0380 03       		.byte	0x3
 2184 0381 1001     		.2byte	0x110
 2185 0383 54030000 		.4byte	0x354
 2186 0387 0E       		.uleb128 0xe
 2187 0388 90       		.byte	0x90
 2188 0389 03       		.byte	0x3
 2189 038a 1301     		.2byte	0x113
 2190 038c 9E030000 		.4byte	0x39e
 2191 0390 0F       		.uleb128 0xf
 2192 0391 2F020000 		.4byte	.LASF58
 2193 0395 03       		.byte	0x3
 2194 0396 1501     		.2byte	0x115
 2195 0398 9E030000 		.4byte	0x39e
 2196 039c 00       		.byte	0
 2197 039d 00       		.byte	0
 2198 039e 0C       		.uleb128 0xc
 2199 039f 49030000 		.4byte	0x349
 2200 03a3 AE030000 		.4byte	0x3ae
 2201 03a7 0D       		.uleb128 0xd
 2202 03a8 B0000000 		.4byte	0xb0
 2203 03ac 08       		.byte	0x8
 2204 03ad 00       		.byte	0
 2205 03ae 04       		.uleb128 0x4
 2206 03af 73020000 		.4byte	.LASF59
 2207 03b3 03       		.byte	0x3
ARM GAS  C:\Users\CHANTI~1\AppData\Local\Temp\cckZxxwg.s 			page 65


 2208 03b4 1601     		.2byte	0x116
 2209 03b6 87030000 		.4byte	0x387
 2210 03ba 10       		.uleb128 0x10
 2211 03bb 61030000 		.4byte	.LASF60
 2212 03bf 01       		.byte	0x1
 2213 03c0 B501     		.2byte	0x1b5
 2214 03c2 00000000 		.4byte	.LFB1
 2215 03c6 A4000000 		.4byte	.LFE1-.LFB1
 2216 03ca 01       		.uleb128 0x1
 2217 03cb 9C       		.byte	0x9c
 2218 03cc E0030000 		.4byte	0x3e0
 2219 03d0 11       		.uleb128 0x11
 2220 03d1 657000   		.ascii	"ep\000"
 2221 03d4 01       		.byte	0x1
 2222 03d5 B701     		.2byte	0x1b7
 2223 03d7 6B000000 		.4byte	0x6b
 2224 03db 00000000 		.4byte	.LLST0
 2225 03df 00       		.byte	0
 2226 03e0 10       		.uleb128 0x10
 2227 03e1 0E010000 		.4byte	.LASF61
 2228 03e5 01       		.byte	0x1
 2229 03e6 1402     		.2byte	0x214
 2230 03e8 00000000 		.4byte	.LFB2
 2231 03ec 44000000 		.4byte	.LFE2-.LFB2
 2232 03f0 01       		.uleb128 0x1
 2233 03f1 9C       		.byte	0x9c
 2234 03f2 05040000 		.4byte	0x405
 2235 03f6 11       		.uleb128 0x11
 2236 03f7 6900     		.ascii	"i\000"
 2237 03f9 01       		.byte	0x1
 2238 03fa 1602     		.2byte	0x216
 2239 03fc 6B000000 		.4byte	0x6b
 2240 0400 2A000000 		.4byte	.LLST1
 2241 0404 00       		.byte	0
 2242 0405 12       		.uleb128 0x12
 2243 0406 09020000 		.4byte	.LASF67
 2244 040a 01       		.byte	0x1
 2245 040b AE03     		.2byte	0x3ae
 2246 040d 40040000 		.4byte	0x440
 2247 0411 00000000 		.4byte	.LFB5
 2248 0415 28000000 		.4byte	.LFE5-.LFB5
 2249 0419 01       		.uleb128 0x1
 2250 041a 9C       		.byte	0x9c
 2251 041b 40040000 		.4byte	0x440
 2252 041f 13       		.uleb128 0x13
 2253 0420 51000000 		.4byte	.LASF72
 2254 0424 01       		.byte	0x1
 2255 0425 AE03     		.2byte	0x3ae
 2256 0427 6B000000 		.4byte	0x6b
 2257 042b 54000000 		.4byte	.LLST2
 2258 042f 14       		.uleb128 0x14
 2259 0430 E2050000 		.4byte	.LASF62
 2260 0434 01       		.byte	0x1
 2261 0435 B203     		.2byte	0x3b2
 2262 0437 40040000 		.4byte	0x440
 2263 043b 8E000000 		.4byte	.LLST3
 2264 043f 00       		.byte	0
ARM GAS  C:\Users\CHANTI~1\AppData\Local\Temp\cckZxxwg.s 			page 66


 2265 0440 09       		.uleb128 0x9
 2266 0441 04       		.byte	0x4
 2267 0442 46040000 		.4byte	0x446
 2268 0446 15       		.uleb128 0x15
 2269 0447 29020000 		.4byte	0x229
 2270 044b 10       		.uleb128 0x10
 2271 044c 5B060000 		.4byte	.LASF63
 2272 0450 01       		.byte	0x1
 2273 0451 2503     		.2byte	0x325
 2274 0453 00000000 		.4byte	.LFB4
 2275 0457 1C010000 		.4byte	.LFE4-.LFB4
 2276 045b 01       		.uleb128 0x1
 2277 045c 9C       		.byte	0x9c
 2278 045d D8040000 		.4byte	0x4d8
 2279 0461 11       		.uleb128 0x11
 2280 0462 657000   		.ascii	"ep\000"
 2281 0465 01       		.byte	0x1
 2282 0466 2703     		.2byte	0x327
 2283 0468 6B000000 		.4byte	0x6b
 2284 046c C6000000 		.4byte	.LLST4
 2285 0470 14       		.uleb128 0x14
 2286 0471 4B000000 		.4byte	.LASF64
 2287 0475 01       		.byte	0x1
 2288 0476 2803     		.2byte	0x328
 2289 0478 6B000000 		.4byte	0x6b
 2290 047c D9000000 		.4byte	.LLST5
 2291 0480 14       		.uleb128 0x14
 2292 0481 9A010000 		.4byte	.LASF65
 2293 0485 01       		.byte	0x1
 2294 0486 2903     		.2byte	0x329
 2295 0488 6B000000 		.4byte	0x6b
 2296 048c EC000000 		.4byte	.LLST6
 2297 0490 11       		.uleb128 0x11
 2298 0491 6900     		.ascii	"i\000"
 2299 0493 01       		.byte	0x1
 2300 0494 2A03     		.2byte	0x32a
 2301 0496 6B000000 		.4byte	0x6b
 2302 049a 0A010000 		.4byte	.LLST7
 2303 049e 14       		.uleb128 0x14
 2304 049f 92030000 		.4byte	.LASF66
 2305 04a3 01       		.byte	0x1
 2306 04a4 2B03     		.2byte	0x32b
 2307 04a6 6B000000 		.4byte	0x6b
 2308 04aa 34010000 		.4byte	.LLST8
 2309 04ae 14       		.uleb128 0x14
 2310 04af E2050000 		.4byte	.LASF62
 2311 04b3 01       		.byte	0x1
 2312 04b4 2D03     		.2byte	0x32d
 2313 04b6 40040000 		.4byte	0x440
 2314 04ba 47010000 		.4byte	.LLST9
 2315 04be 11       		.uleb128 0x11
 2316 04bf 70455000 		.ascii	"pEP\000"
 2317 04c3 01       		.byte	0x1
 2318 04c4 2E03     		.2byte	0x32e
 2319 04c6 D8040000 		.4byte	0x4d8
 2320 04ca 5C010000 		.4byte	.LLST10
 2321 04ce 16       		.uleb128 0x16
ARM GAS  C:\Users\CHANTI~1\AppData\Local\Temp\cckZxxwg.s 			page 67


 2322 04cf 18000000 		.4byte	.LVL15
 2323 04d3 05040000 		.4byte	0x405
 2324 04d7 00       		.byte	0
 2325 04d8 09       		.uleb128 0x9
 2326 04d9 04       		.byte	0x4
 2327 04da DE040000 		.4byte	0x4de
 2328 04de 15       		.uleb128 0x15
 2329 04df 88010000 		.4byte	0x188
 2330 04e3 17       		.uleb128 0x17
 2331 04e4 28030000 		.4byte	.LASF107
 2332 04e8 01       		.byte	0x1
 2333 04e9 F303     		.2byte	0x3f3
 2334 04eb 40040000 		.4byte	0x440
 2335 04ef 00000000 		.4byte	.LFB6
 2336 04f3 18000000 		.4byte	.LFE6-.LFB6
 2337 04f7 01       		.uleb128 0x1
 2338 04f8 9C       		.byte	0x9c
 2339 04f9 12       		.uleb128 0x12
 2340 04fa BC000000 		.4byte	.LASF68
 2341 04fe 01       		.byte	0x1
 2342 04ff 0604     		.2byte	0x406
 2343 0501 4D050000 		.4byte	0x54d
 2344 0505 00000000 		.4byte	.LFB7
 2345 0509 28000000 		.4byte	.LFE7-.LFB7
 2346 050d 01       		.uleb128 0x1
 2347 050e 9C       		.byte	0x9c
 2348 050f 4D050000 		.4byte	0x54d
 2349 0513 14       		.uleb128 0x14
 2350 0514 E2050000 		.4byte	.LASF62
 2351 0518 01       		.byte	0x1
 2352 0519 0904     		.2byte	0x409
 2353 051b 40040000 		.4byte	0x440
 2354 051f 6F010000 		.4byte	.LLST11
 2355 0523 14       		.uleb128 0x14
 2356 0524 1F020000 		.4byte	.LASF69
 2357 0528 01       		.byte	0x1
 2358 0529 0A04     		.2byte	0x40a
 2359 052b 4D050000 		.4byte	0x54d
 2360 052f 98010000 		.4byte	.LLST12
 2361 0533 14       		.uleb128 0x14
 2362 0534 52050000 		.4byte	.LASF70
 2363 0538 01       		.byte	0x1
 2364 0539 0B04     		.2byte	0x40b
 2365 053b 6B000000 		.4byte	0x6b
 2366 053f B6010000 		.4byte	.LLST13
 2367 0543 16       		.uleb128 0x16
 2368 0544 0E000000 		.4byte	.LVL31
 2369 0548 05040000 		.4byte	0x405
 2370 054c 00       		.byte	0
 2371 054d 09       		.uleb128 0x9
 2372 054e 04       		.byte	0x4
 2373 054f 53050000 		.4byte	0x553
 2374 0553 15       		.uleb128 0x15
 2375 0554 6B000000 		.4byte	0x6b
 2376 0558 10       		.uleb128 0x10
 2377 0559 0D000000 		.4byte	.LASF71
 2378 055d 01       		.byte	0x1
ARM GAS  C:\Users\CHANTI~1\AppData\Local\Temp\cckZxxwg.s 			page 68


 2379 055e 3A02     		.2byte	0x23a
 2380 0560 00000000 		.4byte	.LFB3
 2381 0564 C4010000 		.4byte	.LFE3-.LFB3
 2382 0568 01       		.uleb128 0x1
 2383 0569 9C       		.byte	0x9c
 2384 056a 17060000 		.4byte	0x617
 2385 056e 13       		.uleb128 0x13
 2386 056f F4000000 		.4byte	.LASF73
 2387 0573 01       		.byte	0x1
 2388 0574 3A02     		.2byte	0x23a
 2389 0576 6B000000 		.4byte	0x6b
 2390 057a D6010000 		.4byte	.LLST14
 2391 057e 11       		.uleb128 0x11
 2392 057f 657000   		.ascii	"ep\000"
 2393 0582 01       		.byte	0x1
 2394 0583 3C02     		.2byte	0x23c
 2395 0585 6B000000 		.4byte	0x6b
 2396 0589 F7010000 		.4byte	.LLST15
 2397 058d 14       		.uleb128 0x14
 2398 058e 4B000000 		.4byte	.LASF64
 2399 0592 01       		.byte	0x1
 2400 0593 3D02     		.2byte	0x23d
 2401 0595 6B000000 		.4byte	0x6b
 2402 0599 59020000 		.4byte	.LLST16
 2403 059d 11       		.uleb128 0x11
 2404 059e 6900     		.ascii	"i\000"
 2405 05a0 01       		.byte	0x1
 2406 05a1 3E02     		.2byte	0x23e
 2407 05a3 6B000000 		.4byte	0x6b
 2408 05a7 83020000 		.4byte	.LLST17
 2409 05ab 14       		.uleb128 0x14
 2410 05ac 9A010000 		.4byte	.LASF65
 2411 05b0 01       		.byte	0x1
 2412 05b1 3F02     		.2byte	0x23f
 2413 05b3 6B000000 		.4byte	0x6b
 2414 05b7 F0020000 		.4byte	.LLST18
 2415 05bb 14       		.uleb128 0x14
 2416 05bc 02020000 		.4byte	.LASF74
 2417 05c0 01       		.byte	0x1
 2418 05c1 4002     		.2byte	0x240
 2419 05c3 4D050000 		.4byte	0x54d
 2420 05c7 30030000 		.4byte	.LLST19
 2421 05cb 14       		.uleb128 0x14
 2422 05cc 45030000 		.4byte	.LASF75
 2423 05d0 01       		.byte	0x1
 2424 05d1 4302     		.2byte	0x243
 2425 05d3 77000000 		.4byte	0x77
 2426 05d7 4F030000 		.4byte	.LLST20
 2427 05db 14       		.uleb128 0x14
 2428 05dc E2050000 		.4byte	.LASF62
 2429 05e0 01       		.byte	0x1
 2430 05e1 4602     		.2byte	0x246
 2431 05e3 40040000 		.4byte	0x440
 2432 05e7 85030000 		.4byte	.LLST21
 2433 05eb 11       		.uleb128 0x11
 2434 05ec 70455000 		.ascii	"pEP\000"
 2435 05f0 01       		.byte	0x1
ARM GAS  C:\Users\CHANTI~1\AppData\Local\Temp\cckZxxwg.s 			page 69


 2436 05f1 4702     		.2byte	0x247
 2437 05f3 D8040000 		.4byte	0x4d8
 2438 05f7 A5030000 		.4byte	.LLST22
 2439 05fb 16       		.uleb128 0x16
 2440 05fc 60000000 		.4byte	.LVL50
 2441 0600 05040000 		.4byte	0x405
 2442 0604 16       		.uleb128 0x16
 2443 0605 7C010000 		.4byte	.LVL75
 2444 0609 F9040000 		.4byte	0x4f9
 2445 060d 16       		.uleb128 0x16
 2446 060e A6010000 		.4byte	.LVL82
 2447 0612 BA030000 		.4byte	0x3ba
 2448 0616 00       		.byte	0
 2449 0617 10       		.uleb128 0x10
 2450 0618 3F020000 		.4byte	.LASF76
 2451 061c 01       		.byte	0x1
 2452 061d 3004     		.2byte	0x430
 2453 061f 00000000 		.4byte	.LFB8
 2454 0623 4C000000 		.4byte	.LFE8-.LFB8
 2455 0627 01       		.uleb128 0x1
 2456 0628 9C       		.byte	0x9c
 2457 0629 3E060000 		.4byte	0x63e
 2458 062d 13       		.uleb128 0x13
 2459 062e B3000000 		.4byte	.LASF77
 2460 0632 01       		.byte	0x1
 2461 0633 3004     		.2byte	0x430
 2462 0635 6B000000 		.4byte	0x6b
 2463 0639 DB030000 		.4byte	.LLST23
 2464 063d 00       		.byte	0
 2465 063e 12       		.uleb128 0x12
 2466 063f 37000000 		.4byte	.LASF78
 2467 0643 01       		.byte	0x1
 2468 0644 5904     		.2byte	0x459
 2469 0646 6B000000 		.4byte	0x6b
 2470 064a 00000000 		.4byte	.LFB9
 2471 064e 64000000 		.4byte	.LFE9-.LFB9
 2472 0652 01       		.uleb128 0x1
 2473 0653 9C       		.byte	0x9c
 2474 0654 81060000 		.4byte	0x681
 2475 0658 14       		.uleb128 0x14
 2476 0659 43050000 		.4byte	.LASF79
 2477 065d 01       		.byte	0x1
 2478 065e 5B04     		.2byte	0x45b
 2479 0660 6B000000 		.4byte	0x6b
 2480 0664 04040000 		.4byte	.LLST24
 2481 0668 11       		.uleb128 0x11
 2482 0669 657000   		.ascii	"ep\000"
 2483 066c 01       		.byte	0x1
 2484 066d 5C04     		.2byte	0x45c
 2485 066f 6B000000 		.4byte	0x6b
 2486 0673 3A040000 		.4byte	.LLST25
 2487 0677 16       		.uleb128 0x16
 2488 0678 52000000 		.4byte	.LVL93
 2489 067c 74090000 		.4byte	0x974
 2490 0680 00       		.byte	0
 2491 0681 12       		.uleb128 0x12
 2492 0682 82050000 		.4byte	.LASF80
ARM GAS  C:\Users\CHANTI~1\AppData\Local\Temp\cckZxxwg.s 			page 70


 2493 0686 01       		.byte	0x1
 2494 0687 8A04     		.2byte	0x48a
 2495 0689 6B000000 		.4byte	0x6b
 2496 068d 00000000 		.4byte	.LFB10
 2497 0691 AC000000 		.4byte	.LFE10-.LFB10
 2498 0695 01       		.uleb128 0x1
 2499 0696 9C       		.byte	0x9c
 2500 0697 C4060000 		.4byte	0x6c4
 2501 069b 14       		.uleb128 0x14
 2502 069c 43050000 		.4byte	.LASF79
 2503 06a0 01       		.byte	0x1
 2504 06a1 8C04     		.2byte	0x48c
 2505 06a3 6B000000 		.4byte	0x6b
 2506 06a7 63040000 		.4byte	.LLST26
 2507 06ab 11       		.uleb128 0x11
 2508 06ac 657000   		.ascii	"ep\000"
 2509 06af 01       		.byte	0x1
 2510 06b0 8D04     		.2byte	0x48d
 2511 06b2 6B000000 		.4byte	0x6b
 2512 06b6 8E040000 		.4byte	.LLST27
 2513 06ba 16       		.uleb128 0x16
 2514 06bb 98000000 		.4byte	.LVL106
 2515 06bf 74090000 		.4byte	0x974
 2516 06c3 00       		.byte	0
 2517 06c4 12       		.uleb128 0x12
 2518 06c5 70010000 		.4byte	.LASF81
 2519 06c9 01       		.byte	0x1
 2520 06ca CF04     		.2byte	0x4cf
 2521 06cc 6B000000 		.4byte	0x6b
 2522 06d0 00000000 		.4byte	.LFB11
 2523 06d4 4C000000 		.4byte	.LFE11-.LFB11
 2524 06d8 01       		.uleb128 0x1
 2525 06d9 9C       		.byte	0x9c
 2526 06da 28070000 		.4byte	0x728
 2527 06de 14       		.uleb128 0x14
 2528 06df 43050000 		.4byte	.LASF79
 2529 06e3 01       		.byte	0x1
 2530 06e4 D104     		.2byte	0x4d1
 2531 06e6 6B000000 		.4byte	0x6b
 2532 06ea CD040000 		.4byte	.LLST28
 2533 06ee 14       		.uleb128 0x14
 2534 06ef 92030000 		.4byte	.LASF66
 2535 06f3 01       		.byte	0x1
 2536 06f4 D304     		.2byte	0x4d3
 2537 06f6 6B000000 		.4byte	0x6b
 2538 06fa 04050000 		.4byte	.LLST29
 2539 06fe 14       		.uleb128 0x14
 2540 06ff D1050000 		.4byte	.LASF82
 2541 0703 01       		.byte	0x1
 2542 0704 D404     		.2byte	0x4d4
 2543 0706 6B000000 		.4byte	0x6b
 2544 070a 17050000 		.4byte	.LLST30
 2545 070e 14       		.uleb128 0x14
 2546 070f E2050000 		.4byte	.LASF62
 2547 0713 01       		.byte	0x1
 2548 0714 D504     		.2byte	0x4d5
 2549 0716 40040000 		.4byte	0x440
ARM GAS  C:\Users\CHANTI~1\AppData\Local\Temp\cckZxxwg.s 			page 71


 2550 071a 44050000 		.4byte	.LLST31
 2551 071e 16       		.uleb128 0x16
 2552 071f 14000000 		.4byte	.LVL110
 2553 0723 05040000 		.4byte	0x405
 2554 0727 00       		.byte	0
 2555 0728 18       		.uleb128 0x18
 2556 0729 99020000 		.4byte	.LASF83
 2557 072d 01       		.byte	0x1
 2558 072e 54       		.byte	0x54
 2559 072f 6B000000 		.4byte	0x6b
 2560 0733 00000000 		.4byte	.LFB0
 2561 0737 C4020000 		.4byte	.LFE0-.LFB0
 2562 073b 01       		.uleb128 0x1
 2563 073c 9C       		.byte	0x9c
 2564 073d 79080000 		.4byte	0x879
 2565 0741 19       		.uleb128 0x19
 2566 0742 43050000 		.4byte	.LASF79
 2567 0746 01       		.byte	0x1
 2568 0747 56       		.byte	0x56
 2569 0748 6B000000 		.4byte	0x6b
 2570 074c 62050000 		.4byte	.LLST32
 2571 0750 19       		.uleb128 0x19
 2572 0751 72050000 		.4byte	.LASF84
 2573 0755 01       		.byte	0x1
 2574 0756 57       		.byte	0x57
 2575 0757 6B000000 		.4byte	0x6b
 2576 075b F1060000 		.4byte	.LLST33
 2577 075f 19       		.uleb128 0x19
 2578 0760 C3030000 		.4byte	.LASF85
 2579 0764 01       		.byte	0x1
 2580 0765 58       		.byte	0x58
 2581 0766 6B000000 		.4byte	0x6b
 2582 076a 04070000 		.4byte	.LLST34
 2583 076e 19       		.uleb128 0x19
 2584 076f A1010000 		.4byte	.LASF86
 2585 0773 01       		.byte	0x1
 2586 0774 59       		.byte	0x59
 2587 0775 6B000000 		.4byte	0x6b
 2588 0779 17070000 		.4byte	.LLST35
 2589 077d 1A       		.uleb128 0x1a
 2590 077e 2C050000 		.4byte	.LASF87
 2591 0782 01       		.byte	0x1
 2592 0783 63       		.byte	0x63
 2593 0784 89080000 		.4byte	0x889
 2594 0788 05       		.uleb128 0x5
 2595 0789 03       		.byte	0x3
 2596 078a 00000000 		.4byte	USB_tBuffer.5176
 2597 078e 19       		.uleb128 0x19
 2598 078f E2050000 		.4byte	.LASF62
 2599 0793 01       		.byte	0x1
 2600 0794 64       		.byte	0x64
 2601 0795 40040000 		.4byte	0x440
 2602 0799 98070000 		.4byte	.LLST36
 2603 079d 16       		.uleb128 0x16
 2604 079e 48000000 		.4byte	.LVL121
 2605 07a2 E3040000 		.4byte	0x4e3
 2606 07a6 16       		.uleb128 0x16
ARM GAS  C:\Users\CHANTI~1\AppData\Local\Temp\cckZxxwg.s 			page 72


 2607 07a7 56000000 		.4byte	.LVL122
 2608 07ab 7F090000 		.4byte	0x97f
 2609 07af 16       		.uleb128 0x16
 2610 07b0 6A000000 		.4byte	.LVL124
 2611 07b4 05040000 		.4byte	0x405
 2612 07b8 16       		.uleb128 0x16
 2613 07b9 88000000 		.4byte	.LVL125
 2614 07bd 7F090000 		.4byte	0x97f
 2615 07c1 16       		.uleb128 0x16
 2616 07c2 8E000000 		.4byte	.LVL127
 2617 07c6 8A090000 		.4byte	0x98a
 2618 07ca 16       		.uleb128 0x16
 2619 07cb C4000000 		.4byte	.LVL130
 2620 07cf 7F090000 		.4byte	0x97f
 2621 07d3 16       		.uleb128 0x16
 2622 07d4 E0000000 		.4byte	.LVL132
 2623 07d8 7F090000 		.4byte	0x97f
 2624 07dc 16       		.uleb128 0x16
 2625 07dd F0000000 		.4byte	.LVL135
 2626 07e1 7F090000 		.4byte	0x97f
 2627 07e5 16       		.uleb128 0x16
 2628 07e6 06010000 		.4byte	.LVL138
 2629 07ea 7F090000 		.4byte	0x97f
 2630 07ee 16       		.uleb128 0x16
 2631 07ef 32010000 		.4byte	.LVL141
 2632 07f3 74090000 		.4byte	0x974
 2633 07f7 1B       		.uleb128 0x1b
 2634 07f8 46010000 		.4byte	.LVL145
 2635 07fc 05040000 		.4byte	0x405
 2636 0800 0B080000 		.4byte	0x80b
 2637 0804 1C       		.uleb128 0x1c
 2638 0805 01       		.uleb128 0x1
 2639 0806 50       		.byte	0x50
 2640 0807 02       		.uleb128 0x2
 2641 0808 74       		.byte	0x74
 2642 0809 7F       		.sleb128 -1
 2643 080a 00       		.byte	0
 2644 080b 1B       		.uleb128 0x1b
 2645 080c 68010000 		.4byte	.LVL147
 2646 0810 58050000 		.4byte	0x558
 2647 0814 1E080000 		.4byte	0x81e
 2648 0818 1C       		.uleb128 0x1c
 2649 0819 01       		.uleb128 0x1
 2650 081a 50       		.byte	0x50
 2651 081b 01       		.uleb128 0x1
 2652 081c 31       		.byte	0x31
 2653 081d 00       		.byte	0
 2654 081e 16       		.uleb128 0x16
 2655 081f 6C010000 		.4byte	.LVL148
 2656 0823 74090000 		.4byte	0x974
 2657 0827 16       		.uleb128 0x16
 2658 0828 72010000 		.4byte	.LVL150
 2659 082c C4060000 		.4byte	0x6c4
 2660 0830 16       		.uleb128 0x16
 2661 0831 A0010000 		.4byte	.LVL153
 2662 0835 4B040000 		.4byte	0x44b
 2663 0839 16       		.uleb128 0x16
ARM GAS  C:\Users\CHANTI~1\AppData\Local\Temp\cckZxxwg.s 			page 73


 2664 083a A4010000 		.4byte	.LVL154
 2665 083e 74090000 		.4byte	0x974
 2666 0842 16       		.uleb128 0x16
 2667 0843 C2010000 		.4byte	.LVL157
 2668 0847 81060000 		.4byte	0x681
 2669 084b 16       		.uleb128 0x16
 2670 084c DC010000 		.4byte	.LVL159
 2671 0850 74090000 		.4byte	0x974
 2672 0854 16       		.uleb128 0x16
 2673 0855 FE010000 		.4byte	.LVL161
 2674 0859 74090000 		.4byte	0x974
 2675 085d 16       		.uleb128 0x16
 2676 085e 1C020000 		.4byte	.LVL164
 2677 0862 3E060000 		.4byte	0x63e
 2678 0866 16       		.uleb128 0x16
 2679 0867 36020000 		.4byte	.LVL166
 2680 086b 74090000 		.4byte	0x974
 2681 086f 16       		.uleb128 0x16
 2682 0870 58020000 		.4byte	.LVL168
 2683 0874 74090000 		.4byte	0x974
 2684 0878 00       		.byte	0
 2685 0879 0C       		.uleb128 0xc
 2686 087a A4000000 		.4byte	0xa4
 2687 087e 89080000 		.4byte	0x889
 2688 0882 0D       		.uleb128 0xd
 2689 0883 B0000000 		.4byte	0xb0
 2690 0887 01       		.byte	0x1
 2691 0888 00       		.byte	0
 2692 0889 05       		.uleb128 0x5
 2693 088a 79080000 		.4byte	0x879
 2694 088e 1D       		.uleb128 0x1d
 2695 088f 56030000 		.4byte	.LASF88
 2696 0893 03       		.byte	0x3
 2697 0894 D102     		.2byte	0x2d1
 2698 0896 A4000000 		.4byte	0xa4
 2699 089a 1D       		.uleb128 0x1d
 2700 089b 25000000 		.4byte	.LASF89
 2701 089f 03       		.byte	0x3
 2702 08a0 D302     		.2byte	0x2d3
 2703 08a2 A4000000 		.4byte	0xa4
 2704 08a6 1D       		.uleb128 0x1d
 2705 08a7 2E060000 		.4byte	.LASF90
 2706 08ab 03       		.byte	0x3
 2707 08ac D402     		.2byte	0x2d4
 2708 08ae A4000000 		.4byte	0xa4
 2709 08b2 1D       		.uleb128 0x1d
 2710 08b3 4F020000 		.4byte	.LASF91
 2711 08b7 03       		.byte	0x3
 2712 08b8 D502     		.2byte	0x2d5
 2713 08ba A4000000 		.4byte	0xa4
 2714 08be 0C       		.uleb128 0xc
 2715 08bf 46040000 		.4byte	0x446
 2716 08c3 CE080000 		.4byte	0x8ce
 2717 08c7 0D       		.uleb128 0xd
 2718 08c8 B0000000 		.4byte	0xb0
 2719 08cc 00       		.byte	0
 2720 08cd 00       		.byte	0
ARM GAS  C:\Users\CHANTI~1\AppData\Local\Temp\cckZxxwg.s 			page 74


 2721 08ce 1E       		.uleb128 0x1e
 2722 08cf 04010000 		.4byte	.LASF92
 2723 08d3 04       		.byte	0x4
 2724 08d4 68       		.byte	0x68
 2725 08d5 D9080000 		.4byte	0x8d9
 2726 08d9 15       		.uleb128 0x15
 2727 08da BE080000 		.4byte	0x8be
 2728 08de 1E       		.uleb128 0x1e
 2729 08df 47060000 		.4byte	.LASF93
 2730 08e3 04       		.byte	0x4
 2731 08e4 73       		.byte	0x73
 2732 08e5 A4000000 		.4byte	0xa4
 2733 08e9 0C       		.uleb128 0xc
 2734 08ea A4000000 		.4byte	0xa4
 2735 08ee F9080000 		.4byte	0x8f9
 2736 08f2 0D       		.uleb128 0xd
 2737 08f3 B0000000 		.4byte	0xb0
 2738 08f7 00       		.byte	0
 2739 08f8 00       		.byte	0
 2740 08f9 1E       		.uleb128 0x1e
 2741 08fa 7D000000 		.4byte	.LASF94
 2742 08fe 04       		.byte	0x4
 2743 08ff 74       		.byte	0x74
 2744 0900 04090000 		.4byte	0x904
 2745 0904 05       		.uleb128 0x5
 2746 0905 E9080000 		.4byte	0x8e9
 2747 0909 1E       		.uleb128 0x1e
 2748 090a 51010000 		.4byte	.LASF95
 2749 090e 04       		.byte	0x4
 2750 090f 75       		.byte	0x75
 2751 0910 14090000 		.4byte	0x914
 2752 0914 05       		.uleb128 0x5
 2753 0915 E9080000 		.4byte	0x8e9
 2754 0919 1E       		.uleb128 0x1e
 2755 091a D2030000 		.4byte	.LASF96
 2756 091e 04       		.byte	0x4
 2757 091f 76       		.byte	0x76
 2758 0920 A4000000 		.4byte	0xa4
 2759 0924 1E       		.uleb128 0x1e
 2760 0925 08050000 		.4byte	.LASF97
 2761 0929 04       		.byte	0x4
 2762 092a 77       		.byte	0x77
 2763 092b 2F090000 		.4byte	0x92f
 2764 092f 05       		.uleb128 0x5
 2765 0930 E9080000 		.4byte	0x8e9
 2766 0934 1E       		.uleb128 0x1e
 2767 0935 A5030000 		.4byte	.LASF98
 2768 0939 04       		.byte	0x4
 2769 093a 78       		.byte	0x78
 2770 093b 4D050000 		.4byte	0x54d
 2771 093f 0C       		.uleb128 0xc
 2772 0940 4F090000 		.4byte	0x94f
 2773 0944 4F090000 		.4byte	0x94f
 2774 0948 0D       		.uleb128 0xd
 2775 0949 B0000000 		.4byte	0xb0
 2776 094d 08       		.byte	0x8
 2777 094e 00       		.byte	0
ARM GAS  C:\Users\CHANTI~1\AppData\Local\Temp\cckZxxwg.s 			page 75


 2778 094f 05       		.uleb128 0x5
 2779 0950 2C010000 		.4byte	0x12c
 2780 0954 1E       		.uleb128 0x1e
 2781 0955 85030000 		.4byte	.LASF99
 2782 0959 04       		.byte	0x4
 2783 095a 7A       		.byte	0x7a
 2784 095b 5F090000 		.4byte	0x95f
 2785 095f 05       		.uleb128 0x5
 2786 0960 3F090000 		.4byte	0x93f
 2787 0964 1E       		.uleb128 0x1e
 2788 0965 A5000000 		.4byte	.LASF100
 2789 0969 04       		.byte	0x4
 2790 096a 7B       		.byte	0x7b
 2791 096b 6F090000 		.4byte	0x96f
 2792 096f 05       		.uleb128 0x5
 2793 0970 F8010000 		.4byte	0x1f8
 2794 0974 1F       		.uleb128 0x1f
 2795 0975 08060000 		.4byte	.LASF101
 2796 0979 08060000 		.4byte	.LASF101
 2797 097d 04       		.byte	0x4
 2798 097e B4       		.byte	0xb4
 2799 097f 1F       		.uleb128 0x1f
 2800 0980 BD050000 		.4byte	.LASF102
 2801 0984 BD050000 		.4byte	.LASF102
 2802 0988 04       		.byte	0x4
 2803 0989 AA       		.byte	0xaa
 2804 098a 20       		.uleb128 0x20
 2805 098b 30040000 		.4byte	.LASF103
 2806 098f 30040000 		.4byte	.LASF103
 2807 0993 04       		.byte	0x4
 2808 0994 5001     		.2byte	0x150
 2809 0996 00       		.byte	0
 2810              		.section	.debug_abbrev,"",%progbits
 2811              	.Ldebug_abbrev0:
 2812 0000 01       		.uleb128 0x1
 2813 0001 11       		.uleb128 0x11
 2814 0002 01       		.byte	0x1
 2815 0003 25       		.uleb128 0x25
 2816 0004 0E       		.uleb128 0xe
 2817 0005 13       		.uleb128 0x13
 2818 0006 0B       		.uleb128 0xb
 2819 0007 03       		.uleb128 0x3
 2820 0008 0E       		.uleb128 0xe
 2821 0009 1B       		.uleb128 0x1b
 2822 000a 0E       		.uleb128 0xe
 2823 000b 55       		.uleb128 0x55
 2824 000c 17       		.uleb128 0x17
 2825 000d 11       		.uleb128 0x11
 2826 000e 01       		.uleb128 0x1
 2827 000f 10       		.uleb128 0x10
 2828 0010 17       		.uleb128 0x17
 2829 0011 00       		.byte	0
 2830 0012 00       		.byte	0
 2831 0013 02       		.uleb128 0x2
 2832 0014 24       		.uleb128 0x24
 2833 0015 00       		.byte	0
 2834 0016 0B       		.uleb128 0xb
ARM GAS  C:\Users\CHANTI~1\AppData\Local\Temp\cckZxxwg.s 			page 76


 2835 0017 0B       		.uleb128 0xb
 2836 0018 3E       		.uleb128 0x3e
 2837 0019 0B       		.uleb128 0xb
 2838 001a 03       		.uleb128 0x3
 2839 001b 0E       		.uleb128 0xe
 2840 001c 00       		.byte	0
 2841 001d 00       		.byte	0
 2842 001e 03       		.uleb128 0x3
 2843 001f 24       		.uleb128 0x24
 2844 0020 00       		.byte	0
 2845 0021 0B       		.uleb128 0xb
 2846 0022 0B       		.uleb128 0xb
 2847 0023 3E       		.uleb128 0x3e
 2848 0024 0B       		.uleb128 0xb
 2849 0025 03       		.uleb128 0x3
 2850 0026 08       		.uleb128 0x8
 2851 0027 00       		.byte	0
 2852 0028 00       		.byte	0
 2853 0029 04       		.uleb128 0x4
 2854 002a 16       		.uleb128 0x16
 2855 002b 00       		.byte	0
 2856 002c 03       		.uleb128 0x3
 2857 002d 0E       		.uleb128 0xe
 2858 002e 3A       		.uleb128 0x3a
 2859 002f 0B       		.uleb128 0xb
 2860 0030 3B       		.uleb128 0x3b
 2861 0031 05       		.uleb128 0x5
 2862 0032 49       		.uleb128 0x49
 2863 0033 13       		.uleb128 0x13
 2864 0034 00       		.byte	0
 2865 0035 00       		.byte	0
 2866 0036 05       		.uleb128 0x5
 2867 0037 35       		.uleb128 0x35
 2868 0038 00       		.byte	0
 2869 0039 49       		.uleb128 0x49
 2870 003a 13       		.uleb128 0x13
 2871 003b 00       		.byte	0
 2872 003c 00       		.byte	0
 2873 003d 06       		.uleb128 0x6
 2874 003e 13       		.uleb128 0x13
 2875 003f 01       		.byte	0x1
 2876 0040 0B       		.uleb128 0xb
 2877 0041 0B       		.uleb128 0xb
 2878 0042 3A       		.uleb128 0x3a
 2879 0043 0B       		.uleb128 0xb
 2880 0044 3B       		.uleb128 0x3b
 2881 0045 0B       		.uleb128 0xb
 2882 0046 01       		.uleb128 0x1
 2883 0047 13       		.uleb128 0x13
 2884 0048 00       		.byte	0
 2885 0049 00       		.byte	0
 2886 004a 07       		.uleb128 0x7
 2887 004b 0D       		.uleb128 0xd
 2888 004c 00       		.byte	0
 2889 004d 03       		.uleb128 0x3
 2890 004e 0E       		.uleb128 0xe
 2891 004f 3A       		.uleb128 0x3a
ARM GAS  C:\Users\CHANTI~1\AppData\Local\Temp\cckZxxwg.s 			page 77


 2892 0050 0B       		.uleb128 0xb
 2893 0051 3B       		.uleb128 0x3b
 2894 0052 0B       		.uleb128 0xb
 2895 0053 49       		.uleb128 0x49
 2896 0054 13       		.uleb128 0x13
 2897 0055 38       		.uleb128 0x38
 2898 0056 0B       		.uleb128 0xb
 2899 0057 00       		.byte	0
 2900 0058 00       		.byte	0
 2901 0059 08       		.uleb128 0x8
 2902 005a 16       		.uleb128 0x16
 2903 005b 00       		.byte	0
 2904 005c 03       		.uleb128 0x3
 2905 005d 0E       		.uleb128 0xe
 2906 005e 3A       		.uleb128 0x3a
 2907 005f 0B       		.uleb128 0xb
 2908 0060 3B       		.uleb128 0x3b
 2909 0061 0B       		.uleb128 0xb
 2910 0062 49       		.uleb128 0x49
 2911 0063 13       		.uleb128 0x13
 2912 0064 00       		.byte	0
 2913 0065 00       		.byte	0
 2914 0066 09       		.uleb128 0x9
 2915 0067 0F       		.uleb128 0xf
 2916 0068 00       		.byte	0
 2917 0069 0B       		.uleb128 0xb
 2918 006a 0B       		.uleb128 0xb
 2919 006b 49       		.uleb128 0x49
 2920 006c 13       		.uleb128 0x13
 2921 006d 00       		.byte	0
 2922 006e 00       		.byte	0
 2923 006f 0A       		.uleb128 0xa
 2924 0070 0D       		.uleb128 0xd
 2925 0071 00       		.byte	0
 2926 0072 03       		.uleb128 0x3
 2927 0073 08       		.uleb128 0x8
 2928 0074 3A       		.uleb128 0x3a
 2929 0075 0B       		.uleb128 0xb
 2930 0076 3B       		.uleb128 0x3b
 2931 0077 0B       		.uleb128 0xb
 2932 0078 49       		.uleb128 0x49
 2933 0079 13       		.uleb128 0x13
 2934 007a 38       		.uleb128 0x38
 2935 007b 0B       		.uleb128 0xb
 2936 007c 00       		.byte	0
 2937 007d 00       		.byte	0
 2938 007e 0B       		.uleb128 0xb
 2939 007f 26       		.uleb128 0x26
 2940 0080 00       		.byte	0
 2941 0081 00       		.byte	0
 2942 0082 00       		.byte	0
 2943 0083 0C       		.uleb128 0xc
 2944 0084 01       		.uleb128 0x1
 2945 0085 01       		.byte	0x1
 2946 0086 49       		.uleb128 0x49
 2947 0087 13       		.uleb128 0x13
 2948 0088 01       		.uleb128 0x1
ARM GAS  C:\Users\CHANTI~1\AppData\Local\Temp\cckZxxwg.s 			page 78


 2949 0089 13       		.uleb128 0x13
 2950 008a 00       		.byte	0
 2951 008b 00       		.byte	0
 2952 008c 0D       		.uleb128 0xd
 2953 008d 21       		.uleb128 0x21
 2954 008e 00       		.byte	0
 2955 008f 49       		.uleb128 0x49
 2956 0090 13       		.uleb128 0x13
 2957 0091 2F       		.uleb128 0x2f
 2958 0092 0B       		.uleb128 0xb
 2959 0093 00       		.byte	0
 2960 0094 00       		.byte	0
 2961 0095 0E       		.uleb128 0xe
 2962 0096 13       		.uleb128 0x13
 2963 0097 01       		.byte	0x1
 2964 0098 0B       		.uleb128 0xb
 2965 0099 0B       		.uleb128 0xb
 2966 009a 3A       		.uleb128 0x3a
 2967 009b 0B       		.uleb128 0xb
 2968 009c 3B       		.uleb128 0x3b
 2969 009d 05       		.uleb128 0x5
 2970 009e 01       		.uleb128 0x1
 2971 009f 13       		.uleb128 0x13
 2972 00a0 00       		.byte	0
 2973 00a1 00       		.byte	0
 2974 00a2 0F       		.uleb128 0xf
 2975 00a3 0D       		.uleb128 0xd
 2976 00a4 00       		.byte	0
 2977 00a5 03       		.uleb128 0x3
 2978 00a6 0E       		.uleb128 0xe
 2979 00a7 3A       		.uleb128 0x3a
 2980 00a8 0B       		.uleb128 0xb
 2981 00a9 3B       		.uleb128 0x3b
 2982 00aa 05       		.uleb128 0x5
 2983 00ab 49       		.uleb128 0x49
 2984 00ac 13       		.uleb128 0x13
 2985 00ad 38       		.uleb128 0x38
 2986 00ae 0B       		.uleb128 0xb
 2987 00af 00       		.byte	0
 2988 00b0 00       		.byte	0
 2989 00b1 10       		.uleb128 0x10
 2990 00b2 2E       		.uleb128 0x2e
 2991 00b3 01       		.byte	0x1
 2992 00b4 3F       		.uleb128 0x3f
 2993 00b5 19       		.uleb128 0x19
 2994 00b6 03       		.uleb128 0x3
 2995 00b7 0E       		.uleb128 0xe
 2996 00b8 3A       		.uleb128 0x3a
 2997 00b9 0B       		.uleb128 0xb
 2998 00ba 3B       		.uleb128 0x3b
 2999 00bb 05       		.uleb128 0x5
 3000 00bc 27       		.uleb128 0x27
 3001 00bd 19       		.uleb128 0x19
 3002 00be 11       		.uleb128 0x11
 3003 00bf 01       		.uleb128 0x1
 3004 00c0 12       		.uleb128 0x12
 3005 00c1 06       		.uleb128 0x6
ARM GAS  C:\Users\CHANTI~1\AppData\Local\Temp\cckZxxwg.s 			page 79


 3006 00c2 40       		.uleb128 0x40
 3007 00c3 18       		.uleb128 0x18
 3008 00c4 9742     		.uleb128 0x2117
 3009 00c6 19       		.uleb128 0x19
 3010 00c7 01       		.uleb128 0x1
 3011 00c8 13       		.uleb128 0x13
 3012 00c9 00       		.byte	0
 3013 00ca 00       		.byte	0
 3014 00cb 11       		.uleb128 0x11
 3015 00cc 34       		.uleb128 0x34
 3016 00cd 00       		.byte	0
 3017 00ce 03       		.uleb128 0x3
 3018 00cf 08       		.uleb128 0x8
 3019 00d0 3A       		.uleb128 0x3a
 3020 00d1 0B       		.uleb128 0xb
 3021 00d2 3B       		.uleb128 0x3b
 3022 00d3 05       		.uleb128 0x5
 3023 00d4 49       		.uleb128 0x49
 3024 00d5 13       		.uleb128 0x13
 3025 00d6 02       		.uleb128 0x2
 3026 00d7 17       		.uleb128 0x17
 3027 00d8 00       		.byte	0
 3028 00d9 00       		.byte	0
 3029 00da 12       		.uleb128 0x12
 3030 00db 2E       		.uleb128 0x2e
 3031 00dc 01       		.byte	0x1
 3032 00dd 3F       		.uleb128 0x3f
 3033 00de 19       		.uleb128 0x19
 3034 00df 03       		.uleb128 0x3
 3035 00e0 0E       		.uleb128 0xe
 3036 00e1 3A       		.uleb128 0x3a
 3037 00e2 0B       		.uleb128 0xb
 3038 00e3 3B       		.uleb128 0x3b
 3039 00e4 05       		.uleb128 0x5
 3040 00e5 27       		.uleb128 0x27
 3041 00e6 19       		.uleb128 0x19
 3042 00e7 49       		.uleb128 0x49
 3043 00e8 13       		.uleb128 0x13
 3044 00e9 11       		.uleb128 0x11
 3045 00ea 01       		.uleb128 0x1
 3046 00eb 12       		.uleb128 0x12
 3047 00ec 06       		.uleb128 0x6
 3048 00ed 40       		.uleb128 0x40
 3049 00ee 18       		.uleb128 0x18
 3050 00ef 9742     		.uleb128 0x2117
 3051 00f1 19       		.uleb128 0x19
 3052 00f2 01       		.uleb128 0x1
 3053 00f3 13       		.uleb128 0x13
 3054 00f4 00       		.byte	0
 3055 00f5 00       		.byte	0
 3056 00f6 13       		.uleb128 0x13
 3057 00f7 05       		.uleb128 0x5
 3058 00f8 00       		.byte	0
 3059 00f9 03       		.uleb128 0x3
 3060 00fa 0E       		.uleb128 0xe
 3061 00fb 3A       		.uleb128 0x3a
 3062 00fc 0B       		.uleb128 0xb
ARM GAS  C:\Users\CHANTI~1\AppData\Local\Temp\cckZxxwg.s 			page 80


 3063 00fd 3B       		.uleb128 0x3b
 3064 00fe 05       		.uleb128 0x5
 3065 00ff 49       		.uleb128 0x49
 3066 0100 13       		.uleb128 0x13
 3067 0101 02       		.uleb128 0x2
 3068 0102 17       		.uleb128 0x17
 3069 0103 00       		.byte	0
 3070 0104 00       		.byte	0
 3071 0105 14       		.uleb128 0x14
 3072 0106 34       		.uleb128 0x34
 3073 0107 00       		.byte	0
 3074 0108 03       		.uleb128 0x3
 3075 0109 0E       		.uleb128 0xe
 3076 010a 3A       		.uleb128 0x3a
 3077 010b 0B       		.uleb128 0xb
 3078 010c 3B       		.uleb128 0x3b
 3079 010d 05       		.uleb128 0x5
 3080 010e 49       		.uleb128 0x49
 3081 010f 13       		.uleb128 0x13
 3082 0110 02       		.uleb128 0x2
 3083 0111 17       		.uleb128 0x17
 3084 0112 00       		.byte	0
 3085 0113 00       		.byte	0
 3086 0114 15       		.uleb128 0x15
 3087 0115 26       		.uleb128 0x26
 3088 0116 00       		.byte	0
 3089 0117 49       		.uleb128 0x49
 3090 0118 13       		.uleb128 0x13
 3091 0119 00       		.byte	0
 3092 011a 00       		.byte	0
 3093 011b 16       		.uleb128 0x16
 3094 011c 898201   		.uleb128 0x4109
 3095 011f 00       		.byte	0
 3096 0120 11       		.uleb128 0x11
 3097 0121 01       		.uleb128 0x1
 3098 0122 31       		.uleb128 0x31
 3099 0123 13       		.uleb128 0x13
 3100 0124 00       		.byte	0
 3101 0125 00       		.byte	0
 3102 0126 17       		.uleb128 0x17
 3103 0127 2E       		.uleb128 0x2e
 3104 0128 00       		.byte	0
 3105 0129 3F       		.uleb128 0x3f
 3106 012a 19       		.uleb128 0x19
 3107 012b 03       		.uleb128 0x3
 3108 012c 0E       		.uleb128 0xe
 3109 012d 3A       		.uleb128 0x3a
 3110 012e 0B       		.uleb128 0xb
 3111 012f 3B       		.uleb128 0x3b
 3112 0130 05       		.uleb128 0x5
 3113 0131 27       		.uleb128 0x27
 3114 0132 19       		.uleb128 0x19
 3115 0133 49       		.uleb128 0x49
 3116 0134 13       		.uleb128 0x13
 3117 0135 11       		.uleb128 0x11
 3118 0136 01       		.uleb128 0x1
 3119 0137 12       		.uleb128 0x12
ARM GAS  C:\Users\CHANTI~1\AppData\Local\Temp\cckZxxwg.s 			page 81


 3120 0138 06       		.uleb128 0x6
 3121 0139 40       		.uleb128 0x40
 3122 013a 18       		.uleb128 0x18
 3123 013b 9742     		.uleb128 0x2117
 3124 013d 19       		.uleb128 0x19
 3125 013e 00       		.byte	0
 3126 013f 00       		.byte	0
 3127 0140 18       		.uleb128 0x18
 3128 0141 2E       		.uleb128 0x2e
 3129 0142 01       		.byte	0x1
 3130 0143 3F       		.uleb128 0x3f
 3131 0144 19       		.uleb128 0x19
 3132 0145 03       		.uleb128 0x3
 3133 0146 0E       		.uleb128 0xe
 3134 0147 3A       		.uleb128 0x3a
 3135 0148 0B       		.uleb128 0xb
 3136 0149 3B       		.uleb128 0x3b
 3137 014a 0B       		.uleb128 0xb
 3138 014b 27       		.uleb128 0x27
 3139 014c 19       		.uleb128 0x19
 3140 014d 49       		.uleb128 0x49
 3141 014e 13       		.uleb128 0x13
 3142 014f 11       		.uleb128 0x11
 3143 0150 01       		.uleb128 0x1
 3144 0151 12       		.uleb128 0x12
 3145 0152 06       		.uleb128 0x6
 3146 0153 40       		.uleb128 0x40
 3147 0154 18       		.uleb128 0x18
 3148 0155 9742     		.uleb128 0x2117
 3149 0157 19       		.uleb128 0x19
 3150 0158 01       		.uleb128 0x1
 3151 0159 13       		.uleb128 0x13
 3152 015a 00       		.byte	0
 3153 015b 00       		.byte	0
 3154 015c 19       		.uleb128 0x19
 3155 015d 34       		.uleb128 0x34
 3156 015e 00       		.byte	0
 3157 015f 03       		.uleb128 0x3
 3158 0160 0E       		.uleb128 0xe
 3159 0161 3A       		.uleb128 0x3a
 3160 0162 0B       		.uleb128 0xb
 3161 0163 3B       		.uleb128 0x3b
 3162 0164 0B       		.uleb128 0xb
 3163 0165 49       		.uleb128 0x49
 3164 0166 13       		.uleb128 0x13
 3165 0167 02       		.uleb128 0x2
 3166 0168 17       		.uleb128 0x17
 3167 0169 00       		.byte	0
 3168 016a 00       		.byte	0
 3169 016b 1A       		.uleb128 0x1a
 3170 016c 34       		.uleb128 0x34
 3171 016d 00       		.byte	0
 3172 016e 03       		.uleb128 0x3
 3173 016f 0E       		.uleb128 0xe
 3174 0170 3A       		.uleb128 0x3a
 3175 0171 0B       		.uleb128 0xb
 3176 0172 3B       		.uleb128 0x3b
ARM GAS  C:\Users\CHANTI~1\AppData\Local\Temp\cckZxxwg.s 			page 82


 3177 0173 0B       		.uleb128 0xb
 3178 0174 49       		.uleb128 0x49
 3179 0175 13       		.uleb128 0x13
 3180 0176 02       		.uleb128 0x2
 3181 0177 18       		.uleb128 0x18
 3182 0178 00       		.byte	0
 3183 0179 00       		.byte	0
 3184 017a 1B       		.uleb128 0x1b
 3185 017b 898201   		.uleb128 0x4109
 3186 017e 01       		.byte	0x1
 3187 017f 11       		.uleb128 0x11
 3188 0180 01       		.uleb128 0x1
 3189 0181 31       		.uleb128 0x31
 3190 0182 13       		.uleb128 0x13
 3191 0183 01       		.uleb128 0x1
 3192 0184 13       		.uleb128 0x13
 3193 0185 00       		.byte	0
 3194 0186 00       		.byte	0
 3195 0187 1C       		.uleb128 0x1c
 3196 0188 8A8201   		.uleb128 0x410a
 3197 018b 00       		.byte	0
 3198 018c 02       		.uleb128 0x2
 3199 018d 18       		.uleb128 0x18
 3200 018e 9142     		.uleb128 0x2111
 3201 0190 18       		.uleb128 0x18
 3202 0191 00       		.byte	0
 3203 0192 00       		.byte	0
 3204 0193 1D       		.uleb128 0x1d
 3205 0194 34       		.uleb128 0x34
 3206 0195 00       		.byte	0
 3207 0196 03       		.uleb128 0x3
 3208 0197 0E       		.uleb128 0xe
 3209 0198 3A       		.uleb128 0x3a
 3210 0199 0B       		.uleb128 0xb
 3211 019a 3B       		.uleb128 0x3b
 3212 019b 05       		.uleb128 0x5
 3213 019c 49       		.uleb128 0x49
 3214 019d 13       		.uleb128 0x13
 3215 019e 3F       		.uleb128 0x3f
 3216 019f 19       		.uleb128 0x19
 3217 01a0 3C       		.uleb128 0x3c
 3218 01a1 19       		.uleb128 0x19
 3219 01a2 00       		.byte	0
 3220 01a3 00       		.byte	0
 3221 01a4 1E       		.uleb128 0x1e
 3222 01a5 34       		.uleb128 0x34
 3223 01a6 00       		.byte	0
 3224 01a7 03       		.uleb128 0x3
 3225 01a8 0E       		.uleb128 0xe
 3226 01a9 3A       		.uleb128 0x3a
 3227 01aa 0B       		.uleb128 0xb
 3228 01ab 3B       		.uleb128 0x3b
 3229 01ac 0B       		.uleb128 0xb
 3230 01ad 49       		.uleb128 0x49
 3231 01ae 13       		.uleb128 0x13
 3232 01af 3F       		.uleb128 0x3f
 3233 01b0 19       		.uleb128 0x19
ARM GAS  C:\Users\CHANTI~1\AppData\Local\Temp\cckZxxwg.s 			page 83


 3234 01b1 3C       		.uleb128 0x3c
 3235 01b2 19       		.uleb128 0x19
 3236 01b3 00       		.byte	0
 3237 01b4 00       		.byte	0
 3238 01b5 1F       		.uleb128 0x1f
 3239 01b6 2E       		.uleb128 0x2e
 3240 01b7 00       		.byte	0
 3241 01b8 3F       		.uleb128 0x3f
 3242 01b9 19       		.uleb128 0x19
 3243 01ba 3C       		.uleb128 0x3c
 3244 01bb 19       		.uleb128 0x19
 3245 01bc 6E       		.uleb128 0x6e
 3246 01bd 0E       		.uleb128 0xe
 3247 01be 03       		.uleb128 0x3
 3248 01bf 0E       		.uleb128 0xe
 3249 01c0 3A       		.uleb128 0x3a
 3250 01c1 0B       		.uleb128 0xb
 3251 01c2 3B       		.uleb128 0x3b
 3252 01c3 0B       		.uleb128 0xb
 3253 01c4 00       		.byte	0
 3254 01c5 00       		.byte	0
 3255 01c6 20       		.uleb128 0x20
 3256 01c7 2E       		.uleb128 0x2e
 3257 01c8 00       		.byte	0
 3258 01c9 3F       		.uleb128 0x3f
 3259 01ca 19       		.uleb128 0x19
 3260 01cb 3C       		.uleb128 0x3c
 3261 01cc 19       		.uleb128 0x19
 3262 01cd 6E       		.uleb128 0x6e
 3263 01ce 0E       		.uleb128 0xe
 3264 01cf 03       		.uleb128 0x3
 3265 01d0 0E       		.uleb128 0xe
 3266 01d1 3A       		.uleb128 0x3a
 3267 01d2 0B       		.uleb128 0xb
 3268 01d3 3B       		.uleb128 0x3b
 3269 01d4 05       		.uleb128 0x5
 3270 01d5 00       		.byte	0
 3271 01d6 00       		.byte	0
 3272 01d7 00       		.byte	0
 3273              		.section	.debug_loc,"",%progbits
 3274              	.Ldebug_loc0:
 3275              	.LLST0:
 3276 0000 02000000 		.4byte	.LVL0
 3277 0004 06000000 		.4byte	.LVL1
 3278 0008 0200     		.2byte	0x2
 3279 000a 31       		.byte	0x31
 3280 000b 9F       		.byte	0x9f
 3281 000c 06000000 		.4byte	.LVL1
 3282 0010 82000000 		.4byte	.LVL2
 3283 0014 0100     		.2byte	0x1
 3284 0016 53       		.byte	0x53
 3285 0017 84000000 		.4byte	.LVL3
 3286 001b 8C000000 		.4byte	.LVL4
 3287 001f 0100     		.2byte	0x1
 3288 0021 53       		.byte	0x53
 3289 0022 00000000 		.4byte	0
 3290 0026 00000000 		.4byte	0
ARM GAS  C:\Users\CHANTI~1\AppData\Local\Temp\cckZxxwg.s 			page 84


 3291              	.LLST1:
 3292 002a 00000000 		.4byte	.LVL5
 3293 002e 04000000 		.4byte	.LVL6
 3294 0032 0200     		.2byte	0x2
 3295 0034 31       		.byte	0x31
 3296 0035 9F       		.byte	0x9f
 3297 0036 04000000 		.4byte	.LVL6
 3298 003a 36000000 		.4byte	.LVL7
 3299 003e 0100     		.2byte	0x1
 3300 0040 53       		.byte	0x53
 3301 0041 38000000 		.4byte	.LVL8
 3302 0045 44000000 		.4byte	.LFE2
 3303 0049 0100     		.2byte	0x1
 3304 004b 53       		.byte	0x53
 3305 004c 00000000 		.4byte	0
 3306 0050 00000000 		.4byte	0
 3307              	.LLST2:
 3308 0054 00000000 		.4byte	.LVL9
 3309 0058 14000000 		.4byte	.LVL11
 3310 005c 0100     		.2byte	0x1
 3311 005e 50       		.byte	0x50
 3312 005f 14000000 		.4byte	.LVL11
 3313 0063 1C000000 		.4byte	.LVL13
 3314 0067 0400     		.2byte	0x4
 3315 0069 F3       		.byte	0xf3
 3316 006a 01       		.uleb128 0x1
 3317 006b 50       		.byte	0x50
 3318 006c 9F       		.byte	0x9f
 3319 006d 1C000000 		.4byte	.LVL13
 3320 0071 1E000000 		.4byte	.LVL14
 3321 0075 0100     		.2byte	0x1
 3322 0077 50       		.byte	0x50
 3323 0078 1E000000 		.4byte	.LVL14
 3324 007c 28000000 		.4byte	.LFE5
 3325 0080 0400     		.2byte	0x4
 3326 0082 F3       		.byte	0xf3
 3327 0083 01       		.uleb128 0x1
 3328 0084 50       		.byte	0x50
 3329 0085 9F       		.byte	0x9f
 3330 0086 00000000 		.4byte	0
 3331 008a 00000000 		.4byte	0
 3332              	.LLST3:
 3333 008e 0C000000 		.4byte	.LVL10
 3334 0092 1A000000 		.4byte	.LVL12
 3335 0096 0300     		.2byte	0x3
 3336 0098 73       		.byte	0x73
 3337 0099 10       		.sleb128 16
 3338 009a 9F       		.byte	0x9f
 3339 009b 1A000000 		.4byte	.LVL12
 3340 009f 1C000000 		.4byte	.LVL13
 3341 00a3 0100     		.2byte	0x1
 3342 00a5 50       		.byte	0x50
 3343 00a6 1C000000 		.4byte	.LVL13
 3344 00aa 1E000000 		.4byte	.LVL14
 3345 00ae 0300     		.2byte	0x3
 3346 00b0 73       		.byte	0x73
 3347 00b1 10       		.sleb128 16
ARM GAS  C:\Users\CHANTI~1\AppData\Local\Temp\cckZxxwg.s 			page 85


 3348 00b2 9F       		.byte	0x9f
 3349 00b3 1E000000 		.4byte	.LVL14
 3350 00b7 28000000 		.4byte	.LFE5
 3351 00bb 0100     		.2byte	0x1
 3352 00bd 50       		.byte	0x50
 3353 00be 00000000 		.4byte	0
 3354 00c2 00000000 		.4byte	0
 3355              	.LLST4:
 3356 00c6 1A000000 		.4byte	.LVL16
 3357 00ca 00010000 		.4byte	.LVL30
 3358 00ce 0100     		.2byte	0x1
 3359 00d0 54       		.byte	0x54
 3360 00d1 00000000 		.4byte	0
 3361 00d5 00000000 		.4byte	0
 3362              	.LLST5:
 3363 00d9 3E000000 		.4byte	.LVL21
 3364 00dd C0000000 		.4byte	.LVL26
 3365 00e1 0100     		.2byte	0x1
 3366 00e3 51       		.byte	0x51
 3367 00e4 00000000 		.4byte	0
 3368 00e8 00000000 		.4byte	0
 3369              	.LLST6:
 3370 00ec 44000000 		.4byte	.LVL22
 3371 00f0 82000000 		.4byte	.LVL23
 3372 00f4 0100     		.2byte	0x1
 3373 00f6 56       		.byte	0x56
 3374 00f7 92000000 		.4byte	.LVL24
 3375 00fb 9E000000 		.4byte	.LVL25
 3376 00ff 0100     		.2byte	0x1
 3377 0101 56       		.byte	0x56
 3378 0102 00000000 		.4byte	0
 3379 0106 00000000 		.4byte	0
 3380              	.LLST7:
 3381 010a 22000000 		.4byte	.LVL19
 3382 010e 26000000 		.4byte	.LVL20
 3383 0112 0200     		.2byte	0x2
 3384 0114 30       		.byte	0x30
 3385 0115 9F       		.byte	0x9f
 3386 0116 26000000 		.4byte	.LVL20
 3387 011a FA000000 		.4byte	.LVL28
 3388 011e 0100     		.2byte	0x1
 3389 0120 53       		.byte	0x53
 3390 0121 FC000000 		.4byte	.LVL29
 3391 0125 00010000 		.4byte	.LVL30
 3392 0129 0100     		.2byte	0x1
 3393 012b 53       		.byte	0x53
 3394 012c 00000000 		.4byte	0
 3395 0130 00000000 		.4byte	0
 3396              	.LLST8:
 3397 0134 22000000 		.4byte	.LVL19
 3398 0138 00010000 		.4byte	.LVL30
 3399 013c 0100     		.2byte	0x1
 3400 013e 50       		.byte	0x50
 3401 013f 00000000 		.4byte	0
 3402 0143 00000000 		.4byte	0
 3403              	.LLST9:
 3404 0147 18000000 		.4byte	.LVL15
ARM GAS  C:\Users\CHANTI~1\AppData\Local\Temp\cckZxxwg.s 			page 86


 3405 014b 20000000 		.4byte	.LVL18
 3406 014f 0300     		.2byte	0x3
 3407 0151 70       		.byte	0x70
 3408 0152 08       		.sleb128 8
 3409 0153 9F       		.byte	0x9f
 3410 0154 00000000 		.4byte	0
 3411 0158 00000000 		.4byte	0
 3412              	.LLST10:
 3413 015c 1C000000 		.4byte	.LVL17
 3414 0160 00010000 		.4byte	.LVL30
 3415 0164 0100     		.2byte	0x1
 3416 0166 52       		.byte	0x52
 3417 0167 00000000 		.4byte	0
 3418 016b 00000000 		.4byte	0
 3419              	.LLST11:
 3420 016f 0E000000 		.4byte	.LVL31
 3421 0173 1A000000 		.4byte	.LVL34
 3422 0177 0100     		.2byte	0x1
 3423 0179 50       		.byte	0x50
 3424 017a 1A000000 		.4byte	.LVL34
 3425 017e 1E000000 		.4byte	.LVL36
 3426 0182 0100     		.2byte	0x1
 3427 0184 53       		.byte	0x53
 3428 0185 1E000000 		.4byte	.LVL36
 3429 0189 20000000 		.4byte	.LVL37
 3430 018d 0100     		.2byte	0x1
 3431 018f 50       		.byte	0x50
 3432 0190 00000000 		.4byte	0
 3433 0194 00000000 		.4byte	0
 3434              	.LLST12:
 3435 0198 1C000000 		.4byte	.LVL35
 3436 019c 1E000000 		.4byte	.LVL36
 3437 01a0 0100     		.2byte	0x1
 3438 01a2 50       		.byte	0x50
 3439 01a3 20000000 		.4byte	.LVL37
 3440 01a7 28000000 		.4byte	.LFE7
 3441 01ab 0100     		.2byte	0x1
 3442 01ad 50       		.byte	0x50
 3443 01ae 00000000 		.4byte	0
 3444 01b2 00000000 		.4byte	0
 3445              	.LLST13:
 3446 01b6 14000000 		.4byte	.LVL32
 3447 01ba 16000000 		.4byte	.LVL33
 3448 01be 0100     		.2byte	0x1
 3449 01c0 52       		.byte	0x52
 3450 01c1 16000000 		.4byte	.LVL33
 3451 01c5 1E000000 		.4byte	.LVL36
 3452 01c9 0300     		.2byte	0x3
 3453 01cb 72       		.byte	0x72
 3454 01cc 7E       		.sleb128 -2
 3455 01cd 9F       		.byte	0x9f
 3456 01ce 00000000 		.4byte	0
 3457 01d2 00000000 		.4byte	0
 3458              	.LLST14:
 3459 01d6 00000000 		.4byte	.LVL38
 3460 01da 58000000 		.4byte	.LVL49
 3461 01de 0100     		.2byte	0x1
ARM GAS  C:\Users\CHANTI~1\AppData\Local\Temp\cckZxxwg.s 			page 87


 3462 01e0 50       		.byte	0x50
 3463 01e1 58000000 		.4byte	.LVL49
 3464 01e5 C4010000 		.4byte	.LFE3
 3465 01e9 0400     		.2byte	0x4
 3466 01eb F3       		.byte	0xf3
 3467 01ec 01       		.uleb128 0x1
 3468 01ed 50       		.byte	0x50
 3469 01ee 9F       		.byte	0x9f
 3470 01ef 00000000 		.4byte	0
 3471 01f3 00000000 		.4byte	0
 3472              	.LLST15:
 3473 01f7 04000000 		.4byte	.LVL39
 3474 01fb 08000000 		.4byte	.LVL40
 3475 01ff 0200     		.2byte	0x2
 3476 0201 30       		.byte	0x30
 3477 0202 9F       		.byte	0x9f
 3478 0203 08000000 		.4byte	.LVL40
 3479 0207 28000000 		.4byte	.LVL41
 3480 020b 0100     		.2byte	0x1
 3481 020d 53       		.byte	0x53
 3482 020e 2A000000 		.4byte	.LVL42
 3483 0212 32000000 		.4byte	.LVL43
 3484 0216 0100     		.2byte	0x1
 3485 0218 53       		.byte	0x53
 3486 0219 42000000 		.4byte	.LVL46
 3487 021d 44000000 		.4byte	.LVL47
 3488 0221 0100     		.2byte	0x1
 3489 0223 53       		.byte	0x53
 3490 0224 82000000 		.4byte	.LVL54
 3491 0228 80010000 		.4byte	.LVL76
 3492 022c 0100     		.2byte	0x1
 3493 022e 55       		.byte	0x55
 3494 022f 80010000 		.4byte	.LVL76
 3495 0233 86010000 		.4byte	.LVL77
 3496 0237 0200     		.2byte	0x2
 3497 0239 31       		.byte	0x31
 3498 023a 9F       		.byte	0x9f
 3499 023b 86010000 		.4byte	.LVL77
 3500 023f 9C010000 		.4byte	.LVL80
 3501 0243 0100     		.2byte	0x1
 3502 0245 53       		.byte	0x53
 3503 0246 9E010000 		.4byte	.LVL81
 3504 024a A5010000 		.4byte	.LVL82-1
 3505 024e 0100     		.2byte	0x1
 3506 0250 53       		.byte	0x53
 3507 0251 00000000 		.4byte	0
 3508 0255 00000000 		.4byte	0
 3509              	.LLST16:
 3510 0259 88000000 		.4byte	.LVL56
 3511 025d 8C000000 		.4byte	.LVL57
 3512 0261 0200     		.2byte	0x2
 3513 0263 30       		.byte	0x30
 3514 0264 9F       		.byte	0x9f
 3515 0265 8C000000 		.4byte	.LVL57
 3516 0269 46010000 		.4byte	.LVL65
 3517 026d 0100     		.2byte	0x1
 3518 026f 53       		.byte	0x53
ARM GAS  C:\Users\CHANTI~1\AppData\Local\Temp\cckZxxwg.s 			page 88


 3519 0270 48010000 		.4byte	.LVL66
 3520 0274 50010000 		.4byte	.LVL68
 3521 0278 0100     		.2byte	0x1
 3522 027a 53       		.byte	0x53
 3523 027b 00000000 		.4byte	0
 3524 027f 00000000 		.4byte	0
 3525              	.LLST17:
 3526 0283 32000000 		.4byte	.LVL43
 3527 0287 3E000000 		.4byte	.LVL44
 3528 028b 0100     		.2byte	0x1
 3529 028d 53       		.byte	0x53
 3530 028e 40000000 		.4byte	.LVL45
 3531 0292 42000000 		.4byte	.LVL46
 3532 0296 0100     		.2byte	0x1
 3533 0298 53       		.byte	0x53
 3534 0299 44000000 		.4byte	.LVL47
 3535 029d 48000000 		.4byte	.LVL48
 3536 02a1 0100     		.2byte	0x1
 3537 02a3 53       		.byte	0x53
 3538 02a4 82000000 		.4byte	.LVL54
 3539 02a8 86000000 		.4byte	.LVL55
 3540 02ac 0200     		.2byte	0x2
 3541 02ae 31       		.byte	0x31
 3542 02af 9F       		.byte	0x9f
 3543 02b0 86000000 		.4byte	.LVL55
 3544 02b4 4E010000 		.4byte	.LVL67
 3545 02b8 0100     		.2byte	0x1
 3546 02ba 54       		.byte	0x54
 3547 02bb 50010000 		.4byte	.LVL68
 3548 02bf 56010000 		.4byte	.LVL69
 3549 02c3 0100     		.2byte	0x1
 3550 02c5 54       		.byte	0x54
 3551 02c6 56010000 		.4byte	.LVL69
 3552 02ca 5A010000 		.4byte	.LVL70
 3553 02ce 0200     		.2byte	0x2
 3554 02d0 30       		.byte	0x30
 3555 02d1 9F       		.byte	0x9f
 3556 02d2 5A010000 		.4byte	.LVL70
 3557 02d6 72010000 		.4byte	.LVL73
 3558 02da 0100     		.2byte	0x1
 3559 02dc 52       		.byte	0x52
 3560 02dd 74010000 		.4byte	.LVL74
 3561 02e1 7B010000 		.4byte	.LVL75-1
 3562 02e5 0100     		.2byte	0x1
 3563 02e7 52       		.byte	0x52
 3564 02e8 00000000 		.4byte	0
 3565 02ec 00000000 		.4byte	0
 3566              	.LLST18:
 3567 02f0 EC000000 		.4byte	.LVL58
 3568 02f4 08010000 		.4byte	.LVL59
 3569 02f8 0100     		.2byte	0x1
 3570 02fa 52       		.byte	0x52
 3571 02fb 08010000 		.4byte	.LVL59
 3572 02ff 16010000 		.4byte	.LVL60
 3573 0303 0700     		.2byte	0x7
 3574 0305 71       		.byte	0x71
 3575 0306 03       		.sleb128 3
ARM GAS  C:\Users\CHANTI~1\AppData\Local\Temp\cckZxxwg.s 			page 89


 3576 0307 94       		.byte	0x94
 3577 0308 01       		.byte	0x1
 3578 0309 33       		.byte	0x33
 3579 030a 1A       		.byte	0x1a
 3580 030b 9F       		.byte	0x9f
 3581 030c 1C010000 		.4byte	.LVL61
 3582 0310 30010000 		.4byte	.LVL62
 3583 0314 0100     		.2byte	0x1
 3584 0316 52       		.byte	0x52
 3585 0317 30010000 		.4byte	.LVL62
 3586 031b 3E010000 		.4byte	.LVL63
 3587 031f 0700     		.2byte	0x7
 3588 0321 71       		.byte	0x71
 3589 0322 03       		.sleb128 3
 3590 0323 94       		.byte	0x94
 3591 0324 01       		.byte	0x1
 3592 0325 33       		.byte	0x33
 3593 0326 1A       		.byte	0x1a
 3594 0327 9F       		.byte	0x9f
 3595 0328 00000000 		.4byte	0
 3596 032c 00000000 		.4byte	0
 3597              	.LLST19:
 3598 0330 62000000 		.4byte	.LVL51
 3599 0334 64000000 		.4byte	.LVL52
 3600 0338 0100     		.2byte	0x1
 3601 033a 53       		.byte	0x53
 3602 033b 64000000 		.4byte	.LVL52
 3603 033f 86000000 		.4byte	.LVL55
 3604 0343 0200     		.2byte	0x2
 3605 0345 70       		.byte	0x70
 3606 0346 04       		.sleb128 4
 3607 0347 00000000 		.4byte	0
 3608 034b 00000000 		.4byte	0
 3609              	.LLST20:
 3610 034f 04000000 		.4byte	.LVL39
 3611 0353 86010000 		.4byte	.LVL77
 3612 0357 0200     		.2byte	0x2
 3613 0359 30       		.byte	0x30
 3614 035a 9F       		.byte	0x9f
 3615 035b 86010000 		.4byte	.LVL77
 3616 035f 98010000 		.4byte	.LVL78
 3617 0363 0100     		.2byte	0x1
 3618 0365 51       		.byte	0x51
 3619 0366 98010000 		.4byte	.LVL78
 3620 036a 9A010000 		.4byte	.LVL79
 3621 036e 0200     		.2byte	0x2
 3622 0370 74       		.byte	0x74
 3623 0371 06       		.sleb128 6
 3624 0372 9A010000 		.4byte	.LVL79
 3625 0376 A5010000 		.4byte	.LVL82-1
 3626 037a 0100     		.2byte	0x1
 3627 037c 51       		.byte	0x51
 3628 037d 00000000 		.4byte	0
 3629 0381 00000000 		.4byte	0
 3630              	.LLST21:
 3631 0385 60000000 		.4byte	.LVL50
 3632 0389 80000000 		.4byte	.LVL53
ARM GAS  C:\Users\CHANTI~1\AppData\Local\Temp\cckZxxwg.s 			page 90


 3633 038d 0100     		.2byte	0x1
 3634 038f 50       		.byte	0x50
 3635 0390 80000000 		.4byte	.LVL53
 3636 0394 56010000 		.4byte	.LVL69
 3637 0398 0300     		.2byte	0x3
 3638 039a 70       		.byte	0x70
 3639 039b 08       		.sleb128 8
 3640 039c 9F       		.byte	0x9f
 3641 039d 00000000 		.4byte	0
 3642 03a1 00000000 		.4byte	0
 3643              	.LLST22:
 3644 03a5 88000000 		.4byte	.LVL56
 3645 03a9 50010000 		.4byte	.LVL68
 3646 03ad 0100     		.2byte	0x1
 3647 03af 51       		.byte	0x51
 3648 03b0 56010000 		.4byte	.LVL69
 3649 03b4 64010000 		.4byte	.LVL71
 3650 03b8 0100     		.2byte	0x1
 3651 03ba 50       		.byte	0x50
 3652 03bb 64010000 		.4byte	.LVL71
 3653 03bf 70010000 		.4byte	.LVL72
 3654 03c3 0300     		.2byte	0x3
 3655 03c5 70       		.byte	0x70
 3656 03c6 78       		.sleb128 -8
 3657 03c7 9F       		.byte	0x9f
 3658 03c8 70010000 		.4byte	.LVL72
 3659 03cc 7B010000 		.4byte	.LVL75-1
 3660 03d0 0100     		.2byte	0x1
 3661 03d2 50       		.byte	0x50
 3662 03d3 00000000 		.4byte	0
 3663 03d7 00000000 		.4byte	0
 3664              	.LLST23:
 3665 03db 00000000 		.4byte	.LVL83
 3666 03df 04000000 		.4byte	.LVL84
 3667 03e3 0100     		.2byte	0x1
 3668 03e5 50       		.byte	0x50
 3669 03e6 04000000 		.4byte	.LVL84
 3670 03ea 30000000 		.4byte	.LVL85
 3671 03ee 0100     		.2byte	0x1
 3672 03f0 50       		.byte	0x50
 3673 03f1 38000000 		.4byte	.LVL86
 3674 03f5 3A000000 		.4byte	.LVL87
 3675 03f9 0100     		.2byte	0x1
 3676 03fb 50       		.byte	0x50
 3677 03fc 00000000 		.4byte	0
 3678 0400 00000000 		.4byte	0
 3679              	.LLST24:
 3680 0404 02000000 		.4byte	.LVL88
 3681 0408 52000000 		.4byte	.LVL93
 3682 040c 0200     		.2byte	0x2
 3683 040e 30       		.byte	0x30
 3684 040f 9F       		.byte	0x9f
 3685 0410 52000000 		.4byte	.LVL93
 3686 0414 54000000 		.4byte	.LVL94
 3687 0418 0100     		.2byte	0x1
 3688 041a 50       		.byte	0x50
 3689 041b 54000000 		.4byte	.LVL94
ARM GAS  C:\Users\CHANTI~1\AppData\Local\Temp\cckZxxwg.s 			page 91


 3690 041f 56000000 		.4byte	.LVL95
 3691 0423 0200     		.2byte	0x2
 3692 0425 30       		.byte	0x30
 3693 0426 9F       		.byte	0x9f
 3694 0427 56000000 		.4byte	.LVL95
 3695 042b 64000000 		.4byte	.LFE9
 3696 042f 0100     		.2byte	0x1
 3697 0431 50       		.byte	0x50
 3698 0432 00000000 		.4byte	0
 3699 0436 00000000 		.4byte	0
 3700              	.LLST25:
 3701 043a 0A000000 		.4byte	.LVL89
 3702 043e 3A000000 		.4byte	.LVL90
 3703 0442 0100     		.2byte	0x1
 3704 0444 53       		.byte	0x53
 3705 0445 44000000 		.4byte	.LVL91
 3706 0449 46000000 		.4byte	.LVL92
 3707 044d 0100     		.2byte	0x1
 3708 044f 53       		.byte	0x53
 3709 0450 54000000 		.4byte	.LVL94
 3710 0454 58000000 		.4byte	.LVL96
 3711 0458 0100     		.2byte	0x1
 3712 045a 53       		.byte	0x53
 3713 045b 00000000 		.4byte	0
 3714 045f 00000000 		.4byte	0
 3715              	.LLST26:
 3716 0463 00000000 		.4byte	.LVL97
 3717 0467 98000000 		.4byte	.LVL106
 3718 046b 0200     		.2byte	0x2
 3719 046d 30       		.byte	0x30
 3720 046e 9F       		.byte	0x9f
 3721 046f 98000000 		.4byte	.LVL106
 3722 0473 9A000000 		.4byte	.LVL107
 3723 0477 0100     		.2byte	0x1
 3724 0479 50       		.byte	0x50
 3725 047a 9A000000 		.4byte	.LVL107
 3726 047e AC000000 		.4byte	.LFE10
 3727 0482 0200     		.2byte	0x2
 3728 0484 30       		.byte	0x30
 3729 0485 9F       		.byte	0x9f
 3730 0486 00000000 		.4byte	0
 3731 048a 00000000 		.4byte	0
 3732              	.LLST27:
 3733 048e 08000000 		.4byte	.LVL98
 3734 0492 5C000000 		.4byte	.LVL99
 3735 0496 0100     		.2byte	0x1
 3736 0498 53       		.byte	0x53
 3737 0499 60000000 		.4byte	.LVL100
 3738 049d 62000000 		.4byte	.LVL101
 3739 04a1 0100     		.2byte	0x1
 3740 04a3 53       		.byte	0x53
 3741 04a4 6C000000 		.4byte	.LVL102
 3742 04a8 80000000 		.4byte	.LVL103
 3743 04ac 0100     		.2byte	0x1
 3744 04ae 53       		.byte	0x53
 3745 04af 8A000000 		.4byte	.LVL104
 3746 04b3 8C000000 		.4byte	.LVL105
ARM GAS  C:\Users\CHANTI~1\AppData\Local\Temp\cckZxxwg.s 			page 92


 3747 04b7 0100     		.2byte	0x1
 3748 04b9 53       		.byte	0x53
 3749 04ba 9A000000 		.4byte	.LVL107
 3750 04be AC000000 		.4byte	.LFE10
 3751 04c2 0100     		.2byte	0x1
 3752 04c4 53       		.byte	0x53
 3753 04c5 00000000 		.4byte	0
 3754 04c9 00000000 		.4byte	0
 3755              	.LLST28:
 3756 04cd 02000000 		.4byte	.LVL108
 3757 04d1 32000000 		.4byte	.LVL113
 3758 04d5 0200     		.2byte	0x2
 3759 04d7 30       		.byte	0x30
 3760 04d8 9F       		.byte	0x9f
 3761 04d9 32000000 		.4byte	.LVL113
 3762 04dd 36000000 		.4byte	.LVL115
 3763 04e1 0200     		.2byte	0x2
 3764 04e3 31       		.byte	0x31
 3765 04e4 9F       		.byte	0x9f
 3766 04e5 36000000 		.4byte	.LVL115
 3767 04e9 38000000 		.4byte	.LVL116
 3768 04ed 0200     		.2byte	0x2
 3769 04ef 30       		.byte	0x30
 3770 04f0 9F       		.byte	0x9f
 3771 04f1 38000000 		.4byte	.LVL116
 3772 04f5 4C000000 		.4byte	.LFE11
 3773 04f9 0100     		.2byte	0x1
 3774 04fb 50       		.byte	0x50
 3775 04fc 00000000 		.4byte	0
 3776 0500 00000000 		.4byte	0
 3777              	.LLST29:
 3778 0504 08000000 		.4byte	.LVL109
 3779 0508 3A000000 		.4byte	.LVL117
 3780 050c 0100     		.2byte	0x1
 3781 050e 54       		.byte	0x54
 3782 050f 00000000 		.4byte	0
 3783 0513 00000000 		.4byte	0
 3784              	.LLST30:
 3785 0517 18000000 		.4byte	.LVL111
 3786 051b 24000000 		.4byte	.LVL112
 3787 051f 0100     		.2byte	0x1
 3788 0521 53       		.byte	0x53
 3789 0522 24000000 		.4byte	.LVL112
 3790 0526 34000000 		.4byte	.LVL114
 3791 052a 0500     		.2byte	0x5
 3792 052c 70       		.byte	0x70
 3793 052d 04       		.sleb128 4
 3794 052e 06       		.byte	0x6
 3795 052f 23       		.byte	0x23
 3796 0530 04       		.uleb128 0x4
 3797 0531 36000000 		.4byte	.LVL115
 3798 0535 4C000000 		.4byte	.LFE11
 3799 0539 0100     		.2byte	0x1
 3800 053b 53       		.byte	0x53
 3801 053c 00000000 		.4byte	0
 3802 0540 00000000 		.4byte	0
 3803              	.LLST31:
ARM GAS  C:\Users\CHANTI~1\AppData\Local\Temp\cckZxxwg.s 			page 93


 3804 0544 14000000 		.4byte	.LVL110
 3805 0548 34000000 		.4byte	.LVL114
 3806 054c 0100     		.2byte	0x1
 3807 054e 50       		.byte	0x50
 3808 054f 36000000 		.4byte	.LVL115
 3809 0553 38000000 		.4byte	.LVL116
 3810 0557 0100     		.2byte	0x1
 3811 0559 50       		.byte	0x50
 3812 055a 00000000 		.4byte	0
 3813 055e 00000000 		.4byte	0
 3814              	.LLST32:
 3815 0562 02000000 		.4byte	.LVL118
 3816 0566 56000000 		.4byte	.LVL122
 3817 056a 0200     		.2byte	0x2
 3818 056c 30       		.byte	0x30
 3819 056d 9F       		.byte	0x9f
 3820 056e 56000000 		.4byte	.LVL122
 3821 0572 58000000 		.4byte	.LVL123
 3822 0576 0100     		.2byte	0x1
 3823 0578 50       		.byte	0x50
 3824 0579 58000000 		.4byte	.LVL123
 3825 057d 88000000 		.4byte	.LVL125
 3826 0581 0200     		.2byte	0x2
 3827 0583 30       		.byte	0x30
 3828 0584 9F       		.byte	0x9f
 3829 0585 88000000 		.4byte	.LVL125
 3830 0589 8A000000 		.4byte	.LVL126
 3831 058d 0100     		.2byte	0x1
 3832 058f 50       		.byte	0x50
 3833 0590 8A000000 		.4byte	.LVL126
 3834 0594 8E000000 		.4byte	.LVL127
 3835 0598 0200     		.2byte	0x2
 3836 059a 30       		.byte	0x30
 3837 059b 9F       		.byte	0x9f
 3838 059c 8E000000 		.4byte	.LVL127
 3839 05a0 90000000 		.4byte	.LVL128
 3840 05a4 0100     		.2byte	0x1
 3841 05a6 50       		.byte	0x50
 3842 05a7 90000000 		.4byte	.LVL128
 3843 05ab C4000000 		.4byte	.LVL130
 3844 05af 0200     		.2byte	0x2
 3845 05b1 30       		.byte	0x30
 3846 05b2 9F       		.byte	0x9f
 3847 05b3 C4000000 		.4byte	.LVL130
 3848 05b7 C6000000 		.4byte	.LVL131
 3849 05bb 0100     		.2byte	0x1
 3850 05bd 50       		.byte	0x50
 3851 05be C6000000 		.4byte	.LVL131
 3852 05c2 E0000000 		.4byte	.LVL132
 3853 05c6 0200     		.2byte	0x2
 3854 05c8 30       		.byte	0x30
 3855 05c9 9F       		.byte	0x9f
 3856 05ca E0000000 		.4byte	.LVL132
 3857 05ce E2000000 		.4byte	.LVL133
 3858 05d2 0100     		.2byte	0x1
 3859 05d4 50       		.byte	0x50
 3860 05d5 E2000000 		.4byte	.LVL133
ARM GAS  C:\Users\CHANTI~1\AppData\Local\Temp\cckZxxwg.s 			page 94


 3861 05d9 F0000000 		.4byte	.LVL135
 3862 05dd 0200     		.2byte	0x2
 3863 05df 30       		.byte	0x30
 3864 05e0 9F       		.byte	0x9f
 3865 05e1 F0000000 		.4byte	.LVL135
 3866 05e5 F2000000 		.4byte	.LVL136
 3867 05e9 0100     		.2byte	0x1
 3868 05eb 50       		.byte	0x50
 3869 05ec F2000000 		.4byte	.LVL136
 3870 05f0 06010000 		.4byte	.LVL138
 3871 05f4 0200     		.2byte	0x2
 3872 05f6 30       		.byte	0x30
 3873 05f7 9F       		.byte	0x9f
 3874 05f8 06010000 		.4byte	.LVL138
 3875 05fc 08010000 		.4byte	.LVL139
 3876 0600 0100     		.2byte	0x1
 3877 0602 50       		.byte	0x50
 3878 0603 08010000 		.4byte	.LVL139
 3879 0607 32010000 		.4byte	.LVL141
 3880 060b 0200     		.2byte	0x2
 3881 060d 30       		.byte	0x30
 3882 060e 9F       		.byte	0x9f
 3883 060f 32010000 		.4byte	.LVL141
 3884 0613 34010000 		.4byte	.LVL142
 3885 0617 0100     		.2byte	0x1
 3886 0619 50       		.byte	0x50
 3887 061a 34010000 		.4byte	.LVL142
 3888 061e 6C010000 		.4byte	.LVL148
 3889 0622 0200     		.2byte	0x2
 3890 0624 30       		.byte	0x30
 3891 0625 9F       		.byte	0x9f
 3892 0626 6C010000 		.4byte	.LVL148
 3893 062a 6E010000 		.4byte	.LVL149
 3894 062e 0100     		.2byte	0x1
 3895 0630 50       		.byte	0x50
 3896 0631 6E010000 		.4byte	.LVL149
 3897 0635 A4010000 		.4byte	.LVL154
 3898 0639 0200     		.2byte	0x2
 3899 063b 30       		.byte	0x30
 3900 063c 9F       		.byte	0x9f
 3901 063d A4010000 		.4byte	.LVL154
 3902 0641 A6010000 		.4byte	.LVL155
 3903 0645 0100     		.2byte	0x1
 3904 0647 50       		.byte	0x50
 3905 0648 A6010000 		.4byte	.LVL155
 3906 064c C2010000 		.4byte	.LVL157
 3907 0650 0200     		.2byte	0x2
 3908 0652 30       		.byte	0x30
 3909 0653 9F       		.byte	0x9f
 3910 0654 C2010000 		.4byte	.LVL157
 3911 0658 C4010000 		.4byte	.LVL158
 3912 065c 0100     		.2byte	0x1
 3913 065e 50       		.byte	0x50
 3914 065f C4010000 		.4byte	.LVL158
 3915 0663 DC010000 		.4byte	.LVL159
 3916 0667 0200     		.2byte	0x2
 3917 0669 30       		.byte	0x30
ARM GAS  C:\Users\CHANTI~1\AppData\Local\Temp\cckZxxwg.s 			page 95


 3918 066a 9F       		.byte	0x9f
 3919 066b DC010000 		.4byte	.LVL159
 3920 066f DE010000 		.4byte	.LVL160
 3921 0673 0100     		.2byte	0x1
 3922 0675 50       		.byte	0x50
 3923 0676 DE010000 		.4byte	.LVL160
 3924 067a FE010000 		.4byte	.LVL161
 3925 067e 0200     		.2byte	0x2
 3926 0680 30       		.byte	0x30
 3927 0681 9F       		.byte	0x9f
 3928 0682 FE010000 		.4byte	.LVL161
 3929 0686 00020000 		.4byte	.LVL162
 3930 068a 0100     		.2byte	0x1
 3931 068c 50       		.byte	0x50
 3932 068d 00020000 		.4byte	.LVL162
 3933 0691 1C020000 		.4byte	.LVL164
 3934 0695 0200     		.2byte	0x2
 3935 0697 30       		.byte	0x30
 3936 0698 9F       		.byte	0x9f
 3937 0699 1C020000 		.4byte	.LVL164
 3938 069d 1E020000 		.4byte	.LVL165
 3939 06a1 0100     		.2byte	0x1
 3940 06a3 50       		.byte	0x50
 3941 06a4 1E020000 		.4byte	.LVL165
 3942 06a8 36020000 		.4byte	.LVL166
 3943 06ac 0200     		.2byte	0x2
 3944 06ae 30       		.byte	0x30
 3945 06af 9F       		.byte	0x9f
 3946 06b0 36020000 		.4byte	.LVL166
 3947 06b4 38020000 		.4byte	.LVL167
 3948 06b8 0100     		.2byte	0x1
 3949 06ba 50       		.byte	0x50
 3950 06bb 38020000 		.4byte	.LVL167
 3951 06bf 58020000 		.4byte	.LVL168
 3952 06c3 0200     		.2byte	0x2
 3953 06c5 30       		.byte	0x30
 3954 06c6 9F       		.byte	0x9f
 3955 06c7 58020000 		.4byte	.LVL168
 3956 06cb 5A020000 		.4byte	.LVL169
 3957 06cf 0100     		.2byte	0x1
 3958 06d1 50       		.byte	0x50
 3959 06d2 5A020000 		.4byte	.LVL169
 3960 06d6 C2020000 		.4byte	.LVL175
 3961 06da 0200     		.2byte	0x2
 3962 06dc 30       		.byte	0x30
 3963 06dd 9F       		.byte	0x9f
 3964 06de C2020000 		.4byte	.LVL175
 3965 06e2 C4020000 		.4byte	.LFE0
 3966 06e6 0100     		.2byte	0x1
 3967 06e8 50       		.byte	0x50
 3968 06e9 00000000 		.4byte	0
 3969 06ed 00000000 		.4byte	0
 3970              	.LLST33:
 3971 06f1 7E010000 		.4byte	.LVL151
 3972 06f5 90010000 		.4byte	.LVL152
 3973 06f9 0100     		.2byte	0x1
 3974 06fb 53       		.byte	0x53
ARM GAS  C:\Users\CHANTI~1\AppData\Local\Temp\cckZxxwg.s 			page 96


 3975 06fc 00000000 		.4byte	0
 3976 0700 00000000 		.4byte	0
 3977              	.LLST34:
 3978 0704 38010000 		.4byte	.LVL144
 3979 0708 45010000 		.4byte	.LVL145-1
 3980 070c 0100     		.2byte	0x1
 3981 070e 53       		.byte	0x53
 3982 070f 00000000 		.4byte	0
 3983 0713 00000000 		.4byte	0
 3984              	.LLST35:
 3985 0717 08000000 		.4byte	.LVL119
 3986 071b 3C000000 		.4byte	.LVL120
 3987 071f 0100     		.2byte	0x1
 3988 0721 53       		.byte	0x53
 3989 0722 90000000 		.4byte	.LVL128
 3990 0726 94000000 		.4byte	.LVL129
 3991 072a 0100     		.2byte	0x1
 3992 072c 53       		.byte	0x53
 3993 072d E2000000 		.4byte	.LVL133
 3994 0731 E4000000 		.4byte	.LVL134
 3995 0735 0100     		.2byte	0x1
 3996 0737 53       		.byte	0x53
 3997 0738 F2000000 		.4byte	.LVL136
 3998 073c F6000000 		.4byte	.LVL137
 3999 0740 0100     		.2byte	0x1
 4000 0742 53       		.byte	0x53
 4001 0743 08010000 		.4byte	.LVL139
 4002 0747 26010000 		.4byte	.LVL140
 4003 074b 0100     		.2byte	0x1
 4004 074d 53       		.byte	0x53
 4005 074e 34010000 		.4byte	.LVL142
 4006 0752 36010000 		.4byte	.LVL143
 4007 0756 0100     		.2byte	0x1
 4008 0758 53       		.byte	0x53
 4009 0759 6E010000 		.4byte	.LVL149
 4010 075d 71010000 		.4byte	.LVL150-1
 4011 0761 0100     		.2byte	0x1
 4012 0763 53       		.byte	0x53
 4013 0764 A6010000 		.4byte	.LVL155
 4014 0768 AA010000 		.4byte	.LVL156
 4015 076c 0100     		.2byte	0x1
 4016 076e 53       		.byte	0x53
 4017 076f 00020000 		.4byte	.LVL162
 4018 0773 04020000 		.4byte	.LVL163
 4019 0777 0100     		.2byte	0x1
 4020 0779 53       		.byte	0x53
 4021 077a 5A020000 		.4byte	.LVL169
 4022 077e 5E020000 		.4byte	.LVL170
 4023 0782 0100     		.2byte	0x1
 4024 0784 53       		.byte	0x53
 4025 0785 66020000 		.4byte	.LVL172
 4026 0789 9C020000 		.4byte	.LVL173
 4027 078d 0100     		.2byte	0x1
 4028 078f 53       		.byte	0x53
 4029 0790 00000000 		.4byte	0
 4030 0794 00000000 		.4byte	0
 4031              	.LLST36:
ARM GAS  C:\Users\CHANTI~1\AppData\Local\Temp\cckZxxwg.s 			page 97


 4032 0798 48000000 		.4byte	.LVL121
 4033 079c 55000000 		.4byte	.LVL122-1
 4034 07a0 0100     		.2byte	0x1
 4035 07a2 50       		.byte	0x50
 4036 07a3 6A000000 		.4byte	.LVL124
 4037 07a7 87000000 		.4byte	.LVL125-1
 4038 07ab 0100     		.2byte	0x1
 4039 07ad 50       		.byte	0x50
 4040 07ae 46010000 		.4byte	.LVL145
 4041 07b2 60010000 		.4byte	.LVL146
 4042 07b6 0100     		.2byte	0x1
 4043 07b8 50       		.byte	0x50
 4044 07b9 5E020000 		.4byte	.LVL170
 4045 07bd 60020000 		.4byte	.LVL171
 4046 07c1 0100     		.2byte	0x1
 4047 07c3 50       		.byte	0x50
 4048 07c4 9C020000 		.4byte	.LVL173
 4049 07c8 9E020000 		.4byte	.LVL174
 4050 07cc 0100     		.2byte	0x1
 4051 07ce 50       		.byte	0x50
 4052 07cf 00000000 		.4byte	0
 4053 07d3 00000000 		.4byte	0
 4054              		.section	.debug_aranges,"",%progbits
 4055 0000 74000000 		.4byte	0x74
 4056 0004 0200     		.2byte	0x2
 4057 0006 00000000 		.4byte	.Ldebug_info0
 4058 000a 04       		.byte	0x4
 4059 000b 00       		.byte	0
 4060 000c 0000     		.2byte	0
 4061 000e 0000     		.2byte	0
 4062 0010 00000000 		.4byte	.LFB1
 4063 0014 A4000000 		.4byte	.LFE1-.LFB1
 4064 0018 00000000 		.4byte	.LFB2
 4065 001c 44000000 		.4byte	.LFE2-.LFB2
 4066 0020 00000000 		.4byte	.LFB5
 4067 0024 28000000 		.4byte	.LFE5-.LFB5
 4068 0028 00000000 		.4byte	.LFB4
 4069 002c 1C010000 		.4byte	.LFE4-.LFB4
 4070 0030 00000000 		.4byte	.LFB6
 4071 0034 18000000 		.4byte	.LFE6-.LFB6
 4072 0038 00000000 		.4byte	.LFB7
 4073 003c 28000000 		.4byte	.LFE7-.LFB7
 4074 0040 00000000 		.4byte	.LFB3
 4075 0044 C4010000 		.4byte	.LFE3-.LFB3
 4076 0048 00000000 		.4byte	.LFB8
 4077 004c 4C000000 		.4byte	.LFE8-.LFB8
 4078 0050 00000000 		.4byte	.LFB9
 4079 0054 64000000 		.4byte	.LFE9-.LFB9
 4080 0058 00000000 		.4byte	.LFB10
 4081 005c AC000000 		.4byte	.LFE10-.LFB10
 4082 0060 00000000 		.4byte	.LFB11
 4083 0064 4C000000 		.4byte	.LFE11-.LFB11
 4084 0068 00000000 		.4byte	.LFB0
 4085 006c C4020000 		.4byte	.LFE0-.LFB0
 4086 0070 00000000 		.4byte	0
 4087 0074 00000000 		.4byte	0
 4088              		.section	.debug_ranges,"",%progbits
ARM GAS  C:\Users\CHANTI~1\AppData\Local\Temp\cckZxxwg.s 			page 98


 4089              	.Ldebug_ranges0:
 4090 0000 00000000 		.4byte	.LFB1
 4091 0004 A4000000 		.4byte	.LFE1
 4092 0008 00000000 		.4byte	.LFB2
 4093 000c 44000000 		.4byte	.LFE2
 4094 0010 00000000 		.4byte	.LFB5
 4095 0014 28000000 		.4byte	.LFE5
 4096 0018 00000000 		.4byte	.LFB4
 4097 001c 1C010000 		.4byte	.LFE4
 4098 0020 00000000 		.4byte	.LFB6
 4099 0024 18000000 		.4byte	.LFE6
 4100 0028 00000000 		.4byte	.LFB7
 4101 002c 28000000 		.4byte	.LFE7
 4102 0030 00000000 		.4byte	.LFB3
 4103 0034 C4010000 		.4byte	.LFE3
 4104 0038 00000000 		.4byte	.LFB8
 4105 003c 4C000000 		.4byte	.LFE8
 4106 0040 00000000 		.4byte	.LFB9
 4107 0044 64000000 		.4byte	.LFE9
 4108 0048 00000000 		.4byte	.LFB10
 4109 004c AC000000 		.4byte	.LFE10
 4110 0050 00000000 		.4byte	.LFB11
 4111 0054 4C000000 		.4byte	.LFE11
 4112 0058 00000000 		.4byte	.LFB0
 4113 005c C4020000 		.4byte	.LFE0
 4114 0060 00000000 		.4byte	0
 4115 0064 00000000 		.4byte	0
 4116              		.section	.debug_line,"",%progbits
 4117              	.Ldebug_line0:
 4118 0000 46030000 		.section	.debug_str,"MS",%progbits,1
 4118      02005A00 
 4118      00000201 
 4118      FB0E0D00 
 4118      01010101 
 4119              	.LASF36:
 4120 0000 70537461 		.ascii	"pStatusBlock\000"
 4120      74757342 
 4120      6C6F636B 
 4120      00
 4121              	.LASF71:
 4122 000d 5553425F 		.ascii	"USB_Config\000"
 4122      436F6E66 
 4122      696700
 4123              	.LASF34:
 4124 0018 636F756E 		.ascii	"count\000"
 4124      7400
 4125              	.LASF10:
 4126 001e 75696E74 		.ascii	"uint16\000"
 4126      313600
 4127              	.LASF89:
 4128 0025 5553425F 		.ascii	"USB_configuration\000"
 4128      636F6E66 
 4128      69677572 
 4128      6174696F 
 4128      6E00
 4129              	.LASF78:
 4130 0037 5553425F 		.ascii	"USB_SetEndpointHalt\000"
ARM GAS  C:\Users\CHANTI~1\AppData\Local\Temp\cckZxxwg.s 			page 99


 4130      53657445 
 4130      6E64706F 
 4130      696E7448 
 4130      616C7400 
 4131              	.LASF64:
 4132 004b 63757245 		.ascii	"curEp\000"
 4132      7000
 4133              	.LASF72:
 4134 0051 636F6E66 		.ascii	"confIndex\000"
 4134      496E6465 
 4134      7800
 4135              	.LASF7:
 4136 005b 6C6F6E67 		.ascii	"long long unsigned int\000"
 4136      206C6F6E 
 4136      6720756E 
 4136      7369676E 
 4136      65642069 
 4137              	.LASF21:
 4138 0072 61646472 		.ascii	"addr\000"
 4138      00
 4139              	.LASF46:
 4140 0077 65704366 		.ascii	"epCfg\000"
 4140      6700
 4141              	.LASF94:
 4142 007d 5553425F 		.ascii	"USB_interfaceSetting\000"
 4142      696E7465 
 4142      72666163 
 4142      65536574 
 4142      74696E67 
 4143              	.LASF26:
 4144 0092 545F5553 		.ascii	"T_USB_EP_CTL_BLOCK\000"
 4144      425F4550 
 4144      5F43544C 
 4144      5F424C4F 
 4144      434B00
 4145              	.LASF100:
 4146 00a5 5553425F 		.ascii	"USB_currentTD\000"
 4146      63757272 
 4146      656E7454 
 4146      4400
 4147              	.LASF77:
 4148 00b3 65704E75 		.ascii	"epNumber\000"
 4148      6D626572 
 4148      00
 4149              	.LASF68:
 4150 00bc 5553425F 		.ascii	"USB_GetInterfaceClassTablePtr\000"
 4150      47657449 
 4150      6E746572 
 4150      66616365 
 4150      436C6173 
 4151              	.LASF6:
 4152 00da 6C6F6E67 		.ascii	"long long int\000"
 4152      206C6F6E 
 4152      6720696E 
 4152      7400
 4153              	.LASF0:
 4154 00e8 7369676E 		.ascii	"signed char\000"
ARM GAS  C:\Users\CHANTI~1\AppData\Local\Temp\cckZxxwg.s 			page 100


 4154      65642063 
 4154      68617200 
 4155              	.LASF73:
 4156 00f4 636C6561 		.ascii	"clearAltSetting\000"
 4156      72416C74 
 4156      53657474 
 4156      696E6700 
 4157              	.LASF92:
 4158 0104 5553425F 		.ascii	"USB_TABLE\000"
 4158      5441424C 
 4158      4500
 4159              	.LASF61:
 4160 010e 5553425F 		.ascii	"USB_EpStateInit\000"
 4160      45705374 
 4160      61746549 
 4160      6E697400 
 4161              	.LASF39:
 4162 011e 545F5553 		.ascii	"T_USB_LUT\000"
 4162      425F4C55 
 4162      5400
 4163              	.LASF4:
 4164 0128 6C6F6E67 		.ascii	"long int\000"
 4164      20696E74 
 4164      00
 4165              	.LASF9:
 4166 0131 75696E74 		.ascii	"uint8\000"
 4166      3800
 4167              	.LASF20:
 4168 0137 6570546F 		.ascii	"epToggle\000"
 4168      67676C65 
 4168      00
 4169              	.LASF50:
 4170 0140 72775761 		.ascii	"rwWa\000"
 4170      00
 4171              	.LASF12:
 4172 0145 646F7562 		.ascii	"double\000"
 4172      6C6500
 4173              	.LASF48:
 4174 014c 65705372 		.ascii	"epSr\000"
 4174      00
 4175              	.LASF95:
 4176 0151 5553425F 		.ascii	"USB_interfaceSettingLast\000"
 4176      696E7465 
 4176      72666163 
 4176      65536574 
 4176      74696E67 
 4177              	.LASF35:
 4178 016a 70446174 		.ascii	"pData\000"
 4178      6100
 4179              	.LASF81:
 4180 0170 5553425F 		.ascii	"USB_ValidateAlternateSetting\000"
 4180      56616C69 
 4180      64617465 
 4180      416C7465 
 4180      726E6174 
 4181              	.LASF56:
 4182 018d 73696545 		.ascii	"sieEp\000"
ARM GAS  C:\Users\CHANTI~1\AppData\Local\Temp\cckZxxwg.s 			page 101


 4182      7000
 4183              	.LASF22:
 4184 0193 65704D6F 		.ascii	"epMode\000"
 4184      646500
 4185              	.LASF65:
 4186 019a 65705479 		.ascii	"epType\000"
 4186      706500
 4187              	.LASF86:
 4188 01a1 626D5265 		.ascii	"bmRequestType\000"
 4188      71756573 
 4188      74547970 
 4188      6500
 4189              	.LASF49:
 4190 01af 72657365 		.ascii	"reserved\000"
 4190      72766564 
 4190      00
 4191              	.LASF33:
 4192 01b8 545F5553 		.ascii	"T_USB_XFER_STATUS_BLOCK\000"
 4192      425F5846 
 4192      45525F53 
 4192      54415455 
 4192      535F424C 
 4193              	.LASF8:
 4194 01d0 756E7369 		.ascii	"unsigned int\000"
 4194      676E6564 
 4194      20696E74 
 4194      00
 4195              	.LASF5:
 4196 01dd 6C6F6E67 		.ascii	"long unsigned int\000"
 4196      20756E73 
 4196      69676E65 
 4196      6420696E 
 4196      7400
 4197              	.LASF3:
 4198 01ef 73686F72 		.ascii	"short unsigned int\000"
 4198      7420756E 
 4198      7369676E 
 4198      65642069 
 4198      6E7400
 4199              	.LASF74:
 4200 0202 70446573 		.ascii	"pDescr\000"
 4200      637200
 4201              	.LASF67:
 4202 0209 5553425F 		.ascii	"USB_GetConfigTablePtr\000"
 4202      47657443 
 4202      6F6E6669 
 4202      67546162 
 4202      6C655074 
 4203              	.LASF69:
 4204 021f 70496E74 		.ascii	"pInterfaceClass\000"
 4204      65726661 
 4204      6365436C 
 4204      61737300 
 4205              	.LASF58:
 4206 022f 61726245 		.ascii	"arbEp\000"
 4206      7000
 4207              	.LASF25:
ARM GAS  C:\Users\CHANTI~1\AppData\Local\Temp\cckZxxwg.s 			page 102


 4208 0235 696E7465 		.ascii	"interface\000"
 4208      72666163 
 4208      6500
 4209              	.LASF76:
 4210 023f 5553425F 		.ascii	"USB_TerminateEP\000"
 4210      5465726D 
 4210      696E6174 
 4210      65455000 
 4211              	.LASF91:
 4212 024f 5553425F 		.ascii	"USB_deviceStatus\000"
 4212      64657669 
 4212      63655374 
 4212      61747573 
 4212      00
 4213              	.LASF57:
 4214 0260 5553425F 		.ascii	"USB_sie_eps_struct\000"
 4214      7369655F 
 4214      6570735F 
 4214      73747275 
 4214      637400
 4215              	.LASF59:
 4216 0273 5553425F 		.ascii	"USB_arb_eps_struct\000"
 4216      6172625F 
 4216      6570735F 
 4216      73747275 
 4216      637400
 4217              	.LASF19:
 4218 0286 68774570 		.ascii	"hwEpState\000"
 4218      53746174 
 4218      6500
 4219              	.LASF16:
 4220 0290 73697A65 		.ascii	"sizetype\000"
 4220      74797065 
 4220      00
 4221              	.LASF83:
 4222 0299 5553425F 		.ascii	"USB_HandleStandardRqst\000"
 4222      48616E64 
 4222      6C655374 
 4222      616E6461 
 4222      72645271 
 4223              	.LASF15:
 4224 02b0 6C6F6E67 		.ascii	"long double\000"
 4224      20646F75 
 4224      626C6500 
 4225              	.LASF106:
 4226 02bc 433A5C55 		.ascii	"C:\\Users\\Chantilly Robotics\\Desktop\\FRC 2019-20"
 4226      73657273 
 4226      5C436861 
 4226      6E74696C 
 4226      6C792052 
 4227 02eb 32305C43 		.ascii	"20\\Custom Gunner Controls\\2020-Control-Scheme.cyd"
 4227      7573746F 
 4227      6D204775 
 4227      6E6E6572 
 4227      20436F6E 
 4228 031c 736E00   		.ascii	"sn\000"
 4229              	.LASF37:
ARM GAS  C:\Users\CHANTI~1\AppData\Local\Temp\cckZxxwg.s 			page 103


 4230 031f 545F5553 		.ascii	"T_USB_TD\000"
 4230      425F5444 
 4230      00
 4231              	.LASF107:
 4232 0328 5553425F 		.ascii	"USB_GetDeviceTablePtr\000"
 4232      47657444 
 4232      65766963 
 4232      65546162 
 4232      6C655074 
 4233              	.LASF38:
 4234 033e 705F6C69 		.ascii	"p_list\000"
 4234      737400
 4235              	.LASF75:
 4236 0345 62756666 		.ascii	"buffCount\000"
 4236      436F756E 
 4236      7400
 4237              	.LASF17:
 4238 034f 61747472 		.ascii	"attrib\000"
 4238      696200
 4239              	.LASF88:
 4240 0356 5553425F 		.ascii	"USB_device\000"
 4240      64657669 
 4240      636500
 4241              	.LASF60:
 4242 0361 5553425F 		.ascii	"USB_ConfigReg\000"
 4242      436F6E66 
 4242      69675265 
 4242      6700
 4243              	.LASF53:
 4244 036f 72775261 		.ascii	"rwRaMsb\000"
 4244      4D736200 
 4245              	.LASF42:
 4246 0377 6570436E 		.ascii	"epCnt0\000"
 4246      743000
 4247              	.LASF43:
 4248 037e 6570436E 		.ascii	"epCnt1\000"
 4248      743100
 4249              	.LASF99:
 4250 0385 5553425F 		.ascii	"USB_EP\000"
 4250      455000
 4251              	.LASF44:
 4252 038c 65704372 		.ascii	"epCr0\000"
 4252      3000
 4253              	.LASF66:
 4254 0392 696E7465 		.ascii	"interfaceNum\000"
 4254      72666163 
 4254      654E756D 
 4254      00
 4255              	.LASF11:
 4256 039f 666C6F61 		.ascii	"float\000"
 4256      7400
 4257              	.LASF98:
 4258 03a5 5553425F 		.ascii	"USB_interfaceClass\000"
 4258      696E7465 
 4258      72666163 
 4258      65436C61 
 4258      737300
ARM GAS  C:\Users\CHANTI~1\AppData\Local\Temp\cckZxxwg.s 			page 104


 4259              	.LASF18:
 4260 03b8 61706945 		.ascii	"apiEpState\000"
 4260      70537461 
 4260      746500
 4261              	.LASF85:
 4262 03c3 636F6E66 		.ascii	"configurationN\000"
 4262      69677572 
 4262      6174696F 
 4262      6E4E00
 4263              	.LASF96:
 4264 03d2 5553425F 		.ascii	"USB_deviceAddress\000"
 4264      64657669 
 4264      63654164 
 4264      64726573 
 4264      7300
 4265              	.LASF55:
 4266 03e4 5553425F 		.ascii	"USB_arb_ep_struct\000"
 4266      6172625F 
 4266      65705F73 
 4266      74727563 
 4266      7400
 4267              	.LASF14:
 4268 03f6 72656738 		.ascii	"reg8\000"
 4268      00
 4269              	.LASF1:
 4270 03fb 756E7369 		.ascii	"unsigned char\000"
 4270      676E6564 
 4270      20636861 
 4270      7200
 4271              	.LASF2:
 4272 0409 73686F72 		.ascii	"short int\000"
 4272      7420696E 
 4272      7400
 4273              	.LASF30:
 4274 0413 545F5553 		.ascii	"T_USB_EP_SETTINGS_BLOCK\000"
 4274      425F4550 
 4274      5F534554 
 4274      54494E47 
 4274      535F424C 
 4275              	.LASF52:
 4276 042b 72775261 		.ascii	"rwRa\000"
 4276      00
 4277              	.LASF103:
 4278 0430 5553425F 		.ascii	"USB_DispatchClassRqst\000"
 4278      44697370 
 4278      61746368 
 4278      436C6173 
 4278      73527173 
 4279              	.LASF104:
 4280 0446 474E5520 		.ascii	"GNU C11 5.4.1 20160609 (release) [ARM/embedded-5-br"
 4280      43313120 
 4280      352E342E 
 4280      31203230 
 4280      31363036 
 4281 0479 616E6368 		.ascii	"anch revision 237715] -mcpu=cortex-m3 -mthumb -g -O"
 4281      20726576 
 4281      6973696F 
ARM GAS  C:\Users\CHANTI~1\AppData\Local\Temp\cckZxxwg.s 			page 105


 4281      6E203233 
 4281      37373135 
 4282 04ac 67202D66 		.ascii	"g -ffunction-sections -ffat-lto-objects\000"
 4282      66756E63 
 4282      74696F6E 
 4282      2D736563 
 4282      74696F6E 
 4283              	.LASF51:
 4284 04d4 72775761 		.ascii	"rwWaMsb\000"
 4284      4D736200 
 4285              	.LASF105:
 4286 04dc 47656E65 		.ascii	"Generated_Source\\PSoC5\\USB_std.c\000"
 4286      72617465 
 4286      645F536F 
 4286      75726365 
 4286      5C50536F 
 4287              	.LASF28:
 4288 04fd 61747472 		.ascii	"attributes\000"
 4288      69627574 
 4288      657300
 4289              	.LASF97:
 4290 0508 5553425F 		.ascii	"USB_interfaceStatus\000"
 4290      696E7465 
 4290      72666163 
 4290      65537461 
 4290      74757300 
 4291              	.LASF27:
 4292 051c 616C7453 		.ascii	"altSetting\000"
 4292      65747469 
 4292      6E6700
 4293              	.LASF13:
 4294 0527 63686172 		.ascii	"char\000"
 4294      00
 4295              	.LASF87:
 4296 052c 5553425F 		.ascii	"USB_tBuffer\000"
 4296      74427566 
 4296      66657200 
 4297              	.LASF24:
 4298 0538 62756666 		.ascii	"bufferSize\000"
 4298      65725369 
 4298      7A6500
 4299              	.LASF79:
 4300 0543 72657175 		.ascii	"requestHandled\000"
 4300      65737448 
 4300      616E646C 
 4300      656400
 4301              	.LASF70:
 4302 0552 63757272 		.ascii	"currentInterfacesNum\000"
 4302      656E7449 
 4302      6E746572 
 4302      66616365 
 4302      734E756D 
 4303              	.LASF23:
 4304 0567 62756666 		.ascii	"buffOffset\000"
 4304      4F666673 
 4304      657400
 4305              	.LASF84:
ARM GAS  C:\Users\CHANTI~1\AppData\Local\Temp\cckZxxwg.s 			page 106


 4306 0572 696E7465 		.ascii	"interfaceNumber\000"
 4306      72666163 
 4306      654E756D 
 4306      62657200 
 4307              	.LASF80:
 4308 0582 5553425F 		.ascii	"USB_ClearEndpointHalt\000"
 4308      436C6561 
 4308      72456E64 
 4308      706F696E 
 4308      7448616C 
 4309              	.LASF32:
 4310 0598 6C656E67 		.ascii	"length\000"
 4310      746800
 4311              	.LASF45:
 4312 059f 5553425F 		.ascii	"USB_sie_ep_struct\000"
 4312      7369655F 
 4312      65705F73 
 4312      74727563 
 4312      7400
 4313              	.LASF31:
 4314 05b1 73746174 		.ascii	"status\000"
 4314      757300
 4315              	.LASF54:
 4316 05b8 72774472 		.ascii	"rwDr\000"
 4316      00
 4317              	.LASF102:
 4318 05bd 5553425F 		.ascii	"USB_InitControlRead\000"
 4318      496E6974 
 4318      436F6E74 
 4318      726F6C52 
 4318      65616400 
 4319              	.LASF82:
 4320 05d1 63757249 		.ascii	"curInterfacesNum\000"
 4320      6E746572 
 4320      66616365 
 4320      734E756D 
 4320      00
 4321              	.LASF62:
 4322 05e2 70546D70 		.ascii	"pTmp\000"
 4322      00
 4323              	.LASF40:
 4324 05e7 65704461 		.ascii	"epData\000"
 4324      746100
 4325              	.LASF29:
 4326 05ee 624D6973 		.ascii	"bMisc\000"
 4326      6300
 4327              	.LASF41:
 4328 05f4 5553425F 		.ascii	"USB_ep0_data_struct\000"
 4328      6570305F 
 4328      64617461 
 4328      5F737472 
 4328      75637400 
 4329              	.LASF101:
 4330 0608 5553425F 		.ascii	"USB_InitNoDataControlTransfer\000"
 4330      496E6974 
 4330      4E6F4461 
 4330      7461436F 
ARM GAS  C:\Users\CHANTI~1\AppData\Local\Temp\cckZxxwg.s 			page 107


 4330      6E74726F 
 4331              	.LASF47:
 4332 0626 6570496E 		.ascii	"epIntEn\000"
 4332      74456E00 
 4333              	.LASF90:
 4334 062e 5553425F 		.ascii	"USB_configurationChanged\000"
 4334      636F6E66 
 4334      69677572 
 4334      6174696F 
 4334      6E436861 
 4335              	.LASF93:
 4336 0647 5553425F 		.ascii	"USB_interfaceNumber\000"
 4336      696E7465 
 4336      72666163 
 4336      654E756D 
 4336      62657200 
 4337              	.LASF63:
 4338 065b 5553425F 		.ascii	"USB_ConfigAltChanged\000"
 4338      436F6E66 
 4338      6967416C 
 4338      74436861 
 4338      6E676564 
 4339              		.ident	"GCC: (GNU Tools for ARM Embedded Processors) 5.4.1 20160609 (release) [ARM/embedded-5-bran
