ARM GAS  C:\Users\CHANTI~1\AppData\Local\Temp\cckZxxwg.s 			page 1


   1              		.syntax unified
   2              		.cpu cortex-m3
   3              		.fpu softvfp
   4              		.eabi_attribute 20, 1
   5              		.eabi_attribute 21, 1
   6              		.eabi_attribute 23, 3
   7              		.eabi_attribute 24, 1
   8              		.eabi_attribute 25, 1
   9              		.eabi_attribute 26, 1
  10              		.eabi_attribute 30, 1
  11              		.eabi_attribute 34, 1
  12              		.eabi_attribute 18, 4
  13              		.thumb
  14              		.syntax unified
  15              		.file	"USB_std.c"
  16              		.text
  17              	.Ltext0:
  18              		.cfi_sections	.debug_frame
  19              		.section	.text.USB_ConfigReg,"ax",%progbits
  20              		.align	2
  21              		.global	USB_ConfigReg
  22              		.thumb
  23              		.thumb_func
  24              		.type	USB_ConfigReg, %function
  25              	USB_ConfigReg:
  26              	.LFB1:
  27              		.file 1 "Generated_Source\\PSoC5\\USB_std.c"
   1:Generated_Source\PSoC5/USB_std.c **** /***************************************************************************//**
   2:Generated_Source\PSoC5/USB_std.c **** * \file USB_std.c
   3:Generated_Source\PSoC5/USB_std.c **** * \version 3.20
   4:Generated_Source\PSoC5/USB_std.c **** *
   5:Generated_Source\PSoC5/USB_std.c **** * \brief
   6:Generated_Source\PSoC5/USB_std.c **** *  This file contains the USB Standard request handler.
   7:Generated_Source\PSoC5/USB_std.c **** *
   8:Generated_Source\PSoC5/USB_std.c **** ********************************************************************************
   9:Generated_Source\PSoC5/USB_std.c **** * \copyright
  10:Generated_Source\PSoC5/USB_std.c **** * Copyright 2008-2016, Cypress Semiconductor Corporation.  All rights reserved.
  11:Generated_Source\PSoC5/USB_std.c **** * You may use this file only in accordance with the license, terms, conditions,
  12:Generated_Source\PSoC5/USB_std.c **** * disclaimers, and limitations in the end user license agreement accompanying
  13:Generated_Source\PSoC5/USB_std.c **** * the software package with which this file was provided.
  14:Generated_Source\PSoC5/USB_std.c **** *******************************************************************************/
  15:Generated_Source\PSoC5/USB_std.c **** 
  16:Generated_Source\PSoC5/USB_std.c **** #include "USB_pvt.h"
  17:Generated_Source\PSoC5/USB_std.c **** 
  18:Generated_Source\PSoC5/USB_std.c **** /***************************************
  19:Generated_Source\PSoC5/USB_std.c **** *   Static data allocation
  20:Generated_Source\PSoC5/USB_std.c **** ***************************************/
  21:Generated_Source\PSoC5/USB_std.c **** 
  22:Generated_Source\PSoC5/USB_std.c **** #if defined(USB_ENABLE_FWSN_STRING)
  23:Generated_Source\PSoC5/USB_std.c ****     static volatile uint8* USB_fwSerialNumberStringDescriptor;
  24:Generated_Source\PSoC5/USB_std.c ****     static volatile uint8  USB_snStringConfirm = USB_FALSE;
  25:Generated_Source\PSoC5/USB_std.c **** #endif  /* (USB_ENABLE_FWSN_STRING) */
  26:Generated_Source\PSoC5/USB_std.c **** 
  27:Generated_Source\PSoC5/USB_std.c **** #if defined(USB_ENABLE_FWSN_STRING)
  28:Generated_Source\PSoC5/USB_std.c ****     /***************************************************************************
  29:Generated_Source\PSoC5/USB_std.c ****     * Function Name: USB_SerialNumString
  30:Generated_Source\PSoC5/USB_std.c ****     ************************************************************************//**
ARM GAS  C:\Users\CHANTI~1\AppData\Local\Temp\cckZxxwg.s 			page 2


  31:Generated_Source\PSoC5/USB_std.c ****     *
  32:Generated_Source\PSoC5/USB_std.c ****     *  This function is available only when the User Call Back option in the 
  33:Generated_Source\PSoC5/USB_std.c ****     *  Serial Number String descriptor properties is selected. Application 
  34:Generated_Source\PSoC5/USB_std.c ****     *  firmware can provide the source of the USB device serial number string 
  35:Generated_Source\PSoC5/USB_std.c ****     *  descriptor during run time. The default string is used if the application 
  36:Generated_Source\PSoC5/USB_std.c ****     *  firmware does not use this function or sets the wrong string descriptor.
  37:Generated_Source\PSoC5/USB_std.c ****     *
  38:Generated_Source\PSoC5/USB_std.c ****     *  \param snString:  Pointer to the user-defined string descriptor. The 
  39:Generated_Source\PSoC5/USB_std.c ****     *  string descriptor should meet the Universal Serial Bus Specification 
  40:Generated_Source\PSoC5/USB_std.c ****     *  revision 2.0 chapter 9.6.7
  41:Generated_Source\PSoC5/USB_std.c ****     *  Offset|Size|Value|Description
  42:Generated_Source\PSoC5/USB_std.c ****     *  ------|----|------|---------------------------------
  43:Generated_Source\PSoC5/USB_std.c ****     *  0     |1   |N     |Size of this descriptor in bytes
  44:Generated_Source\PSoC5/USB_std.c ****     *  1     |1   |0x03  |STRING Descriptor Type
  45:Generated_Source\PSoC5/USB_std.c ****     *  2     |N-2 |Number|UNICODE encoded string
  46:Generated_Source\PSoC5/USB_std.c ****     *  
  47:Generated_Source\PSoC5/USB_std.c ****     * *For example:* uint8 snString[16]={0x0E,0x03,'F',0,'W',0,'S',0,'N',0,'0',0,'1',0};
  48:Generated_Source\PSoC5/USB_std.c ****     *
  49:Generated_Source\PSoC5/USB_std.c ****     * \reentrant
  50:Generated_Source\PSoC5/USB_std.c ****     *  No.
  51:Generated_Source\PSoC5/USB_std.c ****     *
  52:Generated_Source\PSoC5/USB_std.c ****     ***************************************************************************/
  53:Generated_Source\PSoC5/USB_std.c ****     void  USB_SerialNumString(uint8 snString[]) 
  54:Generated_Source\PSoC5/USB_std.c ****     {
  55:Generated_Source\PSoC5/USB_std.c ****         USB_snStringConfirm = USB_FALSE;
  56:Generated_Source\PSoC5/USB_std.c ****         
  57:Generated_Source\PSoC5/USB_std.c ****         if (snString != NULL)
  58:Generated_Source\PSoC5/USB_std.c ****         {
  59:Generated_Source\PSoC5/USB_std.c ****             /* Check descriptor validation */
  60:Generated_Source\PSoC5/USB_std.c ****             if ((snString[0u] > 1u) && (snString[1u] == USB_DESCR_STRING))
  61:Generated_Source\PSoC5/USB_std.c ****             {
  62:Generated_Source\PSoC5/USB_std.c ****                 USB_fwSerialNumberStringDescriptor = snString;
  63:Generated_Source\PSoC5/USB_std.c ****                 USB_snStringConfirm = USB_TRUE;
  64:Generated_Source\PSoC5/USB_std.c ****             }
  65:Generated_Source\PSoC5/USB_std.c ****         }
  66:Generated_Source\PSoC5/USB_std.c ****     }
  67:Generated_Source\PSoC5/USB_std.c **** #endif  /* USB_ENABLE_FWSN_STRING */
  68:Generated_Source\PSoC5/USB_std.c **** 
  69:Generated_Source\PSoC5/USB_std.c **** 
  70:Generated_Source\PSoC5/USB_std.c **** /*******************************************************************************
  71:Generated_Source\PSoC5/USB_std.c **** * Function Name: USB_HandleStandardRqst
  72:Generated_Source\PSoC5/USB_std.c **** ****************************************************************************//**
  73:Generated_Source\PSoC5/USB_std.c **** *
  74:Generated_Source\PSoC5/USB_std.c **** *  This Routine dispatches standard requests
  75:Generated_Source\PSoC5/USB_std.c **** *
  76:Generated_Source\PSoC5/USB_std.c **** *
  77:Generated_Source\PSoC5/USB_std.c **** * \return
  78:Generated_Source\PSoC5/USB_std.c **** *  TRUE if request handled.
  79:Generated_Source\PSoC5/USB_std.c **** *
  80:Generated_Source\PSoC5/USB_std.c **** * \reentrant
  81:Generated_Source\PSoC5/USB_std.c **** *  No.
  82:Generated_Source\PSoC5/USB_std.c **** *
  83:Generated_Source\PSoC5/USB_std.c **** *******************************************************************************/
  84:Generated_Source\PSoC5/USB_std.c **** uint8 USB_HandleStandardRqst(void) 
  85:Generated_Source\PSoC5/USB_std.c **** {
  86:Generated_Source\PSoC5/USB_std.c ****     uint8 requestHandled = USB_FALSE;
  87:Generated_Source\PSoC5/USB_std.c ****     uint8 interfaceNumber;
ARM GAS  C:\Users\CHANTI~1\AppData\Local\Temp\cckZxxwg.s 			page 3


  88:Generated_Source\PSoC5/USB_std.c ****     uint8 configurationN;
  89:Generated_Source\PSoC5/USB_std.c ****     uint8 bmRequestType = USB_bmRequestTypeReg;
  90:Generated_Source\PSoC5/USB_std.c **** 
  91:Generated_Source\PSoC5/USB_std.c **** #if defined(USB_ENABLE_STRINGS)
  92:Generated_Source\PSoC5/USB_std.c ****     volatile uint8 *pStr = 0u;
  93:Generated_Source\PSoC5/USB_std.c ****     #if defined(USB_ENABLE_DESCRIPTOR_STRINGS)
  94:Generated_Source\PSoC5/USB_std.c ****         uint8 nStr;
  95:Generated_Source\PSoC5/USB_std.c ****         uint8 descrLength;
  96:Generated_Source\PSoC5/USB_std.c ****     #endif /* (USB_ENABLE_DESCRIPTOR_STRINGS) */
  97:Generated_Source\PSoC5/USB_std.c **** #endif /* (USB_ENABLE_STRINGS) */
  98:Generated_Source\PSoC5/USB_std.c ****     
  99:Generated_Source\PSoC5/USB_std.c ****     static volatile uint8 USB_tBuffer[USB_STATUS_LENGTH_MAX];
 100:Generated_Source\PSoC5/USB_std.c ****     const T_USB_LUT CYCODE *pTmp;
 101:Generated_Source\PSoC5/USB_std.c **** 
 102:Generated_Source\PSoC5/USB_std.c ****     USB_currentTD.count = 0u;
 103:Generated_Source\PSoC5/USB_std.c **** 
 104:Generated_Source\PSoC5/USB_std.c ****     if (USB_RQST_DIR_D2H == (bmRequestType & USB_RQST_DIR_MASK))
 105:Generated_Source\PSoC5/USB_std.c ****     {
 106:Generated_Source\PSoC5/USB_std.c ****         /* Control Read */
 107:Generated_Source\PSoC5/USB_std.c ****         switch (USB_bRequestReg)
 108:Generated_Source\PSoC5/USB_std.c ****         {
 109:Generated_Source\PSoC5/USB_std.c ****             case USB_GET_DESCRIPTOR:
 110:Generated_Source\PSoC5/USB_std.c ****                 if (USB_DESCR_DEVICE ==USB_wValueHiReg)
 111:Generated_Source\PSoC5/USB_std.c ****                 {
 112:Generated_Source\PSoC5/USB_std.c ****                     pTmp = USB_GetDeviceTablePtr();
 113:Generated_Source\PSoC5/USB_std.c ****                     USB_currentTD.pData = (volatile uint8 *)pTmp->p_list;
 114:Generated_Source\PSoC5/USB_std.c ****                     USB_currentTD.count = USB_DEVICE_DESCR_LENGTH;
 115:Generated_Source\PSoC5/USB_std.c ****                     
 116:Generated_Source\PSoC5/USB_std.c ****                     requestHandled  = USB_InitControlRead();
 117:Generated_Source\PSoC5/USB_std.c ****                 }
 118:Generated_Source\PSoC5/USB_std.c ****                 else if (USB_DESCR_CONFIG == USB_wValueHiReg)
 119:Generated_Source\PSoC5/USB_std.c ****                 {
 120:Generated_Source\PSoC5/USB_std.c ****                     pTmp = USB_GetConfigTablePtr((uint8) USB_wValueLoReg);
 121:Generated_Source\PSoC5/USB_std.c ****                     
 122:Generated_Source\PSoC5/USB_std.c ****                     /* Verify that requested descriptor exists */
 123:Generated_Source\PSoC5/USB_std.c ****                     if (pTmp != NULL)
 124:Generated_Source\PSoC5/USB_std.c ****                     {
 125:Generated_Source\PSoC5/USB_std.c ****                         USB_currentTD.pData = (volatile uint8 *)pTmp->p_list;
 126:Generated_Source\PSoC5/USB_std.c ****                         USB_currentTD.count = (uint16)((uint16)(USB_currentTD.pData)[USB_CONFIG_DES
 127:Generated_Source\PSoC5/USB_std.c ****                                                                             (USB_currentTD.pData)[U
 128:Generated_Source\PSoC5/USB_std.c ****                         requestHandled  = USB_InitControlRead();
 129:Generated_Source\PSoC5/USB_std.c ****                     }
 130:Generated_Source\PSoC5/USB_std.c ****                 }
 131:Generated_Source\PSoC5/USB_std.c ****                 
 132:Generated_Source\PSoC5/USB_std.c ****             #if(USB_BOS_ENABLE)
 133:Generated_Source\PSoC5/USB_std.c ****                 else if (USB_DESCR_BOS == USB_wValueHiReg)
 134:Generated_Source\PSoC5/USB_std.c ****                 {
 135:Generated_Source\PSoC5/USB_std.c ****                     pTmp = USB_GetBOSPtr();
 136:Generated_Source\PSoC5/USB_std.c ****                     
 137:Generated_Source\PSoC5/USB_std.c ****                     /* Verify that requested descriptor exists */
 138:Generated_Source\PSoC5/USB_std.c ****                     if (pTmp != NULL)
 139:Generated_Source\PSoC5/USB_std.c ****                     {
 140:Generated_Source\PSoC5/USB_std.c ****                         USB_currentTD.pData = (volatile uint8 *)pTmp;
 141:Generated_Source\PSoC5/USB_std.c ****                         USB_currentTD.count = ((uint16)((uint16)(USB_currentTD.pData)[USB_BOS_DESCR
 142:Generated_Source\PSoC5/USB_std.c ****                                                                              (USB_currentTD.pData)[
 143:Generated_Source\PSoC5/USB_std.c ****                         requestHandled  = USB_InitControlRead();
 144:Generated_Source\PSoC5/USB_std.c ****                     }
ARM GAS  C:\Users\CHANTI~1\AppData\Local\Temp\cckZxxwg.s 			page 4


 145:Generated_Source\PSoC5/USB_std.c ****                 }
 146:Generated_Source\PSoC5/USB_std.c ****             #endif /*(USB_BOS_ENABLE)*/
 147:Generated_Source\PSoC5/USB_std.c ****             
 148:Generated_Source\PSoC5/USB_std.c ****             #if defined(USB_ENABLE_STRINGS)
 149:Generated_Source\PSoC5/USB_std.c ****                 else if (USB_DESCR_STRING == USB_wValueHiReg)
 150:Generated_Source\PSoC5/USB_std.c ****                 {
 151:Generated_Source\PSoC5/USB_std.c ****                 /* Descriptor Strings */
 152:Generated_Source\PSoC5/USB_std.c ****                 #if defined(USB_ENABLE_DESCRIPTOR_STRINGS)
 153:Generated_Source\PSoC5/USB_std.c ****                     nStr = 0u;
 154:Generated_Source\PSoC5/USB_std.c ****                     pStr = (volatile uint8 *) &USB_STRING_DESCRIPTORS[0u];
 155:Generated_Source\PSoC5/USB_std.c ****                     
 156:Generated_Source\PSoC5/USB_std.c ****                     while ((USB_wValueLoReg > nStr) && (*pStr != 0u))
 157:Generated_Source\PSoC5/USB_std.c ****                     {
 158:Generated_Source\PSoC5/USB_std.c ****                         /* Read descriptor length from 1st byte */
 159:Generated_Source\PSoC5/USB_std.c ****                         descrLength = *pStr;
 160:Generated_Source\PSoC5/USB_std.c ****                         /* Move to next string descriptor */
 161:Generated_Source\PSoC5/USB_std.c ****                         pStr = &pStr[descrLength];
 162:Generated_Source\PSoC5/USB_std.c ****                         nStr++;
 163:Generated_Source\PSoC5/USB_std.c ****                     }
 164:Generated_Source\PSoC5/USB_std.c ****                 #endif /* (USB_ENABLE_DESCRIPTOR_STRINGS) */
 165:Generated_Source\PSoC5/USB_std.c ****                 
 166:Generated_Source\PSoC5/USB_std.c ****                 /* Microsoft OS String */
 167:Generated_Source\PSoC5/USB_std.c ****                 #if defined(USB_ENABLE_MSOS_STRING)
 168:Generated_Source\PSoC5/USB_std.c ****                     if (USB_STRING_MSOS == USB_wValueLoReg)
 169:Generated_Source\PSoC5/USB_std.c ****                     {
 170:Generated_Source\PSoC5/USB_std.c ****                         pStr = (volatile uint8 *)& USB_MSOS_DESCRIPTOR[0u];
 171:Generated_Source\PSoC5/USB_std.c ****                     }
 172:Generated_Source\PSoC5/USB_std.c ****                 #endif /* (USB_ENABLE_MSOS_STRING) */
 173:Generated_Source\PSoC5/USB_std.c ****                 
 174:Generated_Source\PSoC5/USB_std.c ****                 /* SN string */
 175:Generated_Source\PSoC5/USB_std.c ****                 #if defined(USB_ENABLE_SN_STRING)
 176:Generated_Source\PSoC5/USB_std.c ****                     if ((USB_wValueLoReg != 0u) && 
 177:Generated_Source\PSoC5/USB_std.c ****                         (USB_wValueLoReg == USB_DEVICE0_DESCR[USB_DEVICE_DESCR_SN_SHIFT]))
 178:Generated_Source\PSoC5/USB_std.c ****                     {
 179:Generated_Source\PSoC5/USB_std.c ****                     #if defined(USB_ENABLE_IDSN_STRING)
 180:Generated_Source\PSoC5/USB_std.c ****                         /* Read DIE ID and generate string descriptor in RAM */
 181:Generated_Source\PSoC5/USB_std.c ****                         USB_ReadDieID(USB_idSerialNumberStringDescriptor);
 182:Generated_Source\PSoC5/USB_std.c ****                         pStr = USB_idSerialNumberStringDescriptor;
 183:Generated_Source\PSoC5/USB_std.c ****                     #elif defined(USB_ENABLE_FWSN_STRING)
 184:Generated_Source\PSoC5/USB_std.c ****                         
 185:Generated_Source\PSoC5/USB_std.c ****                         if(USB_snStringConfirm != USB_FALSE)
 186:Generated_Source\PSoC5/USB_std.c ****                         {
 187:Generated_Source\PSoC5/USB_std.c ****                             pStr = USB_fwSerialNumberStringDescriptor;
 188:Generated_Source\PSoC5/USB_std.c ****                         }
 189:Generated_Source\PSoC5/USB_std.c ****                         else
 190:Generated_Source\PSoC5/USB_std.c ****                         {
 191:Generated_Source\PSoC5/USB_std.c ****                             pStr = (volatile uint8 *)&USB_SN_STRING_DESCRIPTOR[0u];
 192:Generated_Source\PSoC5/USB_std.c ****                         }
 193:Generated_Source\PSoC5/USB_std.c ****                     #else
 194:Generated_Source\PSoC5/USB_std.c ****                         pStr = (volatile uint8 *)&USB_SN_STRING_DESCRIPTOR[0u];
 195:Generated_Source\PSoC5/USB_std.c ****                     #endif  /* (USB_ENABLE_IDSN_STRING) */
 196:Generated_Source\PSoC5/USB_std.c ****                     }
 197:Generated_Source\PSoC5/USB_std.c ****                 #endif /* (USB_ENABLE_SN_STRING) */
 198:Generated_Source\PSoC5/USB_std.c ****                 
 199:Generated_Source\PSoC5/USB_std.c ****                     if (*pStr != 0u)
 200:Generated_Source\PSoC5/USB_std.c ****                     {
 201:Generated_Source\PSoC5/USB_std.c ****                         USB_currentTD.count = *pStr;
ARM GAS  C:\Users\CHANTI~1\AppData\Local\Temp\cckZxxwg.s 			page 5


 202:Generated_Source\PSoC5/USB_std.c ****                         USB_currentTD.pData = pStr;
 203:Generated_Source\PSoC5/USB_std.c ****                         requestHandled  = USB_InitControlRead();
 204:Generated_Source\PSoC5/USB_std.c ****                     }
 205:Generated_Source\PSoC5/USB_std.c ****                 }
 206:Generated_Source\PSoC5/USB_std.c ****             #endif /*  USB_ENABLE_STRINGS */
 207:Generated_Source\PSoC5/USB_std.c ****                 else
 208:Generated_Source\PSoC5/USB_std.c ****                 {
 209:Generated_Source\PSoC5/USB_std.c ****                     requestHandled = USB_DispatchClassRqst();
 210:Generated_Source\PSoC5/USB_std.c ****                 }
 211:Generated_Source\PSoC5/USB_std.c ****                 break;
 212:Generated_Source\PSoC5/USB_std.c ****                 
 213:Generated_Source\PSoC5/USB_std.c ****             case USB_GET_STATUS:
 214:Generated_Source\PSoC5/USB_std.c ****                 switch (bmRequestType & USB_RQST_RCPT_MASK)
 215:Generated_Source\PSoC5/USB_std.c ****                 {
 216:Generated_Source\PSoC5/USB_std.c ****                     case USB_RQST_RCPT_EP:
 217:Generated_Source\PSoC5/USB_std.c ****                         USB_currentTD.count = USB_EP_STATUS_LENGTH;
 218:Generated_Source\PSoC5/USB_std.c ****                         USB_tBuffer[0u]     = USB_EP[USB_wIndexLoReg & USB_DIR_UNUSED].hwEpState;
 219:Generated_Source\PSoC5/USB_std.c ****                         USB_tBuffer[1u]     = 0u;
 220:Generated_Source\PSoC5/USB_std.c ****                         USB_currentTD.pData = &USB_tBuffer[0u];
 221:Generated_Source\PSoC5/USB_std.c ****                         
 222:Generated_Source\PSoC5/USB_std.c ****                         requestHandled  = USB_InitControlRead();
 223:Generated_Source\PSoC5/USB_std.c ****                         break;
 224:Generated_Source\PSoC5/USB_std.c ****                     case USB_RQST_RCPT_DEV:
 225:Generated_Source\PSoC5/USB_std.c ****                         USB_currentTD.count = USB_DEVICE_STATUS_LENGTH;
 226:Generated_Source\PSoC5/USB_std.c ****                         USB_tBuffer[0u]     = USB_deviceStatus;
 227:Generated_Source\PSoC5/USB_std.c ****                         USB_tBuffer[1u]     = 0u;
 228:Generated_Source\PSoC5/USB_std.c ****                         USB_currentTD.pData = &USB_tBuffer[0u];
 229:Generated_Source\PSoC5/USB_std.c ****                         
 230:Generated_Source\PSoC5/USB_std.c ****                         requestHandled  = USB_InitControlRead();
 231:Generated_Source\PSoC5/USB_std.c ****                         break;
 232:Generated_Source\PSoC5/USB_std.c ****                     default:    /* requestHandled is initialized as FALSE by default */
 233:Generated_Source\PSoC5/USB_std.c ****                         break;
 234:Generated_Source\PSoC5/USB_std.c ****                 }
 235:Generated_Source\PSoC5/USB_std.c ****                 break;
 236:Generated_Source\PSoC5/USB_std.c ****                 
 237:Generated_Source\PSoC5/USB_std.c ****             case USB_GET_CONFIGURATION:
 238:Generated_Source\PSoC5/USB_std.c ****                 USB_currentTD.count = 1u;
 239:Generated_Source\PSoC5/USB_std.c ****                 USB_currentTD.pData = (volatile uint8 *) &USB_configuration;
 240:Generated_Source\PSoC5/USB_std.c ****                 requestHandled  = USB_InitControlRead();
 241:Generated_Source\PSoC5/USB_std.c ****                 break;
 242:Generated_Source\PSoC5/USB_std.c ****                 
 243:Generated_Source\PSoC5/USB_std.c ****             case USB_GET_INTERFACE:
 244:Generated_Source\PSoC5/USB_std.c ****                 USB_currentTD.count = 1u;
 245:Generated_Source\PSoC5/USB_std.c ****                 USB_currentTD.pData = (volatile uint8 *) &USB_interfaceSetting[USB_wIndexLoReg];
 246:Generated_Source\PSoC5/USB_std.c ****                 requestHandled  = USB_InitControlRead();
 247:Generated_Source\PSoC5/USB_std.c ****                 break;
 248:Generated_Source\PSoC5/USB_std.c ****                 
 249:Generated_Source\PSoC5/USB_std.c ****             default: /* requestHandled is initialized as FALSE by default */
 250:Generated_Source\PSoC5/USB_std.c ****                 break;
 251:Generated_Source\PSoC5/USB_std.c ****         }
 252:Generated_Source\PSoC5/USB_std.c ****     }
 253:Generated_Source\PSoC5/USB_std.c ****     else
 254:Generated_Source\PSoC5/USB_std.c ****     {
 255:Generated_Source\PSoC5/USB_std.c ****         /* Control Write */
 256:Generated_Source\PSoC5/USB_std.c ****         switch (USB_bRequestReg)
 257:Generated_Source\PSoC5/USB_std.c ****         {
 258:Generated_Source\PSoC5/USB_std.c ****             case USB_SET_ADDRESS:
ARM GAS  C:\Users\CHANTI~1\AppData\Local\Temp\cckZxxwg.s 			page 6


 259:Generated_Source\PSoC5/USB_std.c ****                 /* Store address to be set in USB_NoDataControlStatusStage(). */
 260:Generated_Source\PSoC5/USB_std.c ****                 USB_deviceAddress = (uint8) USB_wValueLoReg;
 261:Generated_Source\PSoC5/USB_std.c ****                 requestHandled = USB_InitNoDataControlTransfer();
 262:Generated_Source\PSoC5/USB_std.c ****                 break;
 263:Generated_Source\PSoC5/USB_std.c ****                 
 264:Generated_Source\PSoC5/USB_std.c ****             case USB_SET_CONFIGURATION:
 265:Generated_Source\PSoC5/USB_std.c ****                 configurationN = USB_wValueLoReg;
 266:Generated_Source\PSoC5/USB_std.c ****                 
 267:Generated_Source\PSoC5/USB_std.c ****                 /* Verify that configuration descriptor exists */
 268:Generated_Source\PSoC5/USB_std.c ****                 if(configurationN > 0u)
 269:Generated_Source\PSoC5/USB_std.c ****                 {
 270:Generated_Source\PSoC5/USB_std.c ****                     pTmp = USB_GetConfigTablePtr((uint8) configurationN - 1u);
 271:Generated_Source\PSoC5/USB_std.c ****                 }
 272:Generated_Source\PSoC5/USB_std.c ****                 
 273:Generated_Source\PSoC5/USB_std.c ****                 /* Responds with a Request Error when configuration number is invalid */
 274:Generated_Source\PSoC5/USB_std.c ****                 if (((configurationN > 0u) && (pTmp != NULL)) || (configurationN == 0u))
 275:Generated_Source\PSoC5/USB_std.c ****                 {
 276:Generated_Source\PSoC5/USB_std.c ****                     /* Set new configuration if it has been changed */
 277:Generated_Source\PSoC5/USB_std.c ****                     if(configurationN != USB_configuration)
 278:Generated_Source\PSoC5/USB_std.c ****                     {
 279:Generated_Source\PSoC5/USB_std.c ****                         USB_configuration = (uint8) configurationN;
 280:Generated_Source\PSoC5/USB_std.c ****                         USB_configurationChanged = USB_TRUE;
 281:Generated_Source\PSoC5/USB_std.c ****                         USB_Config(USB_TRUE);
 282:Generated_Source\PSoC5/USB_std.c ****                     }
 283:Generated_Source\PSoC5/USB_std.c ****                     requestHandled = USB_InitNoDataControlTransfer();
 284:Generated_Source\PSoC5/USB_std.c ****                 }
 285:Generated_Source\PSoC5/USB_std.c ****                 break;
 286:Generated_Source\PSoC5/USB_std.c ****                 
 287:Generated_Source\PSoC5/USB_std.c ****             case USB_SET_INTERFACE:
 288:Generated_Source\PSoC5/USB_std.c ****                 if (0u != USB_ValidateAlternateSetting())
 289:Generated_Source\PSoC5/USB_std.c ****                 {
 290:Generated_Source\PSoC5/USB_std.c ****                     /* Get interface number from the request. */
 291:Generated_Source\PSoC5/USB_std.c ****                     interfaceNumber = USB_wIndexLoReg;
 292:Generated_Source\PSoC5/USB_std.c ****                     USB_interfaceNumber = (uint8) USB_wIndexLoReg;
 293:Generated_Source\PSoC5/USB_std.c ****                      
 294:Generated_Source\PSoC5/USB_std.c ****                     /* Check if alternate settings is changed for interface. */
 295:Generated_Source\PSoC5/USB_std.c ****                     if (USB_interfaceSettingLast[interfaceNumber] != USB_interfaceSetting[interface
 296:Generated_Source\PSoC5/USB_std.c ****                     {
 297:Generated_Source\PSoC5/USB_std.c ****                         USB_configurationChanged = USB_TRUE;
 298:Generated_Source\PSoC5/USB_std.c ****                     
 299:Generated_Source\PSoC5/USB_std.c ****                         /* Change alternate setting for the endpoints. */
 300:Generated_Source\PSoC5/USB_std.c ****                     #if (USB_EP_MANAGEMENT_MANUAL && USB_EP_ALLOC_DYNAMIC)
 301:Generated_Source\PSoC5/USB_std.c ****                         USB_Config(USB_FALSE);
 302:Generated_Source\PSoC5/USB_std.c ****                     #else
 303:Generated_Source\PSoC5/USB_std.c ****                         USB_ConfigAltChanged();
 304:Generated_Source\PSoC5/USB_std.c ****                     #endif /* (USB_EP_MANAGEMENT_MANUAL && USB_EP_ALLOC_DYNAMIC) */
 305:Generated_Source\PSoC5/USB_std.c ****                     }
 306:Generated_Source\PSoC5/USB_std.c ****                     
 307:Generated_Source\PSoC5/USB_std.c ****                     requestHandled = USB_InitNoDataControlTransfer();
 308:Generated_Source\PSoC5/USB_std.c ****                 }
 309:Generated_Source\PSoC5/USB_std.c ****                 break;
 310:Generated_Source\PSoC5/USB_std.c ****                 
 311:Generated_Source\PSoC5/USB_std.c ****             case USB_CLEAR_FEATURE:
 312:Generated_Source\PSoC5/USB_std.c ****                 switch (bmRequestType & USB_RQST_RCPT_MASK)
 313:Generated_Source\PSoC5/USB_std.c ****                 {
 314:Generated_Source\PSoC5/USB_std.c ****                     case USB_RQST_RCPT_EP:
 315:Generated_Source\PSoC5/USB_std.c ****                         if (USB_wValueLoReg == USB_ENDPOINT_HALT)
ARM GAS  C:\Users\CHANTI~1\AppData\Local\Temp\cckZxxwg.s 			page 7


 316:Generated_Source\PSoC5/USB_std.c ****                         {
 317:Generated_Source\PSoC5/USB_std.c ****                             requestHandled = USB_ClearEndpointHalt();
 318:Generated_Source\PSoC5/USB_std.c ****                         }
 319:Generated_Source\PSoC5/USB_std.c ****                         break;
 320:Generated_Source\PSoC5/USB_std.c ****                     case USB_RQST_RCPT_DEV:
 321:Generated_Source\PSoC5/USB_std.c ****                         /* Clear device REMOTE_WAKEUP */
 322:Generated_Source\PSoC5/USB_std.c ****                         if (USB_wValueLoReg == USB_DEVICE_REMOTE_WAKEUP)
 323:Generated_Source\PSoC5/USB_std.c ****                         {
 324:Generated_Source\PSoC5/USB_std.c ****                             USB_deviceStatus &= (uint8)~USB_DEVICE_STATUS_REMOTE_WAKEUP;
 325:Generated_Source\PSoC5/USB_std.c ****                             requestHandled = USB_InitNoDataControlTransfer();
 326:Generated_Source\PSoC5/USB_std.c ****                         }
 327:Generated_Source\PSoC5/USB_std.c ****                         break;
 328:Generated_Source\PSoC5/USB_std.c ****                     case USB_RQST_RCPT_IFC:
 329:Generated_Source\PSoC5/USB_std.c ****                         /* Validate interfaceNumber */
 330:Generated_Source\PSoC5/USB_std.c ****                         if (USB_wIndexLoReg < USB_MAX_INTERFACES_NUMBER)
 331:Generated_Source\PSoC5/USB_std.c ****                         {
 332:Generated_Source\PSoC5/USB_std.c ****                             USB_interfaceStatus[USB_wIndexLoReg] &= (uint8) ~USB_wValueLoReg;
 333:Generated_Source\PSoC5/USB_std.c ****                             requestHandled = USB_InitNoDataControlTransfer();
 334:Generated_Source\PSoC5/USB_std.c ****                         }
 335:Generated_Source\PSoC5/USB_std.c ****                         break;
 336:Generated_Source\PSoC5/USB_std.c ****                     default:    /* requestHandled is initialized as FALSE by default */
 337:Generated_Source\PSoC5/USB_std.c ****                         break;
 338:Generated_Source\PSoC5/USB_std.c ****                 }
 339:Generated_Source\PSoC5/USB_std.c ****                 break;
 340:Generated_Source\PSoC5/USB_std.c ****                 
 341:Generated_Source\PSoC5/USB_std.c ****             case USB_SET_FEATURE:
 342:Generated_Source\PSoC5/USB_std.c ****                 switch (bmRequestType & USB_RQST_RCPT_MASK)
 343:Generated_Source\PSoC5/USB_std.c ****                 {
 344:Generated_Source\PSoC5/USB_std.c ****                     case USB_RQST_RCPT_EP:
 345:Generated_Source\PSoC5/USB_std.c ****                         if (USB_wValueLoReg == USB_ENDPOINT_HALT)
 346:Generated_Source\PSoC5/USB_std.c ****                         {
 347:Generated_Source\PSoC5/USB_std.c ****                             requestHandled = USB_SetEndpointHalt();
 348:Generated_Source\PSoC5/USB_std.c ****                         }
 349:Generated_Source\PSoC5/USB_std.c ****                         break;
 350:Generated_Source\PSoC5/USB_std.c ****                         
 351:Generated_Source\PSoC5/USB_std.c ****                     case USB_RQST_RCPT_DEV:
 352:Generated_Source\PSoC5/USB_std.c ****                         /* Set device REMOTE_WAKEUP */
 353:Generated_Source\PSoC5/USB_std.c ****                         if (USB_wValueLoReg == USB_DEVICE_REMOTE_WAKEUP)
 354:Generated_Source\PSoC5/USB_std.c ****                         {
 355:Generated_Source\PSoC5/USB_std.c ****                             USB_deviceStatus |= USB_DEVICE_STATUS_REMOTE_WAKEUP;
 356:Generated_Source\PSoC5/USB_std.c ****                             requestHandled = USB_InitNoDataControlTransfer();
 357:Generated_Source\PSoC5/USB_std.c ****                         }
 358:Generated_Source\PSoC5/USB_std.c ****                         break;
 359:Generated_Source\PSoC5/USB_std.c ****                         
 360:Generated_Source\PSoC5/USB_std.c ****                     case USB_RQST_RCPT_IFC:
 361:Generated_Source\PSoC5/USB_std.c ****                         /* Validate interfaceNumber */
 362:Generated_Source\PSoC5/USB_std.c ****                         if (USB_wIndexLoReg < USB_MAX_INTERFACES_NUMBER)
 363:Generated_Source\PSoC5/USB_std.c ****                         {
 364:Generated_Source\PSoC5/USB_std.c ****                             USB_interfaceStatus[USB_wIndexLoReg] &= (uint8) ~USB_wValueLoReg;
 365:Generated_Source\PSoC5/USB_std.c ****                             requestHandled = USB_InitNoDataControlTransfer();
 366:Generated_Source\PSoC5/USB_std.c ****                         }
 367:Generated_Source\PSoC5/USB_std.c ****                         break;
 368:Generated_Source\PSoC5/USB_std.c ****                     
 369:Generated_Source\PSoC5/USB_std.c ****                     default:    /* requestHandled is initialized as FALSE by default */
 370:Generated_Source\PSoC5/USB_std.c ****                         break;
 371:Generated_Source\PSoC5/USB_std.c ****                 }
 372:Generated_Source\PSoC5/USB_std.c ****                 break;
ARM GAS  C:\Users\CHANTI~1\AppData\Local\Temp\cckZxxwg.s 			page 8


 373:Generated_Source\PSoC5/USB_std.c ****                 
 374:Generated_Source\PSoC5/USB_std.c ****             default:    /* requestHandled is initialized as FALSE by default */
 375:Generated_Source\PSoC5/USB_std.c ****                 break;
 376:Generated_Source\PSoC5/USB_std.c ****         }
 377:Generated_Source\PSoC5/USB_std.c ****     }
 378:Generated_Source\PSoC5/USB_std.c ****     
 379:Generated_Source\PSoC5/USB_std.c ****     return (requestHandled);
 380:Generated_Source\PSoC5/USB_std.c **** }
 381:Generated_Source\PSoC5/USB_std.c **** 
 382:Generated_Source\PSoC5/USB_std.c **** 
 383:Generated_Source\PSoC5/USB_std.c **** #if defined(USB_ENABLE_IDSN_STRING)
 384:Generated_Source\PSoC5/USB_std.c ****     /***************************************************************************
 385:Generated_Source\PSoC5/USB_std.c ****     * Function Name: USB_ReadDieID
 386:Generated_Source\PSoC5/USB_std.c ****     ************************************************************************//**
 387:Generated_Source\PSoC5/USB_std.c ****     *
 388:Generated_Source\PSoC5/USB_std.c ****     *  This routine read Die ID and generate Serial Number string descriptor.
 389:Generated_Source\PSoC5/USB_std.c ****     *
 390:Generated_Source\PSoC5/USB_std.c ****     *  \param descr:  pointer on string descriptor. This string size has to be equal or
 391:Generated_Source\PSoC5/USB_std.c ****     *          greater than USB_IDSN_DESCR_LENGTH.
 392:Generated_Source\PSoC5/USB_std.c ****     *
 393:Generated_Source\PSoC5/USB_std.c ****     *
 394:Generated_Source\PSoC5/USB_std.c ****     * \reentrant
 395:Generated_Source\PSoC5/USB_std.c ****     *  No.
 396:Generated_Source\PSoC5/USB_std.c ****     *
 397:Generated_Source\PSoC5/USB_std.c ****     ***************************************************************************/
 398:Generated_Source\PSoC5/USB_std.c ****     void USB_ReadDieID(uint8 descr[]) 
 399:Generated_Source\PSoC5/USB_std.c ****     {
 400:Generated_Source\PSoC5/USB_std.c ****         const char8 CYCODE hex[] = "0123456789ABCDEF";
 401:Generated_Source\PSoC5/USB_std.c ****         uint8 i;
 402:Generated_Source\PSoC5/USB_std.c ****         uint8 j = 0u;
 403:Generated_Source\PSoC5/USB_std.c ****         uint8 uniqueId[8u];
 404:Generated_Source\PSoC5/USB_std.c **** 
 405:Generated_Source\PSoC5/USB_std.c ****         if (NULL != descr)
 406:Generated_Source\PSoC5/USB_std.c ****         {
 407:Generated_Source\PSoC5/USB_std.c ****             /* Initialize descriptor header. */
 408:Generated_Source\PSoC5/USB_std.c ****             descr[0u] = USB_IDSN_DESCR_LENGTH;
 409:Generated_Source\PSoC5/USB_std.c ****             descr[1u] = USB_DESCR_STRING;
 410:Generated_Source\PSoC5/USB_std.c ****             
 411:Generated_Source\PSoC5/USB_std.c ****             /* Unique ID size is 8 bytes. */
 412:Generated_Source\PSoC5/USB_std.c ****             CyGetUniqueId((uint32 *) uniqueId);
 413:Generated_Source\PSoC5/USB_std.c **** 
 414:Generated_Source\PSoC5/USB_std.c ****             /* Fill descriptor with unique device ID. */
 415:Generated_Source\PSoC5/USB_std.c ****             for (i = 2u; i < USB_IDSN_DESCR_LENGTH; i += 4u)
 416:Generated_Source\PSoC5/USB_std.c ****             {
 417:Generated_Source\PSoC5/USB_std.c ****                 descr[i]      = (uint8) hex[(uniqueId[j] >> 4u)];
 418:Generated_Source\PSoC5/USB_std.c ****                 descr[i + 1u] = 0u;
 419:Generated_Source\PSoC5/USB_std.c ****                 descr[i + 2u] = (uint8) hex[(uniqueId[j] & 0x0Fu)];
 420:Generated_Source\PSoC5/USB_std.c ****                 descr[i + 3u] = 0u;
 421:Generated_Source\PSoC5/USB_std.c ****                 ++j;
 422:Generated_Source\PSoC5/USB_std.c ****             }
 423:Generated_Source\PSoC5/USB_std.c ****         }
 424:Generated_Source\PSoC5/USB_std.c ****     }
 425:Generated_Source\PSoC5/USB_std.c **** #endif /* (USB_ENABLE_IDSN_STRING) */
 426:Generated_Source\PSoC5/USB_std.c **** 
 427:Generated_Source\PSoC5/USB_std.c **** 
 428:Generated_Source\PSoC5/USB_std.c **** /*******************************************************************************
 429:Generated_Source\PSoC5/USB_std.c **** * Function Name: USB_ConfigReg
ARM GAS  C:\Users\CHANTI~1\AppData\Local\Temp\cckZxxwg.s 			page 9


 430:Generated_Source\PSoC5/USB_std.c **** ****************************************************************************//**
 431:Generated_Source\PSoC5/USB_std.c **** *
 432:Generated_Source\PSoC5/USB_std.c **** *  This routine configures hardware registers from the variables.
 433:Generated_Source\PSoC5/USB_std.c **** *  It is called from USB_Config() function and from RestoreConfig
 434:Generated_Source\PSoC5/USB_std.c **** *  after Wakeup.
 435:Generated_Source\PSoC5/USB_std.c **** *
 436:Generated_Source\PSoC5/USB_std.c **** *******************************************************************************/
 437:Generated_Source\PSoC5/USB_std.c **** void USB_ConfigReg(void) 
 438:Generated_Source\PSoC5/USB_std.c **** {
  28              		.loc 1 438 0
  29              		.cfi_startproc
  30              		@ args = 0, pretend = 0, frame = 0
  31              		@ frame_needed = 0, uses_anonymous_args = 0
  32              		@ link register save eliminated.
  33 0000 10B4     		push	{r4}
  34              		.cfi_def_cfa_offset 4
  35              		.cfi_offset 4, -4
  36              	.LVL0:
 439:Generated_Source\PSoC5/USB_std.c ****     uint8 ep;
 440:Generated_Source\PSoC5/USB_std.c **** 
 441:Generated_Source\PSoC5/USB_std.c **** #if (USB_EP_MANAGEMENT_DMA_AUTO)
 442:Generated_Source\PSoC5/USB_std.c ****     uint8 epType = 0u;
 443:Generated_Source\PSoC5/USB_std.c **** #endif /* (USB_EP_MANAGEMENT_DMA_AUTO) */
 444:Generated_Source\PSoC5/USB_std.c **** 
 445:Generated_Source\PSoC5/USB_std.c ****     /* Go thought all endpoints and set hardware configuration */
 446:Generated_Source\PSoC5/USB_std.c ****     for (ep = USB_EP1; ep < USB_MAX_EP; ++ep)
  37              		.loc 1 446 0
  38 0002 0123     		movs	r3, #1
  39 0004 3EE0     		b	.L2
  40              	.LVL1:
  41              	.L6:
 447:Generated_Source\PSoC5/USB_std.c ****     {
 448:Generated_Source\PSoC5/USB_std.c ****         USB_ARB_EP_BASE.arbEp[ep].epCfg = USB_ARB_EPX_CFG_DEFAULT;
  42              		.loc 1 448 0
  43 0006 1946     		mov	r1, r3
  44 0008 1A01     		lsls	r2, r3, #4
  45 000a 0C24     		movs	r4, #12
  46 000c 2148     		ldr	r0, .L8
  47 000e 8454     		strb	r4, [r0, r2]
 449:Generated_Source\PSoC5/USB_std.c ****         
 450:Generated_Source\PSoC5/USB_std.c ****     #if (USB_EP_MANAGEMENT_DMA)
 451:Generated_Source\PSoC5/USB_std.c ****         /* Enable arbiter endpoint interrupt sources */
 452:Generated_Source\PSoC5/USB_std.c ****         USB_ARB_EP_BASE.arbEp[ep].epIntEn = USB_ARB_EPX_INT_MASK;
 453:Generated_Source\PSoC5/USB_std.c ****     #endif /* (USB_EP_MANAGEMENT_DMA) */
 454:Generated_Source\PSoC5/USB_std.c ****     
 455:Generated_Source\PSoC5/USB_std.c ****         if (USB_EP[ep].epMode != USB_MODE_DISABLE)
  48              		.loc 1 455 0
  49 0010 03EB4300 		add	r0, r3, r3, lsl #1
  50 0014 8200     		lsls	r2, r0, #2
  51 0016 2048     		ldr	r0, .L8+4
  52 0018 0244     		add	r2, r2, r0
  53 001a 5279     		ldrb	r2, [r2, #5]	@ zero_extendqisi2
  54 001c 12F0FF0F 		tst	r2, #255
  55 0020 13D0     		beq	.L3
 456:Generated_Source\PSoC5/USB_std.c ****         {
 457:Generated_Source\PSoC5/USB_std.c ****             if (0u != (USB_EP[ep].addr & USB_DIR_IN))
  56              		.loc 1 457 0
ARM GAS  C:\Users\CHANTI~1\AppData\Local\Temp\cckZxxwg.s 			page 10


  57 0022 03EB4300 		add	r0, r3, r3, lsl #1
  58 0026 8200     		lsls	r2, r0, #2
  59 0028 1B48     		ldr	r0, .L8+4
  60 002a 0244     		add	r2, r2, r0
  61 002c 1279     		ldrb	r2, [r2, #4]	@ zero_extendqisi2
  62 002e 12F0800F 		tst	r2, #128
  63 0032 04D0     		beq	.L4
 458:Generated_Source\PSoC5/USB_std.c ****             {
 459:Generated_Source\PSoC5/USB_std.c ****                 USB_SIE_EP_BASE.sieEp[ep].epCr0 = USB_MODE_NAK_IN;
  64              		.loc 1 459 0
  65 0034 1801     		lsls	r0, r3, #4
  66 0036 194A     		ldr	r2, .L8+8
  67 0038 0244     		add	r2, r2, r0
  68 003a 9470     		strb	r4, [r2, #2]
  69 003c 0AE0     		b	.L5
  70              	.L4:
 460:Generated_Source\PSoC5/USB_std.c ****                 
 461:Generated_Source\PSoC5/USB_std.c ****             #if (USB_EP_MANAGEMENT_DMA_AUTO && CY_PSOC4)
 462:Generated_Source\PSoC5/USB_std.c ****                 /* Clear DMA_TERMIN for IN endpoint. */
 463:Generated_Source\PSoC5/USB_std.c ****                 USB_ARB_EP_BASE.arbEp[ep].epIntEn &= (uint32) ~USB_ARB_EPX_INT_DMA_TERMIN;
 464:Generated_Source\PSoC5/USB_std.c ****             #endif /* (USB_EP_MANAGEMENT_DMA_AUTO && CY_PSOC4) */
 465:Generated_Source\PSoC5/USB_std.c ****             }
 466:Generated_Source\PSoC5/USB_std.c ****             else
 467:Generated_Source\PSoC5/USB_std.c ****             {
 468:Generated_Source\PSoC5/USB_std.c ****                 USB_SIE_EP_BASE.sieEp[ep].epCr0 = USB_MODE_NAK_OUT;
  71              		.loc 1 468 0
  72 003e 1801     		lsls	r0, r3, #4
  73 0040 164A     		ldr	r2, .L8+8
  74 0042 0244     		add	r2, r2, r0
  75 0044 0820     		movs	r0, #8
  76 0046 9070     		strb	r0, [r2, #2]
  77 0048 04E0     		b	.L5
  78              	.L3:
 469:Generated_Source\PSoC5/USB_std.c **** 
 470:Generated_Source\PSoC5/USB_std.c ****             #if (USB_EP_MANAGEMENT_DMA_AUTO)
 471:Generated_Source\PSoC5/USB_std.c ****                 /* (CY_PSOC4): DMA_TERMIN for OUT endpoint is set above. */
 472:Generated_Source\PSoC5/USB_std.c ****                 
 473:Generated_Source\PSoC5/USB_std.c ****                 /* Prepare endpoint type mask. */
 474:Generated_Source\PSoC5/USB_std.c ****                 epType |= (uint8) (0x01u << (ep - USB_EP1));
 475:Generated_Source\PSoC5/USB_std.c ****             #endif /* (USB_EP_MANAGEMENT_DMA_AUTO) */
 476:Generated_Source\PSoC5/USB_std.c ****             }
 477:Generated_Source\PSoC5/USB_std.c ****         }
 478:Generated_Source\PSoC5/USB_std.c ****         else
 479:Generated_Source\PSoC5/USB_std.c ****         {
 480:Generated_Source\PSoC5/USB_std.c ****             USB_SIE_EP_BASE.sieEp[ep].epCr0 = USB_MODE_STALL_DATA_EP;
  79              		.loc 1 480 0
  80 004a 1801     		lsls	r0, r3, #4
  81 004c 134A     		ldr	r2, .L8+8
  82 004e 0244     		add	r2, r2, r0
  83 0050 8020     		movs	r0, #128
  84 0052 9070     		strb	r0, [r2, #2]
  85              	.L5:
 481:Generated_Source\PSoC5/USB_std.c ****         }
 482:Generated_Source\PSoC5/USB_std.c ****         
 483:Generated_Source\PSoC5/USB_std.c ****     #if (!USB_EP_MANAGEMENT_DMA_AUTO)
 484:Generated_Source\PSoC5/USB_std.c ****         #if (CY_PSOC4)
 485:Generated_Source\PSoC5/USB_std.c ****             USB_ARB_EP16_BASE.arbEp[ep].rwRa16  = (uint32) USB_EP[ep].buffOffset;
ARM GAS  C:\Users\CHANTI~1\AppData\Local\Temp\cckZxxwg.s 			page 11


 486:Generated_Source\PSoC5/USB_std.c ****             USB_ARB_EP16_BASE.arbEp[ep].rwWa16  = (uint32) USB_EP[ep].buffOffset;
 487:Generated_Source\PSoC5/USB_std.c ****         #else
 488:Generated_Source\PSoC5/USB_std.c ****             USB_ARB_EP_BASE.arbEp[ep].rwRa    = LO8(USB_EP[ep].buffOffset);
  86              		.loc 1 488 0 discriminator 2
  87 0054 4800     		lsls	r0, r1, #1
  88 0056 0844     		add	r0, r0, r1
  89 0058 8200     		lsls	r2, r0, #2
  90 005a 0F48     		ldr	r0, .L8+4
  91 005c 0244     		add	r2, r2, r0
  92 005e D488     		ldrh	r4, [r2, #6]
  93 0060 E4B2     		uxtb	r4, r4
  94 0062 0801     		lsls	r0, r1, #4
  95 0064 0B49     		ldr	r1, .L8
  96 0066 0144     		add	r1, r1, r0
  97 0068 8C71     		strb	r4, [r1, #6]
 489:Generated_Source\PSoC5/USB_std.c ****             USB_ARB_EP_BASE.arbEp[ep].rwRaMsb = HI8(USB_EP[ep].buffOffset);
  98              		.loc 1 489 0 discriminator 2
  99 006a D088     		ldrh	r0, [r2, #6]
 100 006c C0F30720 		ubfx	r0, r0, #8, #8
 101 0070 C871     		strb	r0, [r1, #7]
 490:Generated_Source\PSoC5/USB_std.c ****             USB_ARB_EP_BASE.arbEp[ep].rwWa    = LO8(USB_EP[ep].buffOffset);
 102              		.loc 1 490 0 discriminator 2
 103 0072 D088     		ldrh	r0, [r2, #6]
 104 0074 C0B2     		uxtb	r0, r0
 105 0076 0871     		strb	r0, [r1, #4]
 491:Generated_Source\PSoC5/USB_std.c ****             USB_ARB_EP_BASE.arbEp[ep].rwWaMsb = HI8(USB_EP[ep].buffOffset);
 106              		.loc 1 491 0 discriminator 2
 107 0078 D288     		ldrh	r2, [r2, #6]
 108 007a C2F30722 		ubfx	r2, r2, #8, #8
 109 007e 4A71     		strb	r2, [r1, #5]
 446:Generated_Source\PSoC5/USB_std.c ****     {
 110              		.loc 1 446 0 discriminator 2
 111 0080 0133     		adds	r3, r3, #1
 112              	.LVL2:
 113 0082 DBB2     		uxtb	r3, r3
 114              	.LVL3:
 115              	.L2:
 446:Generated_Source\PSoC5/USB_std.c ****     {
 116              		.loc 1 446 0 is_stmt 0 discriminator 1
 117 0084 082B     		cmp	r3, #8
 118 0086 BED9     		bls	.L6
 492:Generated_Source\PSoC5/USB_std.c ****         #endif /* (CY_PSOC4) */
 493:Generated_Source\PSoC5/USB_std.c ****     #endif /* (!USB_EP_MANAGEMENT_DMA_AUTO) */
 494:Generated_Source\PSoC5/USB_std.c ****     }
 495:Generated_Source\PSoC5/USB_std.c **** 
 496:Generated_Source\PSoC5/USB_std.c **** #if (USB_EP_MANAGEMENT_DMA_AUTO)
 497:Generated_Source\PSoC5/USB_std.c ****      /* BUF_SIZE depend on DMA_THRESS value:0x55-32 bytes  0x44-16 bytes 0x33-8 bytes 0x22-4 bytes 
 498:Generated_Source\PSoC5/USB_std.c ****     USB_BUF_SIZE_REG = USB_DMA_BUF_SIZE;
 499:Generated_Source\PSoC5/USB_std.c **** 
 500:Generated_Source\PSoC5/USB_std.c ****     /* Configure DMA burst threshold */
 501:Generated_Source\PSoC5/USB_std.c **** #if (CY_PSOC4)
 502:Generated_Source\PSoC5/USB_std.c ****     USB_DMA_THRES16_REG   = USB_DMA_BYTES_PER_BURST;
 503:Generated_Source\PSoC5/USB_std.c **** #else
 504:Generated_Source\PSoC5/USB_std.c ****     USB_DMA_THRES_REG     = USB_DMA_BYTES_PER_BURST;
 505:Generated_Source\PSoC5/USB_std.c ****     USB_DMA_THRES_MSB_REG = 0u;
 506:Generated_Source\PSoC5/USB_std.c **** #endif /* (CY_PSOC4) */
 507:Generated_Source\PSoC5/USB_std.c ****     USB_EP_ACTIVE_REG = USB_DEFAULT_ARB_INT_EN;
ARM GAS  C:\Users\CHANTI~1\AppData\Local\Temp\cckZxxwg.s 			page 12


 508:Generated_Source\PSoC5/USB_std.c ****     USB_EP_TYPE_REG   = epType;
 509:Generated_Source\PSoC5/USB_std.c ****     
 510:Generated_Source\PSoC5/USB_std.c ****     /* Cfg_cmp bit set to 1 once configuration is complete. */
 511:Generated_Source\PSoC5/USB_std.c ****     /* Lock arbiter configtuation */
 512:Generated_Source\PSoC5/USB_std.c ****     USB_ARB_CFG_REG |= (uint8)  USB_ARB_CFG_CFG_CMP;
 513:Generated_Source\PSoC5/USB_std.c ****     /* Cfg_cmp bit set to 0 during configuration of PFSUSB Registers. */
 514:Generated_Source\PSoC5/USB_std.c ****     USB_ARB_CFG_REG &= (uint8) ~USB_ARB_CFG_CFG_CMP;
 515:Generated_Source\PSoC5/USB_std.c **** 
 516:Generated_Source\PSoC5/USB_std.c **** #endif /* (USB_EP_MANAGEMENT_DMA_AUTO) */
 517:Generated_Source\PSoC5/USB_std.c **** 
 518:Generated_Source\PSoC5/USB_std.c ****     /* Enable interrupt SIE interurpt source from EP0-EP1 */
 519:Generated_Source\PSoC5/USB_std.c ****     USB_SIE_EP_INT_EN_REG = (uint8) USB_DEFAULT_SIE_EP_INT_EN;
 119              		.loc 1 519 0 is_stmt 1
 120 0088 FF22     		movs	r2, #255
 121 008a 054B     		ldr	r3, .L8+12
 122              	.LVL4:
 123 008c 1A70     		strb	r2, [r3]
 520:Generated_Source\PSoC5/USB_std.c **** }
 124              		.loc 1 520 0
 125 008e 10BC     		pop	{r4}
 126              		.cfi_restore 4
 127              		.cfi_def_cfa_offset 0
 128 0090 7047     		bx	lr
 129              	.L9:
 130 0092 00BF     		.align	2
 131              	.L8:
 132 0094 70600040 		.word	1073766512
 133 0098 00000000 		.word	USB_EP
 134 009c FC5F0040 		.word	1073766396
 135 00a0 0A600040 		.word	1073766410
 136              		.cfi_endproc
 137              	.LFE1:
 138              		.size	USB_ConfigReg, .-USB_ConfigReg
 139              		.section	.text.USB_EpStateInit,"ax",%progbits
 140              		.align	2
 141              		.global	USB_EpStateInit
 142              		.thumb
 143              		.thumb_func
 144              		.type	USB_EpStateInit, %function
 145              	USB_EpStateInit:
 146              	.LFB2:
 521:Generated_Source\PSoC5/USB_std.c **** 
 522:Generated_Source\PSoC5/USB_std.c **** 
 523:Generated_Source\PSoC5/USB_std.c **** /*******************************************************************************
 524:Generated_Source\PSoC5/USB_std.c **** * Function Name: USB_EpStateInit
 525:Generated_Source\PSoC5/USB_std.c **** ****************************************************************************//**
 526:Generated_Source\PSoC5/USB_std.c **** *
 527:Generated_Source\PSoC5/USB_std.c **** *  This routine initialize state of Data end points based of its type: 
 528:Generated_Source\PSoC5/USB_std.c **** *   IN  - USB_IN_BUFFER_EMPTY (USB_EVENT_PENDING)
 529:Generated_Source\PSoC5/USB_std.c **** *   OUT - USB_OUT_BUFFER_EMPTY (USB_NO_EVENT_PENDING)
 530:Generated_Source\PSoC5/USB_std.c **** *
 531:Generated_Source\PSoC5/USB_std.c **** *******************************************************************************/
 532:Generated_Source\PSoC5/USB_std.c **** void USB_EpStateInit(void) 
 533:Generated_Source\PSoC5/USB_std.c **** {
 147              		.loc 1 533 0
 148              		.cfi_startproc
 149              		@ args = 0, pretend = 0, frame = 0
ARM GAS  C:\Users\CHANTI~1\AppData\Local\Temp\cckZxxwg.s 			page 13


 150              		@ frame_needed = 0, uses_anonymous_args = 0
 151              		@ link register save eliminated.
 152              	.LVL5:
 534:Generated_Source\PSoC5/USB_std.c ****     uint8 i;
 535:Generated_Source\PSoC5/USB_std.c **** 
 536:Generated_Source\PSoC5/USB_std.c ****     for (i = USB_EP1; i < USB_MAX_EP; i++)
 153              		.loc 1 536 0
 154 0000 0123     		movs	r3, #1
 155 0002 19E0     		b	.L11
 156              	.LVL6:
 157              	.L14:
 537:Generated_Source\PSoC5/USB_std.c ****     { 
 538:Generated_Source\PSoC5/USB_std.c ****         if (0u != (USB_EP[i].addr & USB_DIR_IN))
 158              		.loc 1 538 0
 159 0004 03EB4301 		add	r1, r3, r3, lsl #1
 160 0008 8A00     		lsls	r2, r1, #2
 161 000a 0D49     		ldr	r1, .L15
 162 000c 0A44     		add	r2, r2, r1
 163 000e 1279     		ldrb	r2, [r2, #4]	@ zero_extendqisi2
 164 0010 12F0800F 		tst	r2, #128
 165 0014 07D0     		beq	.L12
 539:Generated_Source\PSoC5/USB_std.c ****         {
 540:Generated_Source\PSoC5/USB_std.c ****             /* IN Endpoint */
 541:Generated_Source\PSoC5/USB_std.c ****             USB_EP[i].apiEpState = USB_EVENT_PENDING;
 166              		.loc 1 541 0
 167 0016 03EB4301 		add	r1, r3, r3, lsl #1
 168 001a 8A00     		lsls	r2, r1, #2
 169 001c 0849     		ldr	r1, .L15
 170 001e 0A44     		add	r2, r2, r1
 171 0020 0121     		movs	r1, #1
 172 0022 5170     		strb	r1, [r2, #1]
 173 0024 06E0     		b	.L13
 174              	.L12:
 542:Generated_Source\PSoC5/USB_std.c ****         }
 543:Generated_Source\PSoC5/USB_std.c ****         else
 544:Generated_Source\PSoC5/USB_std.c ****         {
 545:Generated_Source\PSoC5/USB_std.c ****             /* OUT Endpoint */
 546:Generated_Source\PSoC5/USB_std.c ****             USB_EP[i].apiEpState = USB_NO_EVENT_PENDING;
 175              		.loc 1 546 0
 176 0026 03EB4301 		add	r1, r3, r3, lsl #1
 177 002a 8A00     		lsls	r2, r1, #2
 178 002c 0449     		ldr	r1, .L15
 179 002e 0A44     		add	r2, r2, r1
 180 0030 0021     		movs	r1, #0
 181 0032 5170     		strb	r1, [r2, #1]
 182              	.L13:
 536:Generated_Source\PSoC5/USB_std.c ****     { 
 183              		.loc 1 536 0 discriminator 2
 184 0034 0133     		adds	r3, r3, #1
 185              	.LVL7:
 186 0036 DBB2     		uxtb	r3, r3
 187              	.LVL8:
 188              	.L11:
 536:Generated_Source\PSoC5/USB_std.c ****     { 
 189              		.loc 1 536 0 is_stmt 0 discriminator 1
 190 0038 082B     		cmp	r3, #8
 191 003a E3D9     		bls	.L14
ARM GAS  C:\Users\CHANTI~1\AppData\Local\Temp\cckZxxwg.s 			page 14


 547:Generated_Source\PSoC5/USB_std.c ****         }
 548:Generated_Source\PSoC5/USB_std.c ****     }
 549:Generated_Source\PSoC5/USB_std.c ****                     
 550:Generated_Source\PSoC5/USB_std.c **** }
 192              		.loc 1 550 0 is_stmt 1
 193 003c 7047     		bx	lr
 194              	.L16:
 195 003e 00BF     		.align	2
 196              	.L15:
 197 0040 00000000 		.word	USB_EP
 198              		.cfi_endproc
 199              	.LFE2:
 200              		.size	USB_EpStateInit, .-USB_EpStateInit
 201              		.section	.text.USB_GetConfigTablePtr,"ax",%progbits
 202              		.align	2
 203              		.global	USB_GetConfigTablePtr
 204              		.thumb
 205              		.thumb_func
 206              		.type	USB_GetConfigTablePtr, %function
 207              	USB_GetConfigTablePtr:
 208              	.LFB5:
 551:Generated_Source\PSoC5/USB_std.c **** 
 552:Generated_Source\PSoC5/USB_std.c **** 
 553:Generated_Source\PSoC5/USB_std.c **** /*******************************************************************************
 554:Generated_Source\PSoC5/USB_std.c **** * Function Name: USB_Config
 555:Generated_Source\PSoC5/USB_std.c **** ****************************************************************************//**
 556:Generated_Source\PSoC5/USB_std.c **** *
 557:Generated_Source\PSoC5/USB_std.c **** *  This routine configures endpoints for the entire configuration by scanning
 558:Generated_Source\PSoC5/USB_std.c **** *  the configuration descriptor.
 559:Generated_Source\PSoC5/USB_std.c **** *
 560:Generated_Source\PSoC5/USB_std.c **** *  \param clearAltSetting: It configures the bAlternateSetting 0 for each interface.
 561:Generated_Source\PSoC5/USB_std.c **** *
 562:Generated_Source\PSoC5/USB_std.c **** * USB_interfaceClass - Initialized class array for each interface.
 563:Generated_Source\PSoC5/USB_std.c **** *   It is used for handling Class specific requests depend on interface class.
 564:Generated_Source\PSoC5/USB_std.c **** *   Different classes in multiple Alternate settings does not supported.
 565:Generated_Source\PSoC5/USB_std.c **** *
 566:Generated_Source\PSoC5/USB_std.c **** * \reentrant
 567:Generated_Source\PSoC5/USB_std.c **** *  No.
 568:Generated_Source\PSoC5/USB_std.c **** *
 569:Generated_Source\PSoC5/USB_std.c **** *******************************************************************************/
 570:Generated_Source\PSoC5/USB_std.c **** void USB_Config(uint8 clearAltSetting) 
 571:Generated_Source\PSoC5/USB_std.c **** {
 572:Generated_Source\PSoC5/USB_std.c ****     uint8 ep;
 573:Generated_Source\PSoC5/USB_std.c ****     uint8 curEp;
 574:Generated_Source\PSoC5/USB_std.c ****     uint8 i;
 575:Generated_Source\PSoC5/USB_std.c ****     uint8 epType;
 576:Generated_Source\PSoC5/USB_std.c ****     const uint8 *pDescr;
 577:Generated_Source\PSoC5/USB_std.c ****     
 578:Generated_Source\PSoC5/USB_std.c ****     #if (!USB_EP_MANAGEMENT_DMA_AUTO)
 579:Generated_Source\PSoC5/USB_std.c ****         uint16 buffCount = 0u;
 580:Generated_Source\PSoC5/USB_std.c ****     #endif /* (!USB_EP_MANAGEMENT_DMA_AUTO) */
 581:Generated_Source\PSoC5/USB_std.c **** 
 582:Generated_Source\PSoC5/USB_std.c ****     const T_USB_LUT CYCODE *pTmp;
 583:Generated_Source\PSoC5/USB_std.c ****     const T_USB_EP_SETTINGS_BLOCK CYCODE *pEP;
 584:Generated_Source\PSoC5/USB_std.c **** 
 585:Generated_Source\PSoC5/USB_std.c ****     /* Clear endpoints settings */
 586:Generated_Source\PSoC5/USB_std.c ****     for (ep = 0u; ep < USB_MAX_EP; ++ep)
ARM GAS  C:\Users\CHANTI~1\AppData\Local\Temp\cckZxxwg.s 			page 15


 587:Generated_Source\PSoC5/USB_std.c ****     {
 588:Generated_Source\PSoC5/USB_std.c ****         USB_EP[ep].attrib     = 0u;
 589:Generated_Source\PSoC5/USB_std.c ****         USB_EP[ep].hwEpState  = 0u;
 590:Generated_Source\PSoC5/USB_std.c ****         USB_EP[ep].epToggle   = 0u;
 591:Generated_Source\PSoC5/USB_std.c ****         USB_EP[ep].bufferSize = 0u;
 592:Generated_Source\PSoC5/USB_std.c ****         USB_EP[ep].interface  = 0u;
 593:Generated_Source\PSoC5/USB_std.c ****         USB_EP[ep].apiEpState = USB_NO_EVENT_PENDING;
 594:Generated_Source\PSoC5/USB_std.c ****         USB_EP[ep].epMode     = USB_MODE_DISABLE;   
 595:Generated_Source\PSoC5/USB_std.c ****     }
 596:Generated_Source\PSoC5/USB_std.c **** 
 597:Generated_Source\PSoC5/USB_std.c ****     /* Clear Alternate settings for all interfaces. */
 598:Generated_Source\PSoC5/USB_std.c ****     if (0u != clearAltSetting)
 599:Generated_Source\PSoC5/USB_std.c ****     {
 600:Generated_Source\PSoC5/USB_std.c ****         for (i = 0u; i < USB_MAX_INTERFACES_NUMBER; ++i)
 601:Generated_Source\PSoC5/USB_std.c ****         {
 602:Generated_Source\PSoC5/USB_std.c ****             USB_interfaceSetting[i]     = 0u;
 603:Generated_Source\PSoC5/USB_std.c ****             USB_interfaceSettingLast[i] = 0u;
 604:Generated_Source\PSoC5/USB_std.c ****         }
 605:Generated_Source\PSoC5/USB_std.c ****     }
 606:Generated_Source\PSoC5/USB_std.c **** 
 607:Generated_Source\PSoC5/USB_std.c ****     /* Init Endpoints and Device Status if configured */
 608:Generated_Source\PSoC5/USB_std.c ****     if (USB_configuration > 0u)
 609:Generated_Source\PSoC5/USB_std.c ****     {
 610:Generated_Source\PSoC5/USB_std.c ****         #if defined(USB_ENABLE_CDC_CLASS)
 611:Generated_Source\PSoC5/USB_std.c ****             uint8 cdcComNums = 0u;
 612:Generated_Source\PSoC5/USB_std.c ****         #endif  /* (USB_ENABLE_CDC_CLASS) */  
 613:Generated_Source\PSoC5/USB_std.c **** 
 614:Generated_Source\PSoC5/USB_std.c ****         pTmp = USB_GetConfigTablePtr(USB_configuration - 1u);
 615:Generated_Source\PSoC5/USB_std.c ****         
 616:Generated_Source\PSoC5/USB_std.c ****         /* Set Power status for current configuration */
 617:Generated_Source\PSoC5/USB_std.c ****         pDescr = (const uint8 *)pTmp->p_list;
 618:Generated_Source\PSoC5/USB_std.c ****         if ((pDescr[USB_CONFIG_DESCR_ATTRIB] & USB_CONFIG_DESCR_ATTRIB_SELF_POWERED) != 0u)
 619:Generated_Source\PSoC5/USB_std.c ****         {
 620:Generated_Source\PSoC5/USB_std.c ****             USB_deviceStatus |= (uint8)  USB_DEVICE_STATUS_SELF_POWERED;
 621:Generated_Source\PSoC5/USB_std.c ****         }
 622:Generated_Source\PSoC5/USB_std.c ****         else
 623:Generated_Source\PSoC5/USB_std.c ****         {
 624:Generated_Source\PSoC5/USB_std.c ****             USB_deviceStatus &= (uint8) ~USB_DEVICE_STATUS_SELF_POWERED;
 625:Generated_Source\PSoC5/USB_std.c ****         }
 626:Generated_Source\PSoC5/USB_std.c ****         
 627:Generated_Source\PSoC5/USB_std.c ****         /* Move to next element */
 628:Generated_Source\PSoC5/USB_std.c ****         pTmp = &pTmp[1u];
 629:Generated_Source\PSoC5/USB_std.c ****         ep = pTmp->c;  /* For this table, c is the number of endpoints configurations  */
 630:Generated_Source\PSoC5/USB_std.c **** 
 631:Generated_Source\PSoC5/USB_std.c ****         #if (USB_EP_MANAGEMENT_MANUAL && USB_EP_ALLOC_DYNAMIC)
 632:Generated_Source\PSoC5/USB_std.c ****             /* Configure for dynamic EP memory allocation */
 633:Generated_Source\PSoC5/USB_std.c ****             /* p_list points the endpoint setting table. */
 634:Generated_Source\PSoC5/USB_std.c ****             pEP = (T_USB_EP_SETTINGS_BLOCK *) pTmp->p_list;
 635:Generated_Source\PSoC5/USB_std.c ****             
 636:Generated_Source\PSoC5/USB_std.c ****             for (i = 0u; i < ep; i++)
 637:Generated_Source\PSoC5/USB_std.c ****             {     
 638:Generated_Source\PSoC5/USB_std.c ****                 /* Compare current Alternate setting with EP Alt */
 639:Generated_Source\PSoC5/USB_std.c ****                 if (USB_interfaceSetting[pEP->interface] == pEP->altSetting)
 640:Generated_Source\PSoC5/USB_std.c ****                 {                                                          
 641:Generated_Source\PSoC5/USB_std.c ****                     curEp  = pEP->addr & USB_DIR_UNUSED;
 642:Generated_Source\PSoC5/USB_std.c ****                     epType = pEP->attributes & USB_EP_TYPE_MASK;
 643:Generated_Source\PSoC5/USB_std.c ****                     
ARM GAS  C:\Users\CHANTI~1\AppData\Local\Temp\cckZxxwg.s 			page 16


 644:Generated_Source\PSoC5/USB_std.c ****                     USB_EP[curEp].addr       = pEP->addr;
 645:Generated_Source\PSoC5/USB_std.c ****                     USB_EP[curEp].attrib     = pEP->attributes;
 646:Generated_Source\PSoC5/USB_std.c ****                     USB_EP[curEp].bufferSize = pEP->bufferSize;
 647:Generated_Source\PSoC5/USB_std.c **** 
 648:Generated_Source\PSoC5/USB_std.c ****                     if (0u != (pEP->addr & USB_DIR_IN))
 649:Generated_Source\PSoC5/USB_std.c ****                     {
 650:Generated_Source\PSoC5/USB_std.c ****                         /* IN Endpoint */
 651:Generated_Source\PSoC5/USB_std.c ****                         USB_EP[curEp].epMode     = USB_GET_ACTIVE_IN_EP_CR0_MODE(epType);
 652:Generated_Source\PSoC5/USB_std.c ****                         USB_EP[curEp].apiEpState = USB_EVENT_PENDING;
 653:Generated_Source\PSoC5/USB_std.c ****                     
 654:Generated_Source\PSoC5/USB_std.c ****                     #if (defined(USB_ENABLE_MIDI_STREAMING) && (USB_MIDI_IN_BUFF_SIZE > 0))
 655:Generated_Source\PSoC5/USB_std.c ****                         if ((pEP->bMisc == USB_CLASS_AUDIO) && (epType == USB_EP_TYPE_BULK))
 656:Generated_Source\PSoC5/USB_std.c ****                         {
 657:Generated_Source\PSoC5/USB_std.c ****                             USB_midi_in_ep = curEp;
 658:Generated_Source\PSoC5/USB_std.c ****                         }
 659:Generated_Source\PSoC5/USB_std.c ****                     #endif  /* (USB_ENABLE_MIDI_STREAMING) */
 660:Generated_Source\PSoC5/USB_std.c ****                     }
 661:Generated_Source\PSoC5/USB_std.c ****                     else
 662:Generated_Source\PSoC5/USB_std.c ****                     {
 663:Generated_Source\PSoC5/USB_std.c ****                         /* OUT Endpoint */
 664:Generated_Source\PSoC5/USB_std.c ****                         USB_EP[curEp].epMode     = USB_GET_ACTIVE_OUT_EP_CR0_MODE(epType);
 665:Generated_Source\PSoC5/USB_std.c ****                         USB_EP[curEp].apiEpState = USB_NO_EVENT_PENDING;
 666:Generated_Source\PSoC5/USB_std.c ****                         
 667:Generated_Source\PSoC5/USB_std.c ****                     #if (defined(USB_ENABLE_MIDI_STREAMING) && (USB_MIDI_OUT_BUFF_SIZE > 0))
 668:Generated_Source\PSoC5/USB_std.c ****                         if ((pEP->bMisc == USB_CLASS_AUDIO) && (epType == USB_EP_TYPE_BULK))
 669:Generated_Source\PSoC5/USB_std.c ****                         {
 670:Generated_Source\PSoC5/USB_std.c ****                             USB_midi_out_ep = curEp;
 671:Generated_Source\PSoC5/USB_std.c ****                         }
 672:Generated_Source\PSoC5/USB_std.c ****                     #endif  /* (USB_ENABLE_MIDI_STREAMING) */
 673:Generated_Source\PSoC5/USB_std.c ****                     }
 674:Generated_Source\PSoC5/USB_std.c **** 
 675:Generated_Source\PSoC5/USB_std.c ****                 #if(defined (USB_ENABLE_CDC_CLASS))
 676:Generated_Source\PSoC5/USB_std.c ****                     if((pEP->bMisc == USB_CLASS_CDC_DATA) ||(pEP->bMisc == USB_CLASS_CDC))
 677:Generated_Source\PSoC5/USB_std.c ****                     {
 678:Generated_Source\PSoC5/USB_std.c ****                         cdcComNums = USB_Cdc_EpInit(pEP, curEp, cdcComNums);
 679:Generated_Source\PSoC5/USB_std.c ****                     }
 680:Generated_Source\PSoC5/USB_std.c ****                 #endif  /* (USB_ENABLE_CDC_CLASS) */
 681:Generated_Source\PSoC5/USB_std.c ****                 }
 682:Generated_Source\PSoC5/USB_std.c ****                 
 683:Generated_Source\PSoC5/USB_std.c ****                 pEP = &pEP[1u];
 684:Generated_Source\PSoC5/USB_std.c ****             }
 685:Generated_Source\PSoC5/USB_std.c ****             
 686:Generated_Source\PSoC5/USB_std.c ****         #else
 687:Generated_Source\PSoC5/USB_std.c ****             for (i = USB_EP1; i < USB_MAX_EP; ++i)
 688:Generated_Source\PSoC5/USB_std.c ****             {
 689:Generated_Source\PSoC5/USB_std.c ****                 /* p_list points the endpoint setting table. */
 690:Generated_Source\PSoC5/USB_std.c ****                 pEP = (const T_USB_EP_SETTINGS_BLOCK CYCODE *) pTmp->p_list;
 691:Generated_Source\PSoC5/USB_std.c ****                 /* Find max length for each EP and select it (length could be different in differen
 692:Generated_Source\PSoC5/USB_std.c ****                 /* but other settings should be correct with regards to Interface alt Setting */
 693:Generated_Source\PSoC5/USB_std.c ****                 
 694:Generated_Source\PSoC5/USB_std.c ****                 for (curEp = 0u; curEp < ep; ++curEp)
 695:Generated_Source\PSoC5/USB_std.c ****                 {
 696:Generated_Source\PSoC5/USB_std.c ****                     if (i == (pEP->addr & USB_DIR_UNUSED))
 697:Generated_Source\PSoC5/USB_std.c ****                     {
 698:Generated_Source\PSoC5/USB_std.c ****                         /* Compare endpoint buffers size with current size to find greater. */
 699:Generated_Source\PSoC5/USB_std.c ****                         if (USB_EP[i].bufferSize < pEP->bufferSize)
 700:Generated_Source\PSoC5/USB_std.c ****                         {
ARM GAS  C:\Users\CHANTI~1\AppData\Local\Temp\cckZxxwg.s 			page 17


 701:Generated_Source\PSoC5/USB_std.c ****                             USB_EP[i].bufferSize = pEP->bufferSize;
 702:Generated_Source\PSoC5/USB_std.c ****                         }
 703:Generated_Source\PSoC5/USB_std.c ****                         
 704:Generated_Source\PSoC5/USB_std.c ****                         /* Compare current Alternate setting with EP Alt */
 705:Generated_Source\PSoC5/USB_std.c ****                         if (USB_interfaceSetting[pEP->interface] == pEP->altSetting)
 706:Generated_Source\PSoC5/USB_std.c ****                         {                            
 707:Generated_Source\PSoC5/USB_std.c ****                             USB_EP[i].addr = pEP->addr;
 708:Generated_Source\PSoC5/USB_std.c ****                             USB_EP[i].attrib = pEP->attributes;
 709:Generated_Source\PSoC5/USB_std.c ****                             
 710:Generated_Source\PSoC5/USB_std.c ****                             epType = pEP->attributes & USB_EP_TYPE_MASK;
 711:Generated_Source\PSoC5/USB_std.c ****                             
 712:Generated_Source\PSoC5/USB_std.c ****                             if (0u != (pEP->addr & USB_DIR_IN))
 713:Generated_Source\PSoC5/USB_std.c ****                             {
 714:Generated_Source\PSoC5/USB_std.c ****                                 /* IN Endpoint */
 715:Generated_Source\PSoC5/USB_std.c ****                                 USB_EP[i].epMode     = USB_GET_ACTIVE_IN_EP_CR0_MODE(epType);
 716:Generated_Source\PSoC5/USB_std.c ****                                 USB_EP[i].apiEpState = USB_EVENT_PENDING;
 717:Generated_Source\PSoC5/USB_std.c ****                                 
 718:Generated_Source\PSoC5/USB_std.c ****                             #if (defined(USB_ENABLE_MIDI_STREAMING) && (USB_MIDI_IN_BUFF_SIZE > 0))
 719:Generated_Source\PSoC5/USB_std.c ****                                 if ((pEP->bMisc == USB_CLASS_AUDIO) && (epType == USB_EP_TYPE_BULK)
 720:Generated_Source\PSoC5/USB_std.c ****                                 {
 721:Generated_Source\PSoC5/USB_std.c ****                                     USB_midi_in_ep = i;
 722:Generated_Source\PSoC5/USB_std.c ****                                 }
 723:Generated_Source\PSoC5/USB_std.c ****                             #endif  /* (USB_ENABLE_MIDI_STREAMING) */
 724:Generated_Source\PSoC5/USB_std.c ****                             }
 725:Generated_Source\PSoC5/USB_std.c ****                             else
 726:Generated_Source\PSoC5/USB_std.c ****                             {
 727:Generated_Source\PSoC5/USB_std.c ****                                 /* OUT Endpoint */
 728:Generated_Source\PSoC5/USB_std.c ****                                 USB_EP[i].epMode     = USB_GET_ACTIVE_OUT_EP_CR0_MODE(epType);
 729:Generated_Source\PSoC5/USB_std.c ****                                 USB_EP[i].apiEpState = USB_NO_EVENT_PENDING;
 730:Generated_Source\PSoC5/USB_std.c ****                                 
 731:Generated_Source\PSoC5/USB_std.c ****                             #if (defined(USB_ENABLE_MIDI_STREAMING) && (USB_MIDI_OUT_BUFF_SIZE > 0)
 732:Generated_Source\PSoC5/USB_std.c ****                                 if ((pEP->bMisc == USB_CLASS_AUDIO) && (epType == USB_EP_TYPE_BULK)
 733:Generated_Source\PSoC5/USB_std.c ****                                 {
 734:Generated_Source\PSoC5/USB_std.c ****                                     USB_midi_out_ep = i;
 735:Generated_Source\PSoC5/USB_std.c ****                                 }
 736:Generated_Source\PSoC5/USB_std.c ****                             #endif  /* (USB_ENABLE_MIDI_STREAMING) */
 737:Generated_Source\PSoC5/USB_std.c ****                             }
 738:Generated_Source\PSoC5/USB_std.c **** 
 739:Generated_Source\PSoC5/USB_std.c ****                         #if (defined(USB_ENABLE_CDC_CLASS))
 740:Generated_Source\PSoC5/USB_std.c ****                             if((pEP->bMisc == USB_CLASS_CDC_DATA) ||(pEP->bMisc == USB_CLASS_CDC))
 741:Generated_Source\PSoC5/USB_std.c ****                             {
 742:Generated_Source\PSoC5/USB_std.c ****                                 cdcComNums = USB_Cdc_EpInit(pEP, i, cdcComNums);
 743:Generated_Source\PSoC5/USB_std.c ****                             }
 744:Generated_Source\PSoC5/USB_std.c ****                         #endif  /* (USB_ENABLE_CDC_CLASS) */
 745:Generated_Source\PSoC5/USB_std.c **** 
 746:Generated_Source\PSoC5/USB_std.c ****                             #if (USB_EP_MANAGEMENT_DMA_AUTO)
 747:Generated_Source\PSoC5/USB_std.c ****                                 break;  /* Use first EP setting in Auto memory management */
 748:Generated_Source\PSoC5/USB_std.c ****                             #endif /* (USB_EP_MANAGEMENT_DMA_AUTO) */
 749:Generated_Source\PSoC5/USB_std.c ****                         }
 750:Generated_Source\PSoC5/USB_std.c ****                     }
 751:Generated_Source\PSoC5/USB_std.c ****                     
 752:Generated_Source\PSoC5/USB_std.c ****                     pEP = &pEP[1u];
 753:Generated_Source\PSoC5/USB_std.c ****                 }
 754:Generated_Source\PSoC5/USB_std.c ****             }
 755:Generated_Source\PSoC5/USB_std.c ****         #endif /*  (USB_EP_MANAGEMENT_MANUAL && USB_EP_ALLOC_DYNAMIC) */
 756:Generated_Source\PSoC5/USB_std.c **** 
 757:Generated_Source\PSoC5/USB_std.c ****         /* Init class array for each interface and interface number for each EP.
ARM GAS  C:\Users\CHANTI~1\AppData\Local\Temp\cckZxxwg.s 			page 18


 758:Generated_Source\PSoC5/USB_std.c ****         *  It is used for handling Class specific requests directed to either an
 759:Generated_Source\PSoC5/USB_std.c ****         *  interface or the endpoint.
 760:Generated_Source\PSoC5/USB_std.c ****         */
 761:Generated_Source\PSoC5/USB_std.c ****         /* p_list points the endpoint setting table. */
 762:Generated_Source\PSoC5/USB_std.c ****         pEP = (const T_USB_EP_SETTINGS_BLOCK CYCODE *) pTmp->p_list;
 763:Generated_Source\PSoC5/USB_std.c ****         for (i = 0u; i < ep; i++)
 764:Generated_Source\PSoC5/USB_std.c ****         {
 765:Generated_Source\PSoC5/USB_std.c ****             /* Configure interface number for each EP */
 766:Generated_Source\PSoC5/USB_std.c ****             USB_EP[pEP->addr & USB_DIR_UNUSED].interface = pEP->interface;
 767:Generated_Source\PSoC5/USB_std.c ****             pEP = &pEP[1u];
 768:Generated_Source\PSoC5/USB_std.c ****         }
 769:Generated_Source\PSoC5/USB_std.c ****         
 770:Generated_Source\PSoC5/USB_std.c ****         /* Init pointer on interface class table */
 771:Generated_Source\PSoC5/USB_std.c ****         USB_interfaceClass = USB_GetInterfaceClassTablePtr();
 772:Generated_Source\PSoC5/USB_std.c ****         
 773:Generated_Source\PSoC5/USB_std.c ****     /* Set the endpoint buffer addresses */
 774:Generated_Source\PSoC5/USB_std.c ****     #if (!USB_EP_MANAGEMENT_DMA_AUTO)
 775:Generated_Source\PSoC5/USB_std.c ****         buffCount = 0u;
 776:Generated_Source\PSoC5/USB_std.c ****         for (ep = USB_EP1; ep < USB_MAX_EP; ++ep)
 777:Generated_Source\PSoC5/USB_std.c ****         {
 778:Generated_Source\PSoC5/USB_std.c ****             USB_EP[ep].buffOffset = buffCount;        
 779:Generated_Source\PSoC5/USB_std.c ****             buffCount += USB_EP[ep].bufferSize;
 780:Generated_Source\PSoC5/USB_std.c ****             
 781:Generated_Source\PSoC5/USB_std.c ****         #if (USB_GEN_16BITS_EP_ACCESS)
 782:Generated_Source\PSoC5/USB_std.c ****             /* Align EP buffers to be event size to access 16-bits DR register. */
 783:Generated_Source\PSoC5/USB_std.c ****             buffCount += (0u != (buffCount & 0x01u)) ? 1u : 0u;
 784:Generated_Source\PSoC5/USB_std.c ****         #endif /* (USB_GEN_16BITS_EP_ACCESS) */            
 785:Generated_Source\PSoC5/USB_std.c ****         }
 786:Generated_Source\PSoC5/USB_std.c ****     #endif /* (!USB_EP_MANAGEMENT_DMA_AUTO) */
 787:Generated_Source\PSoC5/USB_std.c **** 
 788:Generated_Source\PSoC5/USB_std.c ****         /* Configure hardware registers */
 789:Generated_Source\PSoC5/USB_std.c ****         USB_ConfigReg();
 790:Generated_Source\PSoC5/USB_std.c ****     }
 791:Generated_Source\PSoC5/USB_std.c **** }
 792:Generated_Source\PSoC5/USB_std.c **** 
 793:Generated_Source\PSoC5/USB_std.c **** 
 794:Generated_Source\PSoC5/USB_std.c **** /*******************************************************************************
 795:Generated_Source\PSoC5/USB_std.c **** * Function Name: USB_ConfigAltChanged
 796:Generated_Source\PSoC5/USB_std.c **** ****************************************************************************//**
 797:Generated_Source\PSoC5/USB_std.c **** *
 798:Generated_Source\PSoC5/USB_std.c **** *  This routine update configuration for the required endpoints only.
 799:Generated_Source\PSoC5/USB_std.c **** *  It is called after SET_INTERFACE request when Static memory allocation used.
 800:Generated_Source\PSoC5/USB_std.c **** *
 801:Generated_Source\PSoC5/USB_std.c **** * \reentrant
 802:Generated_Source\PSoC5/USB_std.c **** *  No.
 803:Generated_Source\PSoC5/USB_std.c **** *
 804:Generated_Source\PSoC5/USB_std.c **** *******************************************************************************/
 805:Generated_Source\PSoC5/USB_std.c **** void USB_ConfigAltChanged(void) 
 806:Generated_Source\PSoC5/USB_std.c **** {
 807:Generated_Source\PSoC5/USB_std.c ****     uint8 ep;
 808:Generated_Source\PSoC5/USB_std.c ****     uint8 curEp;
 809:Generated_Source\PSoC5/USB_std.c ****     uint8 epType;
 810:Generated_Source\PSoC5/USB_std.c ****     uint8 i;
 811:Generated_Source\PSoC5/USB_std.c ****     uint8 interfaceNum;
 812:Generated_Source\PSoC5/USB_std.c **** 
 813:Generated_Source\PSoC5/USB_std.c ****     const T_USB_LUT CYCODE *pTmp;
 814:Generated_Source\PSoC5/USB_std.c ****     const T_USB_EP_SETTINGS_BLOCK CYCODE *pEP;
ARM GAS  C:\Users\CHANTI~1\AppData\Local\Temp\cckZxxwg.s 			page 19


 815:Generated_Source\PSoC5/USB_std.c **** 
 816:Generated_Source\PSoC5/USB_std.c ****     /* Init Endpoints and Device Status if configured */
 817:Generated_Source\PSoC5/USB_std.c ****     if (USB_configuration > 0u)
 818:Generated_Source\PSoC5/USB_std.c ****     {
 819:Generated_Source\PSoC5/USB_std.c ****         /* Get number of endpoints configurations (ep). */
 820:Generated_Source\PSoC5/USB_std.c ****         pTmp = USB_GetConfigTablePtr(USB_configuration - 1u);
 821:Generated_Source\PSoC5/USB_std.c ****         pTmp = &pTmp[1u];
 822:Generated_Source\PSoC5/USB_std.c ****         ep = pTmp->c;
 823:Generated_Source\PSoC5/USB_std.c **** 
 824:Generated_Source\PSoC5/USB_std.c ****         /* Get pointer to endpoints setting table (pEP). */
 825:Generated_Source\PSoC5/USB_std.c ****         pEP = (const T_USB_EP_SETTINGS_BLOCK CYCODE *) pTmp->p_list;
 826:Generated_Source\PSoC5/USB_std.c ****         
 827:Generated_Source\PSoC5/USB_std.c ****         /* Look through all possible endpoint configurations. Find endpoints 
 828:Generated_Source\PSoC5/USB_std.c ****         * which belong to current interface and alternate settings for 
 829:Generated_Source\PSoC5/USB_std.c ****         * re-configuration.
 830:Generated_Source\PSoC5/USB_std.c ****         */
 831:Generated_Source\PSoC5/USB_std.c ****         interfaceNum = USB_interfaceNumber;
 832:Generated_Source\PSoC5/USB_std.c ****         for (i = 0u; i < ep; i++)
 833:Generated_Source\PSoC5/USB_std.c ****         {
 834:Generated_Source\PSoC5/USB_std.c ****             /* Find endpoints which belong to current interface and alternate settings. */
 835:Generated_Source\PSoC5/USB_std.c ****             if ((interfaceNum == pEP->interface) && 
 836:Generated_Source\PSoC5/USB_std.c ****                 (USB_interfaceSetting[interfaceNum] == pEP->altSetting))
 837:Generated_Source\PSoC5/USB_std.c ****             {
 838:Generated_Source\PSoC5/USB_std.c ****                 curEp  = ((uint8) pEP->addr & USB_DIR_UNUSED);
 839:Generated_Source\PSoC5/USB_std.c ****                 epType = ((uint8) pEP->attributes & USB_EP_TYPE_MASK);
 840:Generated_Source\PSoC5/USB_std.c ****                 
 841:Generated_Source\PSoC5/USB_std.c ****                 /* Change the SIE mode for the selected EP to NAK ALL */
 842:Generated_Source\PSoC5/USB_std.c ****                 USB_EP[curEp].epToggle   = 0u;
 843:Generated_Source\PSoC5/USB_std.c ****                 USB_EP[curEp].addr       = pEP->addr;
 844:Generated_Source\PSoC5/USB_std.c ****                 USB_EP[curEp].attrib     = pEP->attributes;
 845:Generated_Source\PSoC5/USB_std.c ****                 USB_EP[curEp].bufferSize = pEP->bufferSize;
 846:Generated_Source\PSoC5/USB_std.c **** 
 847:Generated_Source\PSoC5/USB_std.c ****                 if (0u != (pEP->addr & USB_DIR_IN))
 848:Generated_Source\PSoC5/USB_std.c ****                 {
 849:Generated_Source\PSoC5/USB_std.c ****                     /* IN Endpoint */
 850:Generated_Source\PSoC5/USB_std.c ****                     USB_EP[curEp].epMode     = USB_GET_ACTIVE_IN_EP_CR0_MODE(epType);
 851:Generated_Source\PSoC5/USB_std.c ****                     USB_EP[curEp].apiEpState = USB_EVENT_PENDING;
 852:Generated_Source\PSoC5/USB_std.c ****                 }
 853:Generated_Source\PSoC5/USB_std.c ****                 else
 854:Generated_Source\PSoC5/USB_std.c ****                 {
 855:Generated_Source\PSoC5/USB_std.c ****                     /* OUT Endpoint */
 856:Generated_Source\PSoC5/USB_std.c ****                     USB_EP[curEp].epMode     = USB_GET_ACTIVE_OUT_EP_CR0_MODE(epType);
 857:Generated_Source\PSoC5/USB_std.c ****                     USB_EP[curEp].apiEpState = USB_NO_EVENT_PENDING;
 858:Generated_Source\PSoC5/USB_std.c ****                 }
 859:Generated_Source\PSoC5/USB_std.c ****                 
 860:Generated_Source\PSoC5/USB_std.c ****                 /* Make SIE to NAK any endpoint requests */
 861:Generated_Source\PSoC5/USB_std.c ****                 USB_SIE_EP_BASE.sieEp[curEp].epCr0 = USB_MODE_NAK_IN_OUT;
 862:Generated_Source\PSoC5/USB_std.c **** 
 863:Generated_Source\PSoC5/USB_std.c ****             #if (USB_EP_MANAGEMENT_DMA_AUTO)
 864:Generated_Source\PSoC5/USB_std.c ****                 /* Clear IN data ready. */
 865:Generated_Source\PSoC5/USB_std.c ****                 USB_ARB_EP_BASE.arbEp[curEp].epCfg &= (uint8) ~USB_ARB_EPX_CFG_IN_DATA_RDY;
 866:Generated_Source\PSoC5/USB_std.c **** 
 867:Generated_Source\PSoC5/USB_std.c ****                 /* Select endpoint number of reconfiguration */
 868:Generated_Source\PSoC5/USB_std.c ****                 USB_DYN_RECONFIG_REG = (uint8) ((curEp - 1u) << USB_DYN_RECONFIG_EP_SHIFT);
 869:Generated_Source\PSoC5/USB_std.c ****                 
 870:Generated_Source\PSoC5/USB_std.c ****                 /* Request for dynamic re-configuration of endpoint. */
 871:Generated_Source\PSoC5/USB_std.c ****                 USB_DYN_RECONFIG_REG |= USB_DYN_RECONFIG_ENABLE;
ARM GAS  C:\Users\CHANTI~1\AppData\Local\Temp\cckZxxwg.s 			page 20


 872:Generated_Source\PSoC5/USB_std.c ****                 
 873:Generated_Source\PSoC5/USB_std.c ****                 /* Wait until block is ready for re-configuration */
 874:Generated_Source\PSoC5/USB_std.c ****                 while (0u == (USB_DYN_RECONFIG_REG & USB_DYN_RECONFIG_RDY_STS))
 875:Generated_Source\PSoC5/USB_std.c ****                 {
 876:Generated_Source\PSoC5/USB_std.c ****                 }
 877:Generated_Source\PSoC5/USB_std.c ****                 
 878:Generated_Source\PSoC5/USB_std.c ****                 /* Once DYN_RECONFIG_RDY_STS bit is set, FW can change the EP configuration. */
 879:Generated_Source\PSoC5/USB_std.c ****                 /* Change EP Type with new direction */
 880:Generated_Source\PSoC5/USB_std.c ****                 if (0u != (pEP->addr & USB_DIR_IN))
 881:Generated_Source\PSoC5/USB_std.c ****                 {
 882:Generated_Source\PSoC5/USB_std.c ****                     /* Set endpoint type: 0 - IN and 1 - OUT. */
 883:Generated_Source\PSoC5/USB_std.c ****                     USB_EP_TYPE_REG &= (uint8) ~(uint8)((uint8) 0x01u << (curEp - 1u));
 884:Generated_Source\PSoC5/USB_std.c ****                     
 885:Generated_Source\PSoC5/USB_std.c ****                 #if (CY_PSOC4)
 886:Generated_Source\PSoC5/USB_std.c ****                     /* Clear DMA_TERMIN for IN endpoint */
 887:Generated_Source\PSoC5/USB_std.c ****                     USB_ARB_EP_BASE.arbEp[curEp].epIntEn &= (uint32) ~USB_ARB_EPX_INT_DMA_TERMIN;
 888:Generated_Source\PSoC5/USB_std.c ****                 #endif /* (CY_PSOC4) */
 889:Generated_Source\PSoC5/USB_std.c ****                 }
 890:Generated_Source\PSoC5/USB_std.c ****                 else
 891:Generated_Source\PSoC5/USB_std.c ****                 {
 892:Generated_Source\PSoC5/USB_std.c ****                     /* Set endpoint type: 0 - IN and 1- OUT. */
 893:Generated_Source\PSoC5/USB_std.c ****                     USB_EP_TYPE_REG |= (uint8) ((uint8) 0x01u << (curEp - 1u));
 894:Generated_Source\PSoC5/USB_std.c ****                     
 895:Generated_Source\PSoC5/USB_std.c ****                 #if (CY_PSOC4)
 896:Generated_Source\PSoC5/USB_std.c ****                     /* Set DMA_TERMIN for OUT endpoint */
 897:Generated_Source\PSoC5/USB_std.c ****                     USB_ARB_EP_BASE.arbEp[curEp].epIntEn |= (uint32) USB_ARB_EPX_INT_DMA_TERMIN;
 898:Generated_Source\PSoC5/USB_std.c ****                 #endif /* (CY_PSOC4) */
 899:Generated_Source\PSoC5/USB_std.c ****                 }
 900:Generated_Source\PSoC5/USB_std.c ****                 
 901:Generated_Source\PSoC5/USB_std.c ****                 /* Complete dynamic re-configuration: all endpoint related status and signals 
 902:Generated_Source\PSoC5/USB_std.c ****                 * are set into the default state.
 903:Generated_Source\PSoC5/USB_std.c ****                 */
 904:Generated_Source\PSoC5/USB_std.c ****                 USB_DYN_RECONFIG_REG &= (uint8) ~USB_DYN_RECONFIG_ENABLE;
 905:Generated_Source\PSoC5/USB_std.c **** 
 906:Generated_Source\PSoC5/USB_std.c ****             #else
 907:Generated_Source\PSoC5/USB_std.c ****                 USB_SIE_EP_BASE.sieEp[curEp].epCnt0 = HI8(USB_EP[curEp].bufferSize);
 908:Generated_Source\PSoC5/USB_std.c ****                 USB_SIE_EP_BASE.sieEp[curEp].epCnt1 = LO8(USB_EP[curEp].bufferSize);
 909:Generated_Source\PSoC5/USB_std.c ****                 
 910:Generated_Source\PSoC5/USB_std.c ****                 #if (CY_PSOC4)
 911:Generated_Source\PSoC5/USB_std.c ****                     USB_ARB_EP16_BASE.arbEp[curEp].rwRa16  = (uint32) USB_EP[curEp].buffOffset;
 912:Generated_Source\PSoC5/USB_std.c ****                     USB_ARB_EP16_BASE.arbEp[curEp].rwWa16  = (uint32) USB_EP[curEp].buffOffset;
 913:Generated_Source\PSoC5/USB_std.c ****                 #else
 914:Generated_Source\PSoC5/USB_std.c ****                     USB_ARB_EP_BASE.arbEp[curEp].rwRa    = LO8(USB_EP[curEp].buffOffset);
 915:Generated_Source\PSoC5/USB_std.c ****                     USB_ARB_EP_BASE.arbEp[curEp].rwRaMsb = HI8(USB_EP[curEp].buffOffset);
 916:Generated_Source\PSoC5/USB_std.c ****                     USB_ARB_EP_BASE.arbEp[curEp].rwWa    = LO8(USB_EP[curEp].buffOffset);
 917:Generated_Source\PSoC5/USB_std.c ****                     USB_ARB_EP_BASE.arbEp[curEp].rwWaMsb = HI8(USB_EP[curEp].buffOffset);
 918:Generated_Source\PSoC5/USB_std.c ****                 #endif /* (CY_PSOC4) */                
 919:Generated_Source\PSoC5/USB_std.c ****             #endif /* (USB_EP_MANAGEMENT_DMA_AUTO) */
 920:Generated_Source\PSoC5/USB_std.c ****             }
 921:Generated_Source\PSoC5/USB_std.c ****             
 922:Generated_Source\PSoC5/USB_std.c ****             pEP = &pEP[1u]; /* Get next EP element */
 923:Generated_Source\PSoC5/USB_std.c ****         }
 924:Generated_Source\PSoC5/USB_std.c ****         
 925:Generated_Source\PSoC5/USB_std.c ****         /* The main loop has to re-enable DMA and OUT endpoint */
 926:Generated_Source\PSoC5/USB_std.c ****     }
 927:Generated_Source\PSoC5/USB_std.c **** }
 928:Generated_Source\PSoC5/USB_std.c **** 
ARM GAS  C:\Users\CHANTI~1\AppData\Local\Temp\cckZxxwg.s 			page 21


 929:Generated_Source\PSoC5/USB_std.c **** 
 930:Generated_Source\PSoC5/USB_std.c **** /*******************************************************************************
 931:Generated_Source\PSoC5/USB_std.c **** * Function Name: USB_GetConfigTablePtr
 932:Generated_Source\PSoC5/USB_std.c **** ****************************************************************************//**
 933:Generated_Source\PSoC5/USB_std.c **** *
 934:Generated_Source\PSoC5/USB_std.c **** *  This routine returns a pointer a configuration table entry
 935:Generated_Source\PSoC5/USB_std.c **** *
 936:Generated_Source\PSoC5/USB_std.c **** *  \param confIndex:  Configuration Index
 937:Generated_Source\PSoC5/USB_std.c **** *
 938:Generated_Source\PSoC5/USB_std.c **** * \return
 939:Generated_Source\PSoC5/USB_std.c **** *  Device Descriptor pointer or NULL when descriptor does not exist.
 940:Generated_Source\PSoC5/USB_std.c **** *
 941:Generated_Source\PSoC5/USB_std.c **** *******************************************************************************/
 942:Generated_Source\PSoC5/USB_std.c **** const T_USB_LUT CYCODE *USB_GetConfigTablePtr(uint8 confIndex)
 943:Generated_Source\PSoC5/USB_std.c ****                                                         
 944:Generated_Source\PSoC5/USB_std.c **** {
 209              		.loc 1 944 0
 210              		.cfi_startproc
 211              		@ args = 0, pretend = 0, frame = 0
 212              		@ frame_needed = 0, uses_anonymous_args = 0
 213              		@ link register save eliminated.
 214              	.LVL9:
 945:Generated_Source\PSoC5/USB_std.c ****     /* Device Table */
 946:Generated_Source\PSoC5/USB_std.c ****     const T_USB_LUT CYCODE *pTmp;
 947:Generated_Source\PSoC5/USB_std.c **** 
 948:Generated_Source\PSoC5/USB_std.c ****     pTmp = (const T_USB_LUT CYCODE *) USB_TABLE[USB_device].p_list;
 215              		.loc 1 948 0
 216 0000 074B     		ldr	r3, .L20
 217 0002 1A78     		ldrb	r2, [r3]	@ zero_extendqisi2
 218 0004 074B     		ldr	r3, .L20+4
 219 0006 03EBC203 		add	r3, r3, r2, lsl #3
 220 000a 5B68     		ldr	r3, [r3, #4]
 221              	.LVL10:
 949:Generated_Source\PSoC5/USB_std.c **** 
 950:Generated_Source\PSoC5/USB_std.c ****     /* The first entry points to the Device Descriptor,
 951:Generated_Source\PSoC5/USB_std.c ****     *  the second entry point to the BOS Descriptor
 952:Generated_Source\PSoC5/USB_std.c ****     *  the rest configuration entries.
 953:Generated_Source\PSoC5/USB_std.c ****     *  Set pointer to the first Configuration Descriptor
 954:Generated_Source\PSoC5/USB_std.c ****     */
 955:Generated_Source\PSoC5/USB_std.c ****     pTmp = &pTmp[2u];
 956:Generated_Source\PSoC5/USB_std.c ****     /* For this table, c is the number of configuration descriptors  */
 957:Generated_Source\PSoC5/USB_std.c ****     if(confIndex >= pTmp->c)   /* Verify that required configuration descriptor exists */
 222              		.loc 1 957 0
 223 000c 1A7C     		ldrb	r2, [r3, #16]	@ zero_extendqisi2
 224 000e 8242     		cmp	r2, r0
 225 0010 04D9     		bls	.L19
 958:Generated_Source\PSoC5/USB_std.c ****     {
 959:Generated_Source\PSoC5/USB_std.c ****         pTmp = (const T_USB_LUT CYCODE *) NULL;
 960:Generated_Source\PSoC5/USB_std.c ****     }
 961:Generated_Source\PSoC5/USB_std.c ****     else
 962:Generated_Source\PSoC5/USB_std.c ****     {
 963:Generated_Source\PSoC5/USB_std.c ****         pTmp = (const T_USB_LUT CYCODE *) pTmp[confIndex].p_list;
 226              		.loc 1 963 0
 227 0012 C000     		lsls	r0, r0, #3
 228              	.LVL11:
 229 0014 1030     		adds	r0, r0, #16
 230 0016 1844     		add	r0, r0, r3
ARM GAS  C:\Users\CHANTI~1\AppData\Local\Temp\cckZxxwg.s 			page 22


 231 0018 4068     		ldr	r0, [r0, #4]
 232              	.LVL12:
 233 001a 7047     		bx	lr
 234              	.LVL13:
 235              	.L19:
 959:Generated_Source\PSoC5/USB_std.c ****     }
 236              		.loc 1 959 0
 237 001c 0020     		movs	r0, #0
 238              	.LVL14:
 964:Generated_Source\PSoC5/USB_std.c ****     }
 965:Generated_Source\PSoC5/USB_std.c **** 
 966:Generated_Source\PSoC5/USB_std.c ****     return (pTmp);
 967:Generated_Source\PSoC5/USB_std.c **** }
 239              		.loc 1 967 0
 240 001e 7047     		bx	lr
 241              	.L21:
 242              		.align	2
 243              	.L20:
 244 0020 00000000 		.word	USB_device
 245 0024 00000000 		.word	USB_TABLE
 246              		.cfi_endproc
 247              	.LFE5:
 248              		.size	USB_GetConfigTablePtr, .-USB_GetConfigTablePtr
 249              		.section	.text.USB_ConfigAltChanged,"ax",%progbits
 250              		.align	2
 251              		.global	USB_ConfigAltChanged
 252              		.thumb
 253              		.thumb_func
 254              		.type	USB_ConfigAltChanged, %function
 255              	USB_ConfigAltChanged:
 256              	.LFB4:
 806:Generated_Source\PSoC5/USB_std.c ****     uint8 ep;
 257              		.loc 1 806 0
 258              		.cfi_startproc
 259              		@ args = 0, pretend = 0, frame = 0
 260              		@ frame_needed = 0, uses_anonymous_args = 0
 261 0000 F8B5     		push	{r3, r4, r5, r6, r7, lr}
 262              		.cfi_def_cfa_offset 24
 263              		.cfi_offset 3, -24
 264              		.cfi_offset 4, -20
 265              		.cfi_offset 5, -16
 266              		.cfi_offset 6, -12
 267              		.cfi_offset 7, -8
 268              		.cfi_offset 14, -4
 817:Generated_Source\PSoC5/USB_std.c ****     {
 269              		.loc 1 817 0
 270 0002 404B     		ldr	r3, .L34
 271 0004 1B78     		ldrb	r3, [r3]	@ zero_extendqisi2
 272 0006 13F0FF0F 		tst	r3, #255
 273 000a 79D0     		beq	.L22
 820:Generated_Source\PSoC5/USB_std.c ****         pTmp = &pTmp[1u];
 274              		.loc 1 820 0
 275 000c 3D4B     		ldr	r3, .L34
 276 000e 1878     		ldrb	r0, [r3]	@ zero_extendqisi2
 277 0010 0138     		subs	r0, r0, #1
 278 0012 C0B2     		uxtb	r0, r0
 279 0014 FFF7FEFF 		bl	USB_GetConfigTablePtr
ARM GAS  C:\Users\CHANTI~1\AppData\Local\Temp\cckZxxwg.s 			page 23


 280              	.LVL15:
 822:Generated_Source\PSoC5/USB_std.c **** 
 281              		.loc 1 822 0
 282 0018 047A     		ldrb	r4, [r0, #8]	@ zero_extendqisi2
 283              	.LVL16:
 825:Generated_Source\PSoC5/USB_std.c ****         
 284              		.loc 1 825 0
 285 001a C268     		ldr	r2, [r0, #12]
 286              	.LVL17:
 831:Generated_Source\PSoC5/USB_std.c ****         for (i = 0u; i < ep; i++)
 287              		.loc 1 831 0
 288 001c 3A4B     		ldr	r3, .L34+4
 289 001e 1878     		ldrb	r0, [r3]	@ zero_extendqisi2
 290              	.LVL18:
 291 0020 C0B2     		uxtb	r0, r0
 292              	.LVL19:
 832:Generated_Source\PSoC5/USB_std.c ****         {
 293              		.loc 1 832 0
 294 0022 0023     		movs	r3, #0
 295 0024 6AE0     		b	.L24
 296              	.LVL20:
 297              	.L30:
 835:Generated_Source\PSoC5/USB_std.c ****                 (USB_interfaceSetting[interfaceNum] == pEP->altSetting))
 298              		.loc 1 835 0
 299 0026 1178     		ldrb	r1, [r2]	@ zero_extendqisi2
 300 0028 8842     		cmp	r0, r1
 301 002a 64D1     		bne	.L25
 836:Generated_Source\PSoC5/USB_std.c ****             {
 302              		.loc 1 836 0 discriminator 1
 303 002c 3749     		ldr	r1, .L34+8
 304 002e 095C     		ldrb	r1, [r1, r0]	@ zero_extendqisi2
 305 0030 C9B2     		uxtb	r1, r1
 306 0032 5578     		ldrb	r5, [r2, #1]	@ zero_extendqisi2
 835:Generated_Source\PSoC5/USB_std.c ****                 (USB_interfaceSetting[interfaceNum] == pEP->altSetting))
 307              		.loc 1 835 0 discriminator 1
 308 0034 A942     		cmp	r1, r5
 309 0036 5ED1     		bne	.L25
 838:Generated_Source\PSoC5/USB_std.c ****                 epType = ((uint8) pEP->attributes & USB_EP_TYPE_MASK);
 310              		.loc 1 838 0
 311 0038 9178     		ldrb	r1, [r2, #2]	@ zero_extendqisi2
 312 003a 01F07F01 		and	r1, r1, #127
 313              	.LVL21:
 839:Generated_Source\PSoC5/USB_std.c ****                 
 314              		.loc 1 839 0
 315 003e D678     		ldrb	r6, [r2, #3]	@ zero_extendqisi2
 316 0040 06F00306 		and	r6, r6, #3
 317              	.LVL22:
 842:Generated_Source\PSoC5/USB_std.c ****                 USB_EP[curEp].addr       = pEP->addr;
 318              		.loc 1 842 0
 319 0044 DFF8C8E0 		ldr	lr, .L34+12
 320 0048 4D00     		lsls	r5, r1, #1
 321 004a 0D44     		add	r5, r5, r1
 322 004c AF00     		lsls	r7, r5, #2
 323 004e 0EEB0705 		add	r5, lr, r7
 324 0052 4FF0000C 		mov	ip, #0
 325 0056 85F803C0 		strb	ip, [r5, #3]
 843:Generated_Source\PSoC5/USB_std.c ****                 USB_EP[curEp].attrib     = pEP->attributes;
ARM GAS  C:\Users\CHANTI~1\AppData\Local\Temp\cckZxxwg.s 			page 24


 326              		.loc 1 843 0
 327 005a 92F802C0 		ldrb	ip, [r2, #2]	@ zero_extendqisi2
 328 005e 85F804C0 		strb	ip, [r5, #4]
 844:Generated_Source\PSoC5/USB_std.c ****                 USB_EP[curEp].bufferSize = pEP->bufferSize;
 329              		.loc 1 844 0
 330 0062 92F803C0 		ldrb	ip, [r2, #3]	@ zero_extendqisi2
 331 0066 0EF807C0 		strb	ip, [lr, r7]
 845:Generated_Source\PSoC5/USB_std.c **** 
 332              		.loc 1 845 0
 333 006a 9788     		ldrh	r7, [r2, #4]
 334 006c 2F81     		strh	r7, [r5, #8]	@ movhi
 847:Generated_Source\PSoC5/USB_std.c ****                 {
 335              		.loc 1 847 0
 336 006e 92F90250 		ldrsb	r5, [r2, #2]
 337 0072 002D     		cmp	r5, #0
 338 0074 0DDA     		bge	.L26
 850:Generated_Source\PSoC5/USB_std.c ****                     USB_EP[curEp].apiEpState = USB_EVENT_PENDING;
 339              		.loc 1 850 0
 340 0076 012E     		cmp	r6, #1
 341 0078 01D1     		bne	.L31
 342 007a 0727     		movs	r7, #7
 343 007c 00E0     		b	.L27
 344              	.L31:
 345 007e 0D27     		movs	r7, #13
 346              	.L27:
 850:Generated_Source\PSoC5/USB_std.c ****                     USB_EP[curEp].apiEpState = USB_EVENT_PENDING;
 347              		.loc 1 850 0 is_stmt 0 discriminator 4
 348 0080 4E00     		lsls	r6, r1, #1
 349              	.LVL23:
 350 0082 0E44     		add	r6, r6, r1
 351 0084 B500     		lsls	r5, r6, #2
 352 0086 224E     		ldr	r6, .L34+12
 353 0088 3544     		add	r5, r5, r6
 354 008a 6F71     		strb	r7, [r5, #5]
 851:Generated_Source\PSoC5/USB_std.c ****                 }
 355              		.loc 1 851 0 is_stmt 1 discriminator 4
 356 008c 0126     		movs	r6, #1
 357 008e 6E70     		strb	r6, [r5, #1]
 358 0090 0CE0     		b	.L28
 359              	.LVL24:
 360              	.L26:
 856:Generated_Source\PSoC5/USB_std.c ****                     USB_EP[curEp].apiEpState = USB_NO_EVENT_PENDING;
 361              		.loc 1 856 0
 362 0092 012E     		cmp	r6, #1
 363 0094 01D1     		bne	.L32
 364 0096 0527     		movs	r7, #5
 365 0098 00E0     		b	.L29
 366              	.L32:
 367 009a 0927     		movs	r7, #9
 368              	.L29:
 856:Generated_Source\PSoC5/USB_std.c ****                     USB_EP[curEp].apiEpState = USB_NO_EVENT_PENDING;
 369              		.loc 1 856 0 is_stmt 0 discriminator 4
 370 009c 4E00     		lsls	r6, r1, #1
 371              	.LVL25:
 372 009e 0E44     		add	r6, r6, r1
 373 00a0 B500     		lsls	r5, r6, #2
 374 00a2 1B4E     		ldr	r6, .L34+12
ARM GAS  C:\Users\CHANTI~1\AppData\Local\Temp\cckZxxwg.s 			page 25


 375 00a4 3544     		add	r5, r5, r6
 376 00a6 6F71     		strb	r7, [r5, #5]
 857:Generated_Source\PSoC5/USB_std.c ****                 }
 377              		.loc 1 857 0 is_stmt 1 discriminator 4
 378 00a8 0026     		movs	r6, #0
 379 00aa 6E70     		strb	r6, [r5, #1]
 380              	.L28:
 861:Generated_Source\PSoC5/USB_std.c **** 
 381              		.loc 1 861 0
 382 00ac DFF868E0 		ldr	lr, .L34+20
 383 00b0 0F01     		lsls	r7, r1, #4
 384 00b2 0EEB0706 		add	r6, lr, r7
 385 00b6 0125     		movs	r5, #1
 386 00b8 B570     		strb	r5, [r6, #2]
 907:Generated_Source\PSoC5/USB_std.c ****                 USB_SIE_EP_BASE.sieEp[curEp].epCnt1 = LO8(USB_EP[curEp].bufferSize);
 387              		.loc 1 907 0
 388 00ba 01FA05F5 		lsl	r5, r1, r5
 389 00be 2944     		add	r1, r1, r5
 390              	.LVL26:
 391 00c0 8D00     		lsls	r5, r1, #2
 392 00c2 1349     		ldr	r1, .L34+12
 393 00c4 2944     		add	r1, r1, r5
 394 00c6 0D89     		ldrh	r5, [r1, #8]
 395 00c8 C5F30725 		ubfx	r5, r5, #8, #8
 396 00cc 0EF80750 		strb	r5, [lr, r7]
 908:Generated_Source\PSoC5/USB_std.c ****                 
 397              		.loc 1 908 0
 398 00d0 0D89     		ldrh	r5, [r1, #8]
 399 00d2 EDB2     		uxtb	r5, r5
 400 00d4 7570     		strb	r5, [r6, #1]
 914:Generated_Source\PSoC5/USB_std.c ****                     USB_ARB_EP_BASE.arbEp[curEp].rwRaMsb = HI8(USB_EP[curEp].buffOffset);
 401              		.loc 1 914 0
 402 00d6 CE88     		ldrh	r6, [r1, #6]
 403 00d8 F6B2     		uxtb	r6, r6
 404 00da 0E4D     		ldr	r5, .L34+16
 405 00dc 3D44     		add	r5, r5, r7
 406 00de AE71     		strb	r6, [r5, #6]
 915:Generated_Source\PSoC5/USB_std.c ****                     USB_ARB_EP_BASE.arbEp[curEp].rwWa    = LO8(USB_EP[curEp].buffOffset);
 407              		.loc 1 915 0
 408 00e0 CE88     		ldrh	r6, [r1, #6]
 409 00e2 C6F30726 		ubfx	r6, r6, #8, #8
 410 00e6 EE71     		strb	r6, [r5, #7]
 916:Generated_Source\PSoC5/USB_std.c ****                     USB_ARB_EP_BASE.arbEp[curEp].rwWaMsb = HI8(USB_EP[curEp].buffOffset);
 411              		.loc 1 916 0
 412 00e8 CE88     		ldrh	r6, [r1, #6]
 413 00ea F6B2     		uxtb	r6, r6
 414 00ec 2E71     		strb	r6, [r5, #4]
 917:Generated_Source\PSoC5/USB_std.c ****                 #endif /* (CY_PSOC4) */                
 415              		.loc 1 917 0
 416 00ee C988     		ldrh	r1, [r1, #6]
 417 00f0 C1F30721 		ubfx	r1, r1, #8, #8
 418 00f4 6971     		strb	r1, [r5, #5]
 419              	.L25:
 922:Generated_Source\PSoC5/USB_std.c ****         }
 420              		.loc 1 922 0 discriminator 2
 421 00f6 0832     		adds	r2, r2, #8
 422              	.LVL27:
ARM GAS  C:\Users\CHANTI~1\AppData\Local\Temp\cckZxxwg.s 			page 26


 832:Generated_Source\PSoC5/USB_std.c ****         {
 423              		.loc 1 832 0 discriminator 2
 424 00f8 0133     		adds	r3, r3, #1
 425              	.LVL28:
 426 00fa DBB2     		uxtb	r3, r3
 427              	.LVL29:
 428              	.L24:
 832:Generated_Source\PSoC5/USB_std.c ****         {
 429              		.loc 1 832 0 is_stmt 0 discriminator 1
 430 00fc A342     		cmp	r3, r4
 431 00fe 92D3     		bcc	.L30
 432              	.LVL30:
 433              	.L22:
 434 0100 F8BD     		pop	{r3, r4, r5, r6, r7, pc}
 435              	.L35:
 436 0102 00BF     		.align	2
 437              	.L34:
 438 0104 00000000 		.word	USB_configuration
 439 0108 00000000 		.word	USB_interfaceNumber
 440 010c 00000000 		.word	USB_interfaceSetting
 441 0110 00000000 		.word	USB_EP
 442 0114 70600040 		.word	1073766512
 443 0118 FC5F0040 		.word	1073766396
 444              		.cfi_endproc
 445              	.LFE4:
 446              		.size	USB_ConfigAltChanged, .-USB_ConfigAltChanged
 447              		.section	.text.USB_GetDeviceTablePtr,"ax",%progbits
 448              		.align	2
 449              		.global	USB_GetDeviceTablePtr
 450              		.thumb
 451              		.thumb_func
 452              		.type	USB_GetDeviceTablePtr, %function
 453              	USB_GetDeviceTablePtr:
 454              	.LFB6:
 968:Generated_Source\PSoC5/USB_std.c **** 
 969:Generated_Source\PSoC5/USB_std.c **** 
 970:Generated_Source\PSoC5/USB_std.c **** #if (USB_BOS_ENABLE)
 971:Generated_Source\PSoC5/USB_std.c ****     /*******************************************************************************
 972:Generated_Source\PSoC5/USB_std.c ****     * Function Name: USB_GetBOSPtr
 973:Generated_Source\PSoC5/USB_std.c ****     ****************************************************************************//**
 974:Generated_Source\PSoC5/USB_std.c ****     *
 975:Generated_Source\PSoC5/USB_std.c ****     *  This routine returns a pointer a BOS table entry
 976:Generated_Source\PSoC5/USB_std.c ****     *
 977:Generated_Source\PSoC5/USB_std.c ****     *  
 978:Generated_Source\PSoC5/USB_std.c ****     *
 979:Generated_Source\PSoC5/USB_std.c ****     * \return
 980:Generated_Source\PSoC5/USB_std.c ****     *  BOS Descriptor pointer or NULL when descriptor does not exist.
 981:Generated_Source\PSoC5/USB_std.c ****     *
 982:Generated_Source\PSoC5/USB_std.c ****     *******************************************************************************/
 983:Generated_Source\PSoC5/USB_std.c ****     const T_USB_LUT CYCODE *USB_GetBOSPtr(void)
 984:Generated_Source\PSoC5/USB_std.c ****                                                             
 985:Generated_Source\PSoC5/USB_std.c ****     {
 986:Generated_Source\PSoC5/USB_std.c ****         /* Device Table */
 987:Generated_Source\PSoC5/USB_std.c ****         const T_USB_LUT CYCODE *pTmp;
 988:Generated_Source\PSoC5/USB_std.c **** 
 989:Generated_Source\PSoC5/USB_std.c ****         pTmp = (const T_USB_LUT CYCODE *) USB_TABLE[USB_device].p_list;
 990:Generated_Source\PSoC5/USB_std.c **** 
ARM GAS  C:\Users\CHANTI~1\AppData\Local\Temp\cckZxxwg.s 			page 27


 991:Generated_Source\PSoC5/USB_std.c ****         /* The first entry points to the Device Descriptor,
 992:Generated_Source\PSoC5/USB_std.c ****         *  the second entry points to the BOS Descriptor
 993:Generated_Source\PSoC5/USB_std.c ****         */
 994:Generated_Source\PSoC5/USB_std.c ****         pTmp = &pTmp[1u];
 995:Generated_Source\PSoC5/USB_std.c ****         pTmp = (const T_USB_LUT CYCODE *) pTmp->p_list;
 996:Generated_Source\PSoC5/USB_std.c ****         return (pTmp);
 997:Generated_Source\PSoC5/USB_std.c ****     }
 998:Generated_Source\PSoC5/USB_std.c **** #endif /* (USB_BOS_ENABLE) */
 999:Generated_Source\PSoC5/USB_std.c **** 
1000:Generated_Source\PSoC5/USB_std.c **** 
1001:Generated_Source\PSoC5/USB_std.c **** /*******************************************************************************
1002:Generated_Source\PSoC5/USB_std.c **** * Function Name: USB_GetDeviceTablePtr
1003:Generated_Source\PSoC5/USB_std.c **** ****************************************************************************//**
1004:Generated_Source\PSoC5/USB_std.c **** *
1005:Generated_Source\PSoC5/USB_std.c **** *  This routine returns a pointer to the Device table
1006:Generated_Source\PSoC5/USB_std.c **** *
1007:Generated_Source\PSoC5/USB_std.c **** * \return
1008:Generated_Source\PSoC5/USB_std.c **** *  Device Table pointer
1009:Generated_Source\PSoC5/USB_std.c **** *
1010:Generated_Source\PSoC5/USB_std.c **** *******************************************************************************/
1011:Generated_Source\PSoC5/USB_std.c **** const T_USB_LUT CYCODE *USB_GetDeviceTablePtr(void)
1012:Generated_Source\PSoC5/USB_std.c ****                                                             
1013:Generated_Source\PSoC5/USB_std.c **** {
 455              		.loc 1 1013 0 is_stmt 1
 456              		.cfi_startproc
 457              		@ args = 0, pretend = 0, frame = 0
 458              		@ frame_needed = 0, uses_anonymous_args = 0
 459              		@ link register save eliminated.
1014:Generated_Source\PSoC5/USB_std.c ****     /* Device Table */
1015:Generated_Source\PSoC5/USB_std.c ****     return( (const T_USB_LUT CYCODE *) USB_TABLE[USB_device].p_list );
 460              		.loc 1 1015 0
 461 0000 034B     		ldr	r3, .L37
 462 0002 1A78     		ldrb	r2, [r3]	@ zero_extendqisi2
 463 0004 034B     		ldr	r3, .L37+4
 464 0006 03EBC203 		add	r3, r3, r2, lsl #3
1016:Generated_Source\PSoC5/USB_std.c **** }
 465              		.loc 1 1016 0
 466 000a 5868     		ldr	r0, [r3, #4]
 467 000c 7047     		bx	lr
 468              	.L38:
 469 000e 00BF     		.align	2
 470              	.L37:
 471 0010 00000000 		.word	USB_device
 472 0014 00000000 		.word	USB_TABLE
 473              		.cfi_endproc
 474              	.LFE6:
 475              		.size	USB_GetDeviceTablePtr, .-USB_GetDeviceTablePtr
 476              		.section	.text.USB_GetInterfaceClassTablePtr,"ax",%progbits
 477              		.align	2
 478              		.global	USB_GetInterfaceClassTablePtr
 479              		.thumb
 480              		.thumb_func
 481              		.type	USB_GetInterfaceClassTablePtr, %function
 482              	USB_GetInterfaceClassTablePtr:
 483              	.LFB7:
1017:Generated_Source\PSoC5/USB_std.c **** 
1018:Generated_Source\PSoC5/USB_std.c **** 
ARM GAS  C:\Users\CHANTI~1\AppData\Local\Temp\cckZxxwg.s 			page 28


1019:Generated_Source\PSoC5/USB_std.c **** /*******************************************************************************
1020:Generated_Source\PSoC5/USB_std.c **** * Function Name: USB_GetInterfaceClassTablePtr
1021:Generated_Source\PSoC5/USB_std.c **** ****************************************************************************//**
1022:Generated_Source\PSoC5/USB_std.c **** *
1023:Generated_Source\PSoC5/USB_std.c **** *  This routine returns Interface Class table pointer, which contains
1024:Generated_Source\PSoC5/USB_std.c **** *  the relation between interface number and interface class.
1025:Generated_Source\PSoC5/USB_std.c **** *
1026:Generated_Source\PSoC5/USB_std.c **** * \return
1027:Generated_Source\PSoC5/USB_std.c **** *  Interface Class table pointer.
1028:Generated_Source\PSoC5/USB_std.c **** *
1029:Generated_Source\PSoC5/USB_std.c **** *******************************************************************************/
1030:Generated_Source\PSoC5/USB_std.c **** const uint8 CYCODE *USB_GetInterfaceClassTablePtr(void)
1031:Generated_Source\PSoC5/USB_std.c ****                                                         
1032:Generated_Source\PSoC5/USB_std.c **** {
 484              		.loc 1 1032 0
 485              		.cfi_startproc
 486              		@ args = 0, pretend = 0, frame = 0
 487              		@ frame_needed = 0, uses_anonymous_args = 0
 488 0000 08B5     		push	{r3, lr}
 489              		.cfi_def_cfa_offset 8
 490              		.cfi_offset 3, -8
 491              		.cfi_offset 14, -4
1033:Generated_Source\PSoC5/USB_std.c ****     const T_USB_LUT CYCODE *pTmp;
1034:Generated_Source\PSoC5/USB_std.c ****     const uint8 CYCODE *pInterfaceClass;
1035:Generated_Source\PSoC5/USB_std.c ****     uint8 currentInterfacesNum;
1036:Generated_Source\PSoC5/USB_std.c **** 
1037:Generated_Source\PSoC5/USB_std.c ****     pTmp = USB_GetConfigTablePtr(USB_configuration - 1u);
 492              		.loc 1 1037 0
 493 0002 084B     		ldr	r3, .L43
 494 0004 1878     		ldrb	r0, [r3]	@ zero_extendqisi2
 495 0006 0138     		subs	r0, r0, #1
 496 0008 C0B2     		uxtb	r0, r0
 497 000a FFF7FEFF 		bl	USB_GetConfigTablePtr
 498              	.LVL31:
1038:Generated_Source\PSoC5/USB_std.c ****     if (pTmp != NULL)
 499              		.loc 1 1038 0
 500 000e 30B1     		cbz	r0, .L41
1039:Generated_Source\PSoC5/USB_std.c ****     {
1040:Generated_Source\PSoC5/USB_std.c ****         currentInterfacesNum  = ((const uint8 *) pTmp->p_list)[USB_CONFIG_DESCR_NUM_INTERFACES];
 501              		.loc 1 1040 0
 502 0010 4268     		ldr	r2, [r0, #4]
 503 0012 1279     		ldrb	r2, [r2, #4]	@ zero_extendqisi2
 504              	.LVL32:
1041:Generated_Source\PSoC5/USB_std.c ****         /* Third entry in the LUT starts the Interface Table pointers */
1042:Generated_Source\PSoC5/USB_std.c ****         /* The INTERFACE_CLASS table is located after all interfaces */
1043:Generated_Source\PSoC5/USB_std.c ****         pTmp = &pTmp[currentInterfacesNum + 2u];
 505              		.loc 1 1043 0
 506 0014 0232     		adds	r2, r2, #2
 507              	.LVL33:
 508 0016 00EBC203 		add	r3, r0, r2, lsl #3
 509              	.LVL34:
1044:Generated_Source\PSoC5/USB_std.c ****         pInterfaceClass = (const uint8 CYCODE *) pTmp->p_list;
 510              		.loc 1 1044 0
 511 001a 5868     		ldr	r0, [r3, #4]
 512              	.LVL35:
 513 001c 08BD     		pop	{r3, pc}
 514              	.LVL36:
ARM GAS  C:\Users\CHANTI~1\AppData\Local\Temp\cckZxxwg.s 			page 29


 515              	.L41:
1045:Generated_Source\PSoC5/USB_std.c ****     }
1046:Generated_Source\PSoC5/USB_std.c ****     else
1047:Generated_Source\PSoC5/USB_std.c ****     {
1048:Generated_Source\PSoC5/USB_std.c ****         pInterfaceClass = (const uint8 CYCODE *) NULL;
 516              		.loc 1 1048 0
 517 001e 0020     		movs	r0, #0
 518              	.LVL37:
1049:Generated_Source\PSoC5/USB_std.c ****     }
1050:Generated_Source\PSoC5/USB_std.c **** 
1051:Generated_Source\PSoC5/USB_std.c ****     return (pInterfaceClass);
1052:Generated_Source\PSoC5/USB_std.c **** }
 519              		.loc 1 1052 0
 520 0020 08BD     		pop	{r3, pc}
 521              	.L44:
 522 0022 00BF     		.align	2
 523              	.L43:
 524 0024 00000000 		.word	USB_configuration
 525              		.cfi_endproc
 526              	.LFE7:
 527              		.size	USB_GetInterfaceClassTablePtr, .-USB_GetInterfaceClassTablePtr
 528              		.section	.text.USB_Config,"ax",%progbits
 529              		.align	2
 530              		.global	USB_Config
 531              		.thumb
 532              		.thumb_func
 533              		.type	USB_Config, %function
 534              	USB_Config:
 535              	.LFB3:
 571:Generated_Source\PSoC5/USB_std.c ****     uint8 ep;
 536              		.loc 1 571 0
 537              		.cfi_startproc
 538              		@ args = 0, pretend = 0, frame = 0
 539              		@ frame_needed = 0, uses_anonymous_args = 0
 540              	.LVL38:
 541 0000 2DE9F041 		push	{r4, r5, r6, r7, r8, lr}
 542              		.cfi_def_cfa_offset 24
 543              		.cfi_offset 4, -24
 544              		.cfi_offset 5, -20
 545              		.cfi_offset 6, -16
 546              		.cfi_offset 7, -12
 547              		.cfi_offset 8, -8
 548              		.cfi_offset 14, -4
 549              	.LVL39:
 586:Generated_Source\PSoC5/USB_std.c ****     {
 550              		.loc 1 586 0
 551 0004 0023     		movs	r3, #0
 552 0006 10E0     		b	.L46
 553              	.LVL40:
 554              	.L47:
 588:Generated_Source\PSoC5/USB_std.c ****         USB_EP[ep].hwEpState  = 0u;
 555              		.loc 1 588 0 discriminator 3
 556 0008 684D     		ldr	r5, .L71
 557 000a 5900     		lsls	r1, r3, #1
 558 000c CA18     		adds	r2, r1, r3
 559 000e 9600     		lsls	r6, r2, #2
 560 0010 AC19     		adds	r4, r5, r6
ARM GAS  C:\Users\CHANTI~1\AppData\Local\Temp\cckZxxwg.s 			page 30


 561 0012 0022     		movs	r2, #0
 562 0014 AA55     		strb	r2, [r5, r6]
 589:Generated_Source\PSoC5/USB_std.c ****         USB_EP[ep].epToggle   = 0u;
 563              		.loc 1 589 0 discriminator 3
 564 0016 A270     		strb	r2, [r4, #2]
 590:Generated_Source\PSoC5/USB_std.c ****         USB_EP[ep].bufferSize = 0u;
 565              		.loc 1 590 0 discriminator 3
 566 0018 E270     		strb	r2, [r4, #3]
 591:Generated_Source\PSoC5/USB_std.c ****         USB_EP[ep].interface  = 0u;
 567              		.loc 1 591 0 discriminator 3
 568 001a 2281     		strh	r2, [r4, #8]	@ movhi
 592:Generated_Source\PSoC5/USB_std.c ****         USB_EP[ep].apiEpState = USB_NO_EVENT_PENDING;
 569              		.loc 1 592 0 discriminator 3
 570 001c A272     		strb	r2, [r4, #10]
 593:Generated_Source\PSoC5/USB_std.c ****         USB_EP[ep].epMode     = USB_MODE_DISABLE;   
 571              		.loc 1 593 0 discriminator 3
 572 001e 6270     		strb	r2, [r4, #1]
 594:Generated_Source\PSoC5/USB_std.c ****     }
 573              		.loc 1 594 0 discriminator 3
 574 0020 3446     		mov	r4, r6
 575 0022 2C44     		add	r4, r4, r5
 576 0024 6271     		strb	r2, [r4, #5]
 586:Generated_Source\PSoC5/USB_std.c ****     {
 577              		.loc 1 586 0 discriminator 3
 578 0026 0133     		adds	r3, r3, #1
 579              	.LVL41:
 580 0028 DBB2     		uxtb	r3, r3
 581              	.LVL42:
 582              	.L46:
 586:Generated_Source\PSoC5/USB_std.c ****     {
 583              		.loc 1 586 0 is_stmt 0 discriminator 1
 584 002a 082B     		cmp	r3, #8
 585 002c ECD9     		bls	.L47
 598:Generated_Source\PSoC5/USB_std.c ****     {
 586              		.loc 1 598 0 is_stmt 1
 587 002e 40B9     		cbnz	r0, .L67
 588 0030 0AE0     		b	.L49
 589              	.LVL43:
 590              	.L50:
 602:Generated_Source\PSoC5/USB_std.c ****             USB_interfaceSettingLast[i] = 0u;
 591              		.loc 1 602 0 discriminator 3
 592 0032 0022     		movs	r2, #0
 593 0034 5E49     		ldr	r1, .L71+4
 594 0036 CA54     		strb	r2, [r1, r3]
 603:Generated_Source\PSoC5/USB_std.c ****         }
 595              		.loc 1 603 0 discriminator 3
 596 0038 5E49     		ldr	r1, .L71+8
 597 003a CA54     		strb	r2, [r1, r3]
 600:Generated_Source\PSoC5/USB_std.c ****         {
 598              		.loc 1 600 0 discriminator 3
 599 003c 0133     		adds	r3, r3, #1
 600              	.LVL44:
 601 003e DBB2     		uxtb	r3, r3
 602              	.LVL45:
 603 0040 00E0     		b	.L48
 604              	.LVL46:
 605              	.L67:
ARM GAS  C:\Users\CHANTI~1\AppData\Local\Temp\cckZxxwg.s 			page 31


 606 0042 0023     		movs	r3, #0
 607              	.LVL47:
 608              	.L48:
 600:Generated_Source\PSoC5/USB_std.c ****         {
 609              		.loc 1 600 0 is_stmt 0 discriminator 1
 610 0044 002B     		cmp	r3, #0
 611 0046 F4D0     		beq	.L50
 612              	.LVL48:
 613              	.L49:
 608:Generated_Source\PSoC5/USB_std.c ****     {
 614              		.loc 1 608 0 is_stmt 1
 615 0048 5B4B     		ldr	r3, .L71+12
 616 004a 1B78     		ldrb	r3, [r3]	@ zero_extendqisi2
 617 004c 13F0FF0F 		tst	r3, #255
 618 0050 00F0A980 		beq	.L45
 614:Generated_Source\PSoC5/USB_std.c ****         
 619              		.loc 1 614 0
 620 0054 584B     		ldr	r3, .L71+12
 621 0056 1878     		ldrb	r0, [r3]	@ zero_extendqisi2
 622              	.LVL49:
 623 0058 0138     		subs	r0, r0, #1
 624 005a C0B2     		uxtb	r0, r0
 625 005c FFF7FEFF 		bl	USB_GetConfigTablePtr
 626              	.LVL50:
 617:Generated_Source\PSoC5/USB_std.c ****         if ((pDescr[USB_CONFIG_DESCR_ATTRIB] & USB_CONFIG_DESCR_ATTRIB_SELF_POWERED) != 0u)
 627              		.loc 1 617 0
 628 0060 4368     		ldr	r3, [r0, #4]
 629              	.LVL51:
 618:Generated_Source\PSoC5/USB_std.c ****         {
 630              		.loc 1 618 0
 631 0062 DB79     		ldrb	r3, [r3, #7]	@ zero_extendqisi2
 632              	.LVL52:
 633 0064 13F0400F 		tst	r3, #64
 634 0068 05D0     		beq	.L52
 620:Generated_Source\PSoC5/USB_std.c ****         }
 635              		.loc 1 620 0
 636 006a 544A     		ldr	r2, .L71+16
 637 006c 1378     		ldrb	r3, [r2]	@ zero_extendqisi2
 638 006e 43F00103 		orr	r3, r3, #1
 639 0072 1370     		strb	r3, [r2]
 640 0074 04E0     		b	.L53
 641              	.L52:
 624:Generated_Source\PSoC5/USB_std.c ****         }
 642              		.loc 1 624 0
 643 0076 514A     		ldr	r2, .L71+16
 644 0078 1378     		ldrb	r3, [r2]	@ zero_extendqisi2
 645 007a 03F0FE03 		and	r3, r3, #254
 646 007e 1370     		strb	r3, [r2]
 647              	.L53:
 648              	.LVL53:
 629:Generated_Source\PSoC5/USB_std.c **** 
 649              		.loc 1 629 0
 650 0080 057A     		ldrb	r5, [r0, #8]	@ zero_extendqisi2
 651              	.LVL54:
 687:Generated_Source\PSoC5/USB_std.c ****             {
 652              		.loc 1 687 0
 653 0082 0124     		movs	r4, #1
ARM GAS  C:\Users\CHANTI~1\AppData\Local\Temp\cckZxxwg.s 			page 32


 654 0084 64E0     		b	.L54
 655              	.LVL55:
 656              	.L62:
 690:Generated_Source\PSoC5/USB_std.c ****                 /* Find max length for each EP and select it (length could be different in differen
 657              		.loc 1 690 0
 658 0086 C168     		ldr	r1, [r0, #12]
 659              	.LVL56:
 694:Generated_Source\PSoC5/USB_std.c ****                 {
 660              		.loc 1 694 0
 661 0088 0023     		movs	r3, #0
 662 008a 5DE0     		b	.L55
 663              	.LVL57:
 664              	.L61:
 696:Generated_Source\PSoC5/USB_std.c ****                     {
 665              		.loc 1 696 0
 666 008c 8A78     		ldrb	r2, [r1, #2]	@ zero_extendqisi2
 667 008e 02F07F02 		and	r2, r2, #127
 668 0092 9442     		cmp	r4, r2
 669 0094 55D1     		bne	.L56
 699:Generated_Source\PSoC5/USB_std.c ****                         {
 670              		.loc 1 699 0
 671 0096 2646     		mov	r6, r4
 672 0098 04EB4407 		add	r7, r4, r4, lsl #1
 673 009c BA00     		lsls	r2, r7, #2
 674 009e 434F     		ldr	r7, .L71
 675 00a0 3A44     		add	r2, r2, r7
 676 00a2 1289     		ldrh	r2, [r2, #8]
 677 00a4 92B2     		uxth	r2, r2
 678 00a6 8F88     		ldrh	r7, [r1, #4]
 679 00a8 BA42     		cmp	r2, r7
 680 00aa 07D2     		bcs	.L57
 701:Generated_Source\PSoC5/USB_std.c ****                         }
 681              		.loc 1 701 0
 682 00ac 04EB440E 		add	lr, r4, r4, lsl #1
 683 00b0 4FEA8E02 		lsl	r2, lr, #2
 684 00b4 DFF8F4E0 		ldr	lr, .L71
 685 00b8 7244     		add	r2, r2, lr
 686 00ba 1781     		strh	r7, [r2, #8]	@ movhi
 687              	.L57:
 705:Generated_Source\PSoC5/USB_std.c ****                         {                            
 688              		.loc 1 705 0
 689 00bc 0A78     		ldrb	r2, [r1]	@ zero_extendqisi2
 690 00be 3C4F     		ldr	r7, .L71+4
 691 00c0 BA5C     		ldrb	r2, [r7, r2]	@ zero_extendqisi2
 692 00c2 D2B2     		uxtb	r2, r2
 693 00c4 4F78     		ldrb	r7, [r1, #1]	@ zero_extendqisi2
 694 00c6 BA42     		cmp	r2, r7
 695 00c8 3BD1     		bne	.L56
 707:Generated_Source\PSoC5/USB_std.c ****                             USB_EP[i].attrib = pEP->attributes;
 696              		.loc 1 707 0
 697 00ca 91F802C0 		ldrb	ip, [r1, #2]	@ zero_extendqisi2
 698 00ce DFF8DCE0 		ldr	lr, .L71
 699 00d2 7200     		lsls	r2, r6, #1
 700 00d4 3244     		add	r2, r2, r6
 701 00d6 9700     		lsls	r7, r2, #2
 702 00d8 0EEB0702 		add	r2, lr, r7
 703 00dc 82F804C0 		strb	ip, [r2, #4]
ARM GAS  C:\Users\CHANTI~1\AppData\Local\Temp\cckZxxwg.s 			page 33


 708:Generated_Source\PSoC5/USB_std.c ****                             
 704              		.loc 1 708 0
 705 00e0 CA78     		ldrb	r2, [r1, #3]	@ zero_extendqisi2
 706 00e2 0EF80720 		strb	r2, [lr, r7]
 710:Generated_Source\PSoC5/USB_std.c ****                             
 707              		.loc 1 710 0
 708 00e6 CA78     		ldrb	r2, [r1, #3]	@ zero_extendqisi2
 709 00e8 02F00302 		and	r2, r2, #3
 710              	.LVL58:
 712:Generated_Source\PSoC5/USB_std.c ****                             {
 711              		.loc 1 712 0
 712 00ec 91F90270 		ldrsb	r7, [r1, #2]
 713 00f0 002F     		cmp	r7, #0
 714 00f2 13DA     		bge	.L58
 715:Generated_Source\PSoC5/USB_std.c ****                                 USB_EP[i].apiEpState = USB_EVENT_PENDING;
 715              		.loc 1 715 0
 716 00f4 012A     		cmp	r2, #1
 717 00f6 02D1     		bne	.L68
 718 00f8 4FF00708 		mov	r8, #7
 719 00fc 01E0     		b	.L59
 720              	.L68:
 721 00fe 4FF00D08 		mov	r8, #13
 722              	.L59:
 715:Generated_Source\PSoC5/USB_std.c ****                                 USB_EP[i].apiEpState = USB_EVENT_PENDING;
 723              		.loc 1 715 0 is_stmt 0 discriminator 4
 724 0102 DFF8A8E0 		ldr	lr, .L71
 725 0106 7200     		lsls	r2, r6, #1
 726              	.LVL59:
 727 0108 02EB060C 		add	ip, r2, r6
 728 010c 4FEA8C07 		lsl	r7, ip, #2
 729 0110 7744     		add	r7, r7, lr
 730 0112 87F80580 		strb	r8, [r7, #5]
 731              	.LVL60:
 716:Generated_Source\PSoC5/USB_std.c ****                                 
 732              		.loc 1 716 0 is_stmt 1 discriminator 4
 733 0116 0126     		movs	r6, #1
 734 0118 7E70     		strb	r6, [r7, #1]
 735 011a 12E0     		b	.L56
 736              	.LVL61:
 737              	.L58:
 728:Generated_Source\PSoC5/USB_std.c ****                                 USB_EP[i].apiEpState = USB_NO_EVENT_PENDING;
 738              		.loc 1 728 0
 739 011c 012A     		cmp	r2, #1
 740 011e 02D1     		bne	.L69
 741 0120 4FF00508 		mov	r8, #5
 742 0124 01E0     		b	.L60
 743              	.L69:
 744 0126 4FF00908 		mov	r8, #9
 745              	.L60:
 728:Generated_Source\PSoC5/USB_std.c ****                                 USB_EP[i].apiEpState = USB_NO_EVENT_PENDING;
 746              		.loc 1 728 0 is_stmt 0 discriminator 4
 747 012a DFF880E0 		ldr	lr, .L71
 748 012e 7200     		lsls	r2, r6, #1
 749              	.LVL62:
 750 0130 02EB060C 		add	ip, r2, r6
 751 0134 4FEA8C07 		lsl	r7, ip, #2
 752 0138 7744     		add	r7, r7, lr
ARM GAS  C:\Users\CHANTI~1\AppData\Local\Temp\cckZxxwg.s 			page 34


 753 013a 87F80580 		strb	r8, [r7, #5]
 754              	.LVL63:
 729:Generated_Source\PSoC5/USB_std.c ****                                 
 755              		.loc 1 729 0 is_stmt 1 discriminator 4
 756 013e 0026     		movs	r6, #0
 757 0140 7E70     		strb	r6, [r7, #1]
 758              	.L56:
 752:Generated_Source\PSoC5/USB_std.c ****                 }
 759              		.loc 1 752 0 discriminator 2
 760 0142 0831     		adds	r1, r1, #8
 761              	.LVL64:
 694:Generated_Source\PSoC5/USB_std.c ****                 {
 762              		.loc 1 694 0 discriminator 2
 763 0144 0133     		adds	r3, r3, #1
 764              	.LVL65:
 765 0146 DBB2     		uxtb	r3, r3
 766              	.LVL66:
 767              	.L55:
 694:Generated_Source\PSoC5/USB_std.c ****                 {
 768              		.loc 1 694 0 is_stmt 0 discriminator 1
 769 0148 AB42     		cmp	r3, r5
 770 014a 9FD3     		bcc	.L61
 687:Generated_Source\PSoC5/USB_std.c ****             {
 771              		.loc 1 687 0 is_stmt 1 discriminator 2
 772 014c 0134     		adds	r4, r4, #1
 773              	.LVL67:
 774 014e E4B2     		uxtb	r4, r4
 775              	.LVL68:
 776              	.L54:
 687:Generated_Source\PSoC5/USB_std.c ****             {
 777              		.loc 1 687 0 is_stmt 0 discriminator 1
 778 0150 082C     		cmp	r4, #8
 779 0152 98D9     		bls	.L62
 762:Generated_Source\PSoC5/USB_std.c ****         for (i = 0u; i < ep; i++)
 780              		.loc 1 762 0 is_stmt 1
 781 0154 C068     		ldr	r0, [r0, #12]
 782              	.LVL69:
 763:Generated_Source\PSoC5/USB_std.c ****         {
 783              		.loc 1 763 0
 784 0156 0022     		movs	r2, #0
 785 0158 0CE0     		b	.L63
 786              	.LVL70:
 787              	.L64:
 766:Generated_Source\PSoC5/USB_std.c ****             pEP = &pEP[1u];
 788              		.loc 1 766 0 discriminator 3
 789 015a 8378     		ldrb	r3, [r0, #2]	@ zero_extendqisi2
 790 015c 03F07F03 		and	r3, r3, #127
 791 0160 10F8084B 		ldrb	r4, [r0], #8	@ zero_extendqisi2
 792              	.LVL71:
 793 0164 03EB4303 		add	r3, r3, r3, lsl #1
 794 0168 9900     		lsls	r1, r3, #2
 795 016a 104B     		ldr	r3, .L71
 796 016c 1944     		add	r1, r1, r3
 797 016e 8C72     		strb	r4, [r1, #10]
 798              	.LVL72:
 763:Generated_Source\PSoC5/USB_std.c ****         {
 799              		.loc 1 763 0 discriminator 3
ARM GAS  C:\Users\CHANTI~1\AppData\Local\Temp\cckZxxwg.s 			page 35


 800 0170 0132     		adds	r2, r2, #1
 801              	.LVL73:
 802 0172 D2B2     		uxtb	r2, r2
 803              	.LVL74:
 804              	.L63:
 763:Generated_Source\PSoC5/USB_std.c ****         {
 805              		.loc 1 763 0 is_stmt 0 discriminator 1
 806 0174 AA42     		cmp	r2, r5
 807 0176 F0D3     		bcc	.L64
 771:Generated_Source\PSoC5/USB_std.c ****         
 808              		.loc 1 771 0 is_stmt 1
 809 0178 FFF7FEFF 		bl	USB_GetInterfaceClassTablePtr
 810              	.LVL75:
 811 017c 104B     		ldr	r3, .L71+20
 812 017e 1860     		str	r0, [r3]
 813              	.LVL76:
 775:Generated_Source\PSoC5/USB_std.c ****         for (ep = USB_EP1; ep < USB_MAX_EP; ++ep)
 814              		.loc 1 775 0
 815 0180 0021     		movs	r1, #0
 776:Generated_Source\PSoC5/USB_std.c ****         {
 816              		.loc 1 776 0
 817 0182 0123     		movs	r3, #1
 818 0184 0BE0     		b	.L65
 819              	.LVL77:
 820              	.L66:
 778:Generated_Source\PSoC5/USB_std.c ****             buffCount += USB_EP[ep].bufferSize;
 821              		.loc 1 778 0 discriminator 3
 822 0186 094D     		ldr	r5, .L71
 823 0188 5A00     		lsls	r2, r3, #1
 824 018a D018     		adds	r0, r2, r3
 825 018c 8400     		lsls	r4, r0, #2
 826 018e 2C44     		add	r4, r4, r5
 827 0190 E180     		strh	r1, [r4, #6]	@ movhi
 779:Generated_Source\PSoC5/USB_std.c ****             
 828              		.loc 1 779 0 discriminator 3
 829 0192 2289     		ldrh	r2, [r4, #8]
 830 0194 92B2     		uxth	r2, r2
 831 0196 1144     		add	r1, r1, r2
 832              	.LVL78:
 833 0198 89B2     		uxth	r1, r1
 834              	.LVL79:
 776:Generated_Source\PSoC5/USB_std.c ****         {
 835              		.loc 1 776 0 discriminator 3
 836 019a 0133     		adds	r3, r3, #1
 837              	.LVL80:
 838 019c DBB2     		uxtb	r3, r3
 839              	.LVL81:
 840              	.L65:
 776:Generated_Source\PSoC5/USB_std.c ****         {
 841              		.loc 1 776 0 is_stmt 0 discriminator 1
 842 019e 082B     		cmp	r3, #8
 843 01a0 F1D9     		bls	.L66
 789:Generated_Source\PSoC5/USB_std.c ****     }
 844              		.loc 1 789 0 is_stmt 1
 845 01a2 FFF7FEFF 		bl	USB_ConfigReg
 846              	.LVL82:
 847              	.L45:
ARM GAS  C:\Users\CHANTI~1\AppData\Local\Temp\cckZxxwg.s 			page 36


 848 01a6 BDE8F081 		pop	{r4, r5, r6, r7, r8, pc}
 849              	.L72:
 850 01aa 00BF     		.align	2
 851              	.L71:
 852 01ac 00000000 		.word	USB_EP
 853 01b0 00000000 		.word	USB_interfaceSetting
 854 01b4 00000000 		.word	USB_interfaceSettingLast
 855 01b8 00000000 		.word	USB_configuration
 856 01bc 00000000 		.word	USB_deviceStatus
 857 01c0 00000000 		.word	USB_interfaceClass
 858              		.cfi_endproc
 859              	.LFE3:
 860              		.size	USB_Config, .-USB_Config
 861              		.section	.text.USB_TerminateEP,"ax",%progbits
 862              		.align	2
 863              		.global	USB_TerminateEP
 864              		.thumb
 865              		.thumb_func
 866              		.type	USB_TerminateEP, %function
 867              	USB_TerminateEP:
 868              	.LFB8:
1053:Generated_Source\PSoC5/USB_std.c **** 
1054:Generated_Source\PSoC5/USB_std.c **** 
1055:Generated_Source\PSoC5/USB_std.c **** /*******************************************************************************
1056:Generated_Source\PSoC5/USB_std.c **** * Function Name: USB_TerminateEP
1057:Generated_Source\PSoC5/USB_std.c **** ****************************************************************************//**
1058:Generated_Source\PSoC5/USB_std.c **** *
1059:Generated_Source\PSoC5/USB_std.c **** *  This function terminates the specified USBFS endpoint.
1060:Generated_Source\PSoC5/USB_std.c **** *  This function should be used before endpoint reconfiguration.
1061:Generated_Source\PSoC5/USB_std.c **** *
1062:Generated_Source\PSoC5/USB_std.c **** *  \param ep Contains the data endpoint number.
1063:Generated_Source\PSoC5/USB_std.c **** *
1064:Generated_Source\PSoC5/USB_std.c **** *  \reentrant
1065:Generated_Source\PSoC5/USB_std.c **** *  No.
1066:Generated_Source\PSoC5/USB_std.c **** *
1067:Generated_Source\PSoC5/USB_std.c **** * \sideeffect
1068:Generated_Source\PSoC5/USB_std.c **** * 
1069:Generated_Source\PSoC5/USB_std.c **** * The device responds with a NAK for any transactions on the selected endpoint.
1070:Generated_Source\PSoC5/USB_std.c **** *   
1071:Generated_Source\PSoC5/USB_std.c **** *******************************************************************************/
1072:Generated_Source\PSoC5/USB_std.c **** void USB_TerminateEP(uint8 epNumber) 
1073:Generated_Source\PSoC5/USB_std.c **** {
 869              		.loc 1 1073 0
 870              		.cfi_startproc
 871              		@ args = 0, pretend = 0, frame = 0
 872              		@ frame_needed = 0, uses_anonymous_args = 0
 873              		@ link register save eliminated.
 874              	.LVL83:
1074:Generated_Source\PSoC5/USB_std.c ****     /* Get endpoint number */
1075:Generated_Source\PSoC5/USB_std.c ****     epNumber &= USB_DIR_UNUSED;
 875              		.loc 1 1075 0
 876 0000 00F07F00 		and	r0, r0, #127
 877              	.LVL84:
1076:Generated_Source\PSoC5/USB_std.c **** 
1077:Generated_Source\PSoC5/USB_std.c ****     if ((epNumber > USB_EP0) && (epNumber < USB_MAX_EP))
 878              		.loc 1 1077 0
 879 0004 431E     		subs	r3, r0, #1
ARM GAS  C:\Users\CHANTI~1\AppData\Local\Temp\cckZxxwg.s 			page 37


 880 0006 DBB2     		uxtb	r3, r3
 881 0008 072B     		cmp	r3, #7
 882 000a 19D8     		bhi	.L73
1078:Generated_Source\PSoC5/USB_std.c ****     {
1079:Generated_Source\PSoC5/USB_std.c ****         /* Set the endpoint Halt */
1080:Generated_Source\PSoC5/USB_std.c ****         USB_EP[epNumber].hwEpState |= USB_ENDPOINT_STATUS_HALT;
 883              		.loc 1 1080 0
 884 000c 4200     		lsls	r2, r0, #1
 885 000e 0244     		add	r2, r2, r0
 886 0010 9300     		lsls	r3, r2, #2
 887 0012 0C4A     		ldr	r2, .L76
 888 0014 1344     		add	r3, r3, r2
 889 0016 9A78     		ldrb	r2, [r3, #2]	@ zero_extendqisi2
 890 0018 42F00102 		orr	r2, r2, #1
 891 001c 9A70     		strb	r2, [r3, #2]
1081:Generated_Source\PSoC5/USB_std.c **** 
1082:Generated_Source\PSoC5/USB_std.c ****         /* Clear the data toggle */
1083:Generated_Source\PSoC5/USB_std.c ****         USB_EP[epNumber].epToggle = 0u;
 892              		.loc 1 1083 0
 893 001e 0022     		movs	r2, #0
 894 0020 DA70     		strb	r2, [r3, #3]
1084:Generated_Source\PSoC5/USB_std.c ****         USB_EP[epNumber].apiEpState = USB_NO_EVENT_ALLOWED;
 895              		.loc 1 1084 0
 896 0022 0222     		movs	r2, #2
 897 0024 5A70     		strb	r2, [r3, #1]
1085:Generated_Source\PSoC5/USB_std.c **** 
1086:Generated_Source\PSoC5/USB_std.c ****         if ((USB_EP[epNumber].addr & USB_DIR_IN) != 0u)
 898              		.loc 1 1086 0
 899 0026 1B79     		ldrb	r3, [r3, #4]	@ zero_extendqisi2
 900 0028 13F0800F 		tst	r3, #128
 901 002c 04D0     		beq	.L75
1087:Generated_Source\PSoC5/USB_std.c ****         {   
1088:Generated_Source\PSoC5/USB_std.c ****             /* IN Endpoint */
1089:Generated_Source\PSoC5/USB_std.c ****             USB_SIE_EP_BASE.sieEp[epNumber].epCr0 = USB_MODE_NAK_IN;
 902              		.loc 1 1089 0
 903 002e 0001     		lsls	r0, r0, #4
 904              	.LVL85:
 905 0030 054B     		ldr	r3, .L76+4
 906 0032 0C22     		movs	r2, #12
 907 0034 1A54     		strb	r2, [r3, r0]
 908 0036 7047     		bx	lr
 909              	.LVL86:
 910              	.L75:
1090:Generated_Source\PSoC5/USB_std.c ****         }
1091:Generated_Source\PSoC5/USB_std.c ****         else
1092:Generated_Source\PSoC5/USB_std.c ****         {
1093:Generated_Source\PSoC5/USB_std.c ****             /* OUT Endpoint */
1094:Generated_Source\PSoC5/USB_std.c ****             USB_SIE_EP_BASE.sieEp[epNumber].epCr0 = USB_MODE_NAK_OUT;
 911              		.loc 1 1094 0
 912 0038 0001     		lsls	r0, r0, #4
 913              	.LVL87:
 914 003a 034B     		ldr	r3, .L76+4
 915 003c 0822     		movs	r2, #8
 916 003e 1A54     		strb	r2, [r3, r0]
 917              	.L73:
 918 0040 7047     		bx	lr
 919              	.L77:
ARM GAS  C:\Users\CHANTI~1\AppData\Local\Temp\cckZxxwg.s 			page 38


 920 0042 00BF     		.align	2
 921              	.L76:
 922 0044 00000000 		.word	USB_EP
 923 0048 FE5F0040 		.word	1073766398
 924              		.cfi_endproc
 925              	.LFE8:
 926              		.size	USB_TerminateEP, .-USB_TerminateEP
 927              		.section	.text.USB_SetEndpointHalt,"ax",%progbits
 928              		.align	2
 929              		.global	USB_SetEndpointHalt
 930              		.thumb
 931              		.thumb_func
 932              		.type	USB_SetEndpointHalt, %function
 933              	USB_SetEndpointHalt:
 934              	.LFB9:
1095:Generated_Source\PSoC5/USB_std.c ****         }
1096:Generated_Source\PSoC5/USB_std.c ****     }
1097:Generated_Source\PSoC5/USB_std.c **** }
1098:Generated_Source\PSoC5/USB_std.c **** 
1099:Generated_Source\PSoC5/USB_std.c **** 
1100:Generated_Source\PSoC5/USB_std.c **** /*******************************************************************************
1101:Generated_Source\PSoC5/USB_std.c **** * Function Name: USB_SetEndpointHalt
1102:Generated_Source\PSoC5/USB_std.c **** ****************************************************************************//**
1103:Generated_Source\PSoC5/USB_std.c **** *
1104:Generated_Source\PSoC5/USB_std.c **** *  This routine handles set endpoint halt.
1105:Generated_Source\PSoC5/USB_std.c **** *
1106:Generated_Source\PSoC5/USB_std.c **** * \return
1107:Generated_Source\PSoC5/USB_std.c **** *  requestHandled.
1108:Generated_Source\PSoC5/USB_std.c **** *
1109:Generated_Source\PSoC5/USB_std.c **** * \reentrant
1110:Generated_Source\PSoC5/USB_std.c **** *  No.
1111:Generated_Source\PSoC5/USB_std.c **** *
1112:Generated_Source\PSoC5/USB_std.c **** *******************************************************************************/
1113:Generated_Source\PSoC5/USB_std.c **** uint8 USB_SetEndpointHalt(void) 
1114:Generated_Source\PSoC5/USB_std.c **** {
 935              		.loc 1 1114 0
 936              		.cfi_startproc
 937              		@ args = 0, pretend = 0, frame = 0
 938              		@ frame_needed = 0, uses_anonymous_args = 0
 939 0000 08B5     		push	{r3, lr}
 940              		.cfi_def_cfa_offset 8
 941              		.cfi_offset 3, -8
 942              		.cfi_offset 14, -4
 943              	.LVL88:
1115:Generated_Source\PSoC5/USB_std.c ****     uint8 requestHandled = USB_FALSE;
1116:Generated_Source\PSoC5/USB_std.c ****     uint8 ep;
1117:Generated_Source\PSoC5/USB_std.c ****     
1118:Generated_Source\PSoC5/USB_std.c ****     /* Set endpoint halt */
1119:Generated_Source\PSoC5/USB_std.c ****     ep = USB_wIndexLoReg & USB_DIR_UNUSED;
 944              		.loc 1 1119 0
 945 0002 154B     		ldr	r3, .L84
 946 0004 1B79     		ldrb	r3, [r3, #4]	@ zero_extendqisi2
 947 0006 03F07F03 		and	r3, r3, #127
 948              	.LVL89:
1120:Generated_Source\PSoC5/USB_std.c **** 
1121:Generated_Source\PSoC5/USB_std.c ****     if ((ep > USB_EP0) && (ep < USB_MAX_EP))
 949              		.loc 1 1121 0
ARM GAS  C:\Users\CHANTI~1\AppData\Local\Temp\cckZxxwg.s 			page 39


 950 000a 5A1E     		subs	r2, r3, #1
 951 000c D2B2     		uxtb	r2, r2
 952 000e 072A     		cmp	r2, #7
 953 0010 20D8     		bhi	.L82
1122:Generated_Source\PSoC5/USB_std.c ****     {
1123:Generated_Source\PSoC5/USB_std.c ****         /* Set the endpoint Halt */
1124:Generated_Source\PSoC5/USB_std.c ****         USB_EP[ep].hwEpState |= (USB_ENDPOINT_STATUS_HALT);
 954              		.loc 1 1124 0
 955 0012 5900     		lsls	r1, r3, #1
 956 0014 1944     		add	r1, r1, r3
 957 0016 8A00     		lsls	r2, r1, #2
 958 0018 1049     		ldr	r1, .L84+4
 959 001a 0A44     		add	r2, r2, r1
 960 001c 9178     		ldrb	r1, [r2, #2]	@ zero_extendqisi2
 961 001e 41F00101 		orr	r1, r1, #1
 962 0022 9170     		strb	r1, [r2, #2]
1125:Generated_Source\PSoC5/USB_std.c **** 
1126:Generated_Source\PSoC5/USB_std.c ****         /* Clear the data toggle */
1127:Generated_Source\PSoC5/USB_std.c ****         USB_EP[ep].epToggle = 0u;
 963              		.loc 1 1127 0
 964 0024 0021     		movs	r1, #0
 965 0026 D170     		strb	r1, [r2, #3]
1128:Generated_Source\PSoC5/USB_std.c ****         USB_EP[ep].apiEpState |= USB_NO_EVENT_ALLOWED;
 966              		.loc 1 1128 0
 967 0028 5178     		ldrb	r1, [r2, #1]	@ zero_extendqisi2
 968 002a 41F00201 		orr	r1, r1, #2
 969 002e 5170     		strb	r1, [r2, #1]
1129:Generated_Source\PSoC5/USB_std.c **** 
1130:Generated_Source\PSoC5/USB_std.c ****         if ((USB_EP[ep].addr & USB_DIR_IN) != 0u)
 970              		.loc 1 1130 0
 971 0030 1279     		ldrb	r2, [r2, #4]	@ zero_extendqisi2
 972 0032 12F0800F 		tst	r2, #128
 973 0036 05D0     		beq	.L80
1131:Generated_Source\PSoC5/USB_std.c ****         {
1132:Generated_Source\PSoC5/USB_std.c ****             /* IN Endpoint */
1133:Generated_Source\PSoC5/USB_std.c ****             USB_SIE_EP_BASE.sieEp[ep].epCr0 = (USB_MODE_STALL_DATA_EP | 
 974              		.loc 1 1133 0
 975 0038 1B01     		lsls	r3, r3, #4
 976              	.LVL90:
 977 003a 094A     		ldr	r2, .L84+8
 978 003c 1A44     		add	r2, r2, r3
 979 003e 8D23     		movs	r3, #141
 980 0040 9370     		strb	r3, [r2, #2]
 981 0042 04E0     		b	.L81
 982              	.LVL91:
 983              	.L80:
1134:Generated_Source\PSoC5/USB_std.c ****                                                             USB_MODE_ACK_IN);
1135:Generated_Source\PSoC5/USB_std.c ****         }
1136:Generated_Source\PSoC5/USB_std.c ****         else
1137:Generated_Source\PSoC5/USB_std.c ****         {
1138:Generated_Source\PSoC5/USB_std.c ****             /* OUT Endpoint */
1139:Generated_Source\PSoC5/USB_std.c ****             USB_SIE_EP_BASE.sieEp[ep].epCr0 = (USB_MODE_STALL_DATA_EP | 
 984              		.loc 1 1139 0
 985 0044 1B01     		lsls	r3, r3, #4
 986              	.LVL92:
 987 0046 064A     		ldr	r2, .L84+8
 988 0048 1A44     		add	r2, r2, r3
ARM GAS  C:\Users\CHANTI~1\AppData\Local\Temp\cckZxxwg.s 			page 40


 989 004a 8923     		movs	r3, #137
 990 004c 9370     		strb	r3, [r2, #2]
 991              	.L81:
1140:Generated_Source\PSoC5/USB_std.c ****                                                             USB_MODE_ACK_OUT);
1141:Generated_Source\PSoC5/USB_std.c ****         }
1142:Generated_Source\PSoC5/USB_std.c ****         requestHandled = USB_InitNoDataControlTransfer();
 992              		.loc 1 1142 0
 993 004e FFF7FEFF 		bl	USB_InitNoDataControlTransfer
 994              	.LVL93:
 995 0052 08BD     		pop	{r3, pc}
 996              	.LVL94:
 997              	.L82:
1115:Generated_Source\PSoC5/USB_std.c ****     uint8 ep;
 998              		.loc 1 1115 0
 999 0054 0020     		movs	r0, #0
 1000              	.LVL95:
1143:Generated_Source\PSoC5/USB_std.c ****     }
1144:Generated_Source\PSoC5/USB_std.c **** 
1145:Generated_Source\PSoC5/USB_std.c ****     return (requestHandled);
1146:Generated_Source\PSoC5/USB_std.c **** }
 1001              		.loc 1 1146 0
 1002 0056 08BD     		pop	{r3, pc}
 1003              	.LVL96:
 1004              	.L85:
 1005              		.align	2
 1006              	.L84:
 1007 0058 00600040 		.word	1073766400
 1008 005c 00000000 		.word	USB_EP
 1009 0060 FC5F0040 		.word	1073766396
 1010              		.cfi_endproc
 1011              	.LFE9:
 1012              		.size	USB_SetEndpointHalt, .-USB_SetEndpointHalt
 1013              		.section	.text.USB_ClearEndpointHalt,"ax",%progbits
 1014              		.align	2
 1015              		.global	USB_ClearEndpointHalt
 1016              		.thumb
 1017              		.thumb_func
 1018              		.type	USB_ClearEndpointHalt, %function
 1019              	USB_ClearEndpointHalt:
 1020              	.LFB10:
1147:Generated_Source\PSoC5/USB_std.c **** 
1148:Generated_Source\PSoC5/USB_std.c **** 
1149:Generated_Source\PSoC5/USB_std.c **** /*******************************************************************************
1150:Generated_Source\PSoC5/USB_std.c **** * Function Name: USB_ClearEndpointHalt
1151:Generated_Source\PSoC5/USB_std.c **** ****************************************************************************//**
1152:Generated_Source\PSoC5/USB_std.c **** *
1153:Generated_Source\PSoC5/USB_std.c **** *  This routine handles clear endpoint halt.
1154:Generated_Source\PSoC5/USB_std.c **** *
1155:Generated_Source\PSoC5/USB_std.c **** * \return
1156:Generated_Source\PSoC5/USB_std.c **** *  requestHandled.
1157:Generated_Source\PSoC5/USB_std.c **** *
1158:Generated_Source\PSoC5/USB_std.c **** * \reentrant
1159:Generated_Source\PSoC5/USB_std.c **** *  No.
1160:Generated_Source\PSoC5/USB_std.c **** *
1161:Generated_Source\PSoC5/USB_std.c **** *******************************************************************************/
1162:Generated_Source\PSoC5/USB_std.c **** uint8 USB_ClearEndpointHalt(void) 
1163:Generated_Source\PSoC5/USB_std.c **** {
ARM GAS  C:\Users\CHANTI~1\AppData\Local\Temp\cckZxxwg.s 			page 41


 1021              		.loc 1 1163 0
 1022              		.cfi_startproc
 1023              		@ args = 0, pretend = 0, frame = 0
 1024              		@ frame_needed = 0, uses_anonymous_args = 0
 1025              	.LVL97:
1164:Generated_Source\PSoC5/USB_std.c ****     uint8 requestHandled = USB_FALSE;
1165:Generated_Source\PSoC5/USB_std.c ****     uint8 ep;
1166:Generated_Source\PSoC5/USB_std.c **** 
1167:Generated_Source\PSoC5/USB_std.c ****     /* Clear endpoint halt */
1168:Generated_Source\PSoC5/USB_std.c ****     ep = USB_wIndexLoReg & USB_DIR_UNUSED;
 1026              		.loc 1 1168 0
 1027 0000 274B     		ldr	r3, .L95
 1028 0002 1B79     		ldrb	r3, [r3, #4]	@ zero_extendqisi2
 1029 0004 03F07F03 		and	r3, r3, #127
 1030              	.LVL98:
1169:Generated_Source\PSoC5/USB_std.c **** 
1170:Generated_Source\PSoC5/USB_std.c ****     if ((ep > USB_EP0) && (ep < USB_MAX_EP))
 1031              		.loc 1 1170 0
 1032 0008 5A1E     		subs	r2, r3, #1
 1033 000a D2B2     		uxtb	r2, r2
 1034 000c 072A     		cmp	r2, #7
 1035 000e 44D8     		bhi	.L92
1163:Generated_Source\PSoC5/USB_std.c ****     uint8 requestHandled = USB_FALSE;
 1036              		.loc 1 1163 0
 1037 0010 10B5     		push	{r4, lr}
 1038              		.cfi_def_cfa_offset 8
 1039              		.cfi_offset 4, -8
 1040              		.cfi_offset 14, -4
1171:Generated_Source\PSoC5/USB_std.c ****     {
1172:Generated_Source\PSoC5/USB_std.c ****         /* Clear the endpoint Halt */
1173:Generated_Source\PSoC5/USB_std.c ****         USB_EP[ep].hwEpState &= (uint8) ~USB_ENDPOINT_STATUS_HALT;
 1041              		.loc 1 1173 0
 1042 0012 5900     		lsls	r1, r3, #1
 1043 0014 1944     		add	r1, r1, r3
 1044 0016 8A00     		lsls	r2, r1, #2
 1045 0018 2249     		ldr	r1, .L95+4
 1046 001a 0A44     		add	r2, r2, r1
 1047 001c 9178     		ldrb	r1, [r2, #2]	@ zero_extendqisi2
 1048 001e 01F0FE01 		and	r1, r1, #254
 1049 0022 9170     		strb	r1, [r2, #2]
1174:Generated_Source\PSoC5/USB_std.c **** 
1175:Generated_Source\PSoC5/USB_std.c ****         /* Clear the data toggle */
1176:Generated_Source\PSoC5/USB_std.c ****         USB_EP[ep].epToggle = 0u;
 1050              		.loc 1 1176 0
 1051 0024 0021     		movs	r1, #0
 1052 0026 D170     		strb	r1, [r2, #3]
1177:Generated_Source\PSoC5/USB_std.c ****         
1178:Generated_Source\PSoC5/USB_std.c ****         /* Clear toggle bit for already armed packet */
1179:Generated_Source\PSoC5/USB_std.c ****         USB_SIE_EP_BASE.sieEp[ep].epCnt0 &= (uint8) ~(uint8)USB_EPX_CNT_DATA_TOGGLE;
 1053              		.loc 1 1179 0
 1054 0028 1F4C     		ldr	r4, .L95+8
 1055 002a 1801     		lsls	r0, r3, #4
 1056 002c 215C     		ldrb	r1, [r4, r0]	@ zero_extendqisi2
 1057 002e 01F07F01 		and	r1, r1, #127
 1058 0032 2154     		strb	r1, [r4, r0]
1180:Generated_Source\PSoC5/USB_std.c ****         
1181:Generated_Source\PSoC5/USB_std.c ****         /* Return API State as it was defined before */
ARM GAS  C:\Users\CHANTI~1\AppData\Local\Temp\cckZxxwg.s 			page 42


1182:Generated_Source\PSoC5/USB_std.c ****         USB_EP[ep].apiEpState &= (uint8) ~USB_NO_EVENT_ALLOWED;
 1059              		.loc 1 1182 0
 1060 0034 5178     		ldrb	r1, [r2, #1]	@ zero_extendqisi2
 1061 0036 01F0FD01 		and	r1, r1, #253
 1062 003a 5170     		strb	r1, [r2, #1]
1183:Generated_Source\PSoC5/USB_std.c **** 
1184:Generated_Source\PSoC5/USB_std.c ****         if ((USB_EP[ep].addr & USB_DIR_IN) != 0u)
 1063              		.loc 1 1184 0
 1064 003c 1279     		ldrb	r2, [r2, #4]	@ zero_extendqisi2
 1065 003e 12F0800F 		tst	r2, #128
 1066 0042 13D0     		beq	.L88
1185:Generated_Source\PSoC5/USB_std.c ****         {
1186:Generated_Source\PSoC5/USB_std.c ****             /* IN Endpoint */
1187:Generated_Source\PSoC5/USB_std.c ****             if(USB_EP[ep].apiEpState == USB_IN_BUFFER_EMPTY)
 1067              		.loc 1 1187 0
 1068 0044 03EB4301 		add	r1, r3, r3, lsl #1
 1069 0048 8A00     		lsls	r2, r1, #2
 1070 004a 1649     		ldr	r1, .L95+4
 1071 004c 0A44     		add	r2, r2, r1
 1072 004e 5278     		ldrb	r2, [r2, #1]	@ zero_extendqisi2
 1073 0050 D2B2     		uxtb	r2, r2
 1074 0052 012A     		cmp	r2, #1
 1075 0054 04D1     		bne	.L89
1188:Generated_Source\PSoC5/USB_std.c ****             {       
1189:Generated_Source\PSoC5/USB_std.c ****                 /* Wait for next packet from application */
1190:Generated_Source\PSoC5/USB_std.c ****                 USB_SIE_EP_BASE.sieEp[ep].epCr0 = USB_MODE_NAK_IN;
 1076              		.loc 1 1190 0
 1077 0056 2246     		mov	r2, r4
 1078 0058 0244     		add	r2, r2, r0
 1079 005a 0C23     		movs	r3, #12
 1080              	.LVL99:
 1081 005c 9370     		strb	r3, [r2, #2]
 1082 005e 19E0     		b	.L90
 1083              	.LVL100:
 1084              	.L89:
1191:Generated_Source\PSoC5/USB_std.c ****             }
1192:Generated_Source\PSoC5/USB_std.c ****             else    /* Continue armed transfer */
1193:Generated_Source\PSoC5/USB_std.c ****             {
1194:Generated_Source\PSoC5/USB_std.c ****                 USB_SIE_EP_BASE.sieEp[ep].epCr0 = USB_MODE_ACK_IN;
 1085              		.loc 1 1194 0
 1086 0060 1B01     		lsls	r3, r3, #4
 1087              	.LVL101:
 1088 0062 114A     		ldr	r2, .L95+8
 1089 0064 1A44     		add	r2, r2, r3
 1090 0066 0D23     		movs	r3, #13
 1091 0068 9370     		strb	r3, [r2, #2]
 1092 006a 13E0     		b	.L90
 1093              	.LVL102:
 1094              	.L88:
1195:Generated_Source\PSoC5/USB_std.c ****             }
1196:Generated_Source\PSoC5/USB_std.c ****         }
1197:Generated_Source\PSoC5/USB_std.c ****         else
1198:Generated_Source\PSoC5/USB_std.c ****         {
1199:Generated_Source\PSoC5/USB_std.c ****             /* OUT Endpoint */
1200:Generated_Source\PSoC5/USB_std.c ****             if (USB_EP[ep].apiEpState == USB_OUT_BUFFER_FULL)
 1095              		.loc 1 1200 0
 1096 006c 03EB4301 		add	r1, r3, r3, lsl #1
ARM GAS  C:\Users\CHANTI~1\AppData\Local\Temp\cckZxxwg.s 			page 43


 1097 0070 8A00     		lsls	r2, r1, #2
 1098 0072 0C49     		ldr	r1, .L95+4
 1099 0074 0A44     		add	r2, r2, r1
 1100 0076 5278     		ldrb	r2, [r2, #1]	@ zero_extendqisi2
 1101 0078 D2B2     		uxtb	r2, r2
 1102 007a 012A     		cmp	r2, #1
 1103 007c 05D1     		bne	.L91
1201:Generated_Source\PSoC5/USB_std.c ****             {       
1202:Generated_Source\PSoC5/USB_std.c ****                 /* Allow application to read full buffer */
1203:Generated_Source\PSoC5/USB_std.c ****                 USB_SIE_EP_BASE.sieEp[ep].epCr0 = USB_MODE_NAK_OUT;
 1104              		.loc 1 1203 0
 1105 007e 1B01     		lsls	r3, r3, #4
 1106              	.LVL103:
 1107 0080 094A     		ldr	r2, .L95+8
 1108 0082 1A44     		add	r2, r2, r3
 1109 0084 0823     		movs	r3, #8
 1110 0086 9370     		strb	r3, [r2, #2]
 1111 0088 04E0     		b	.L90
 1112              	.LVL104:
 1113              	.L91:
1204:Generated_Source\PSoC5/USB_std.c ****             }
1205:Generated_Source\PSoC5/USB_std.c ****             else    /* Mark endpoint as empty, so it will be reloaded */
1206:Generated_Source\PSoC5/USB_std.c ****             {
1207:Generated_Source\PSoC5/USB_std.c ****                 USB_SIE_EP_BASE.sieEp[ep].epCr0 = USB_MODE_ACK_OUT;
 1114              		.loc 1 1207 0
 1115 008a 1B01     		lsls	r3, r3, #4
 1116              	.LVL105:
 1117 008c 064A     		ldr	r2, .L95+8
 1118 008e 1A44     		add	r2, r2, r3
 1119 0090 0923     		movs	r3, #9
 1120 0092 9370     		strb	r3, [r2, #2]
 1121              	.L90:
1208:Generated_Source\PSoC5/USB_std.c ****             }
1209:Generated_Source\PSoC5/USB_std.c ****         }
1210:Generated_Source\PSoC5/USB_std.c ****         
1211:Generated_Source\PSoC5/USB_std.c ****         requestHandled = USB_InitNoDataControlTransfer();
 1122              		.loc 1 1211 0
 1123 0094 FFF7FEFF 		bl	USB_InitNoDataControlTransfer
 1124              	.LVL106:
 1125 0098 10BD     		pop	{r4, pc}
 1126              	.LVL107:
 1127              	.L92:
 1128              		.cfi_def_cfa_offset 0
 1129              		.cfi_restore 4
 1130              		.cfi_restore 14
1164:Generated_Source\PSoC5/USB_std.c ****     uint8 ep;
 1131              		.loc 1 1164 0
 1132 009a 0020     		movs	r0, #0
 1133 009c 7047     		bx	lr
 1134              	.L96:
 1135 009e 00BF     		.align	2
 1136              	.L95:
 1137 00a0 00600040 		.word	1073766400
 1138 00a4 00000000 		.word	USB_EP
 1139 00a8 FC5F0040 		.word	1073766396
 1140              		.cfi_endproc
 1141              	.LFE10:
ARM GAS  C:\Users\CHANTI~1\AppData\Local\Temp\cckZxxwg.s 			page 44


 1142              		.size	USB_ClearEndpointHalt, .-USB_ClearEndpointHalt
 1143              		.section	.text.USB_ValidateAlternateSetting,"ax",%progbits
 1144              		.align	2
 1145              		.global	USB_ValidateAlternateSetting
 1146              		.thumb
 1147              		.thumb_func
 1148              		.type	USB_ValidateAlternateSetting, %function
 1149              	USB_ValidateAlternateSetting:
 1150              	.LFB11:
1212:Generated_Source\PSoC5/USB_std.c ****     }
1213:Generated_Source\PSoC5/USB_std.c **** 
1214:Generated_Source\PSoC5/USB_std.c ****     return(requestHandled);
1215:Generated_Source\PSoC5/USB_std.c **** }
1216:Generated_Source\PSoC5/USB_std.c **** 
1217:Generated_Source\PSoC5/USB_std.c **** 
1218:Generated_Source\PSoC5/USB_std.c **** /*******************************************************************************
1219:Generated_Source\PSoC5/USB_std.c **** * Function Name: USB_ValidateAlternateSetting
1220:Generated_Source\PSoC5/USB_std.c **** ****************************************************************************//**
1221:Generated_Source\PSoC5/USB_std.c **** *
1222:Generated_Source\PSoC5/USB_std.c **** *  Validates (and records) a SET INTERFACE request.
1223:Generated_Source\PSoC5/USB_std.c **** *
1224:Generated_Source\PSoC5/USB_std.c **** * \return
1225:Generated_Source\PSoC5/USB_std.c **** *  requestHandled.
1226:Generated_Source\PSoC5/USB_std.c **** *
1227:Generated_Source\PSoC5/USB_std.c **** * \reentrant
1228:Generated_Source\PSoC5/USB_std.c **** *  No.
1229:Generated_Source\PSoC5/USB_std.c **** *
1230:Generated_Source\PSoC5/USB_std.c **** *******************************************************************************/
1231:Generated_Source\PSoC5/USB_std.c **** uint8 USB_ValidateAlternateSetting(void) 
1232:Generated_Source\PSoC5/USB_std.c **** {
 1151              		.loc 1 1232 0
 1152              		.cfi_startproc
 1153              		@ args = 0, pretend = 0, frame = 0
 1154              		@ frame_needed = 0, uses_anonymous_args = 0
 1155 0000 10B5     		push	{r4, lr}
 1156              		.cfi_def_cfa_offset 8
 1157              		.cfi_offset 4, -8
 1158              		.cfi_offset 14, -4
 1159              	.LVL108:
1233:Generated_Source\PSoC5/USB_std.c ****     uint8 requestHandled = USB_FALSE;
1234:Generated_Source\PSoC5/USB_std.c ****     
1235:Generated_Source\PSoC5/USB_std.c ****     uint8 interfaceNum;
1236:Generated_Source\PSoC5/USB_std.c ****     uint8 curInterfacesNum;
1237:Generated_Source\PSoC5/USB_std.c ****     const T_USB_LUT CYCODE *pTmp;
1238:Generated_Source\PSoC5/USB_std.c ****     
1239:Generated_Source\PSoC5/USB_std.c ****     /* Get interface number from the request. */
1240:Generated_Source\PSoC5/USB_std.c ****     interfaceNum = (uint8) USB_wIndexLoReg;
 1160              		.loc 1 1240 0
 1161 0002 0E4B     		ldr	r3, .L102
 1162 0004 1C79     		ldrb	r4, [r3, #4]	@ zero_extendqisi2
 1163 0006 E4B2     		uxtb	r4, r4
 1164              	.LVL109:
1241:Generated_Source\PSoC5/USB_std.c ****     
1242:Generated_Source\PSoC5/USB_std.c ****     /* Get number of interfaces for current configuration. */
1243:Generated_Source\PSoC5/USB_std.c ****     pTmp = USB_GetConfigTablePtr(USB_configuration - 1u);
 1165              		.loc 1 1243 0
 1166 0008 0D4B     		ldr	r3, .L102+4
ARM GAS  C:\Users\CHANTI~1\AppData\Local\Temp\cckZxxwg.s 			page 45


 1167 000a 1878     		ldrb	r0, [r3]	@ zero_extendqisi2
 1168 000c 0138     		subs	r0, r0, #1
 1169 000e C0B2     		uxtb	r0, r0
 1170 0010 FFF7FEFF 		bl	USB_GetConfigTablePtr
 1171              	.LVL110:
1244:Generated_Source\PSoC5/USB_std.c ****     curInterfacesNum  = ((const uint8 *) pTmp->p_list)[USB_CONFIG_DESCR_NUM_INTERFACES];
 1172              		.loc 1 1244 0
 1173 0014 4368     		ldr	r3, [r0, #4]
 1174 0016 1B79     		ldrb	r3, [r3, #4]	@ zero_extendqisi2
 1175              	.LVL111:
1245:Generated_Source\PSoC5/USB_std.c **** 
1246:Generated_Source\PSoC5/USB_std.c ****     /* Validate that interface number is within range. */
1247:Generated_Source\PSoC5/USB_std.c ****     if ((interfaceNum <= curInterfacesNum) || (interfaceNum <= USB_MAX_INTERFACES_NUMBER))
 1176              		.loc 1 1247 0
 1177 0018 9C42     		cmp	r4, r3
 1178 001a 01D9     		bls	.L98
 1179              		.loc 1 1247 0 is_stmt 0 discriminator 1
 1180 001c 012C     		cmp	r4, #1
 1181 001e 0AD8     		bhi	.L100
 1182              	.L98:
1248:Generated_Source\PSoC5/USB_std.c ****     {
1249:Generated_Source\PSoC5/USB_std.c ****         /* Save current and new alternate settings (come with request) to make 
1250:Generated_Source\PSoC5/USB_std.c ****         * desicion about following endpoint re-configuration.
1251:Generated_Source\PSoC5/USB_std.c ****         */
1252:Generated_Source\PSoC5/USB_std.c ****         USB_interfaceSettingLast[interfaceNum] = USB_interfaceSetting[interfaceNum];
 1183              		.loc 1 1252 0 is_stmt 1
 1184 0020 084A     		ldr	r2, .L102+8
 1185 0022 135D     		ldrb	r3, [r2, r4]	@ zero_extendqisi2
 1186              	.LVL112:
 1187 0024 DBB2     		uxtb	r3, r3
 1188 0026 0849     		ldr	r1, .L102+12
 1189 0028 0B55     		strb	r3, [r1, r4]
1253:Generated_Source\PSoC5/USB_std.c ****         USB_interfaceSetting[interfaceNum]     = (uint8) USB_wValueLoReg;
 1190              		.loc 1 1253 0
 1191 002a 044B     		ldr	r3, .L102
 1192 002c 9B78     		ldrb	r3, [r3, #2]	@ zero_extendqisi2
 1193 002e DBB2     		uxtb	r3, r3
 1194 0030 1355     		strb	r3, [r2, r4]
 1195              	.LVL113:
1254:Generated_Source\PSoC5/USB_std.c ****         
1255:Generated_Source\PSoC5/USB_std.c ****         requestHandled = USB_TRUE;
 1196              		.loc 1 1255 0
 1197 0032 0120     		movs	r0, #1
 1198              	.LVL114:
 1199 0034 10BD     		pop	{r4, pc}
 1200              	.LVL115:
 1201              	.L100:
1233:Generated_Source\PSoC5/USB_std.c ****     
 1202              		.loc 1 1233 0
 1203 0036 0020     		movs	r0, #0
 1204              	.LVL116:
1256:Generated_Source\PSoC5/USB_std.c ****     }
1257:Generated_Source\PSoC5/USB_std.c **** 
1258:Generated_Source\PSoC5/USB_std.c ****     return (requestHandled);
1259:Generated_Source\PSoC5/USB_std.c **** }
 1205              		.loc 1 1259 0
 1206 0038 10BD     		pop	{r4, pc}
ARM GAS  C:\Users\CHANTI~1\AppData\Local\Temp\cckZxxwg.s 			page 46


 1207              	.LVL117:
 1208              	.L103:
 1209 003a 00BF     		.align	2
 1210              	.L102:
 1211 003c 00600040 		.word	1073766400
 1212 0040 00000000 		.word	USB_configuration
 1213 0044 00000000 		.word	USB_interfaceSetting
 1214 0048 00000000 		.word	USB_interfaceSettingLast
 1215              		.cfi_endproc
 1216              	.LFE11:
 1217              		.size	USB_ValidateAlternateSetting, .-USB_ValidateAlternateSetting
 1218              		.section	.text.USB_HandleStandardRqst,"ax",%progbits
 1219              		.align	2
 1220              		.global	USB_HandleStandardRqst
 1221              		.thumb
 1222              		.thumb_func
 1223              		.type	USB_HandleStandardRqst, %function
 1224              	USB_HandleStandardRqst:
 1225              	.LFB0:
  85:Generated_Source\PSoC5/USB_std.c ****     uint8 requestHandled = USB_FALSE;
 1226              		.loc 1 85 0
 1227              		.cfi_startproc
 1228              		@ args = 0, pretend = 0, frame = 0
 1229              		@ frame_needed = 0, uses_anonymous_args = 0
 1230 0000 10B5     		push	{r4, lr}
 1231              		.cfi_def_cfa_offset 8
 1232              		.cfi_offset 4, -8
 1233              		.cfi_offset 14, -4
 1234              	.LVL118:
  89:Generated_Source\PSoC5/USB_std.c **** 
 1235              		.loc 1 89 0
 1236 0002 9A4B     		ldr	r3, .L151
 1237 0004 1B78     		ldrb	r3, [r3]	@ zero_extendqisi2
 1238 0006 DBB2     		uxtb	r3, r3
 1239              	.LVL119:
 102:Generated_Source\PSoC5/USB_std.c **** 
 1240              		.loc 1 102 0
 1241 0008 0021     		movs	r1, #0
 1242 000a 994A     		ldr	r2, .L151+4
 1243 000c 1180     		strh	r1, [r2]	@ movhi
 104:Generated_Source\PSoC5/USB_std.c ****     {
 1244              		.loc 1 104 0
 1245 000e 13F0800F 		tst	r3, #128
 1246 0012 79D0     		beq	.L105
 107:Generated_Source\PSoC5/USB_std.c ****         {
 1247              		.loc 1 107 0
 1248 0014 954A     		ldr	r2, .L151
 1249 0016 5278     		ldrb	r2, [r2, #1]	@ zero_extendqisi2
 1250 0018 D2B2     		uxtb	r2, r2
 1251 001a 0A2A     		cmp	r2, #10
 1252 001c 00F21D81 		bhi	.L133
 1253 0020 DFE812F0 		tbh	[pc, r2, lsl #1]
 1254              	.L108:
 1255 0024 3600     		.2byte	(.L107-.L108)/2
 1256 0026 1B01     		.2byte	(.L133-.L108)/2
 1257 0028 1B01     		.2byte	(.L133-.L108)/2
 1258 002a 1B01     		.2byte	(.L133-.L108)/2
ARM GAS  C:\Users\CHANTI~1\AppData\Local\Temp\cckZxxwg.s 			page 47


 1259 002c 1B01     		.2byte	(.L133-.L108)/2
 1260 002e 1B01     		.2byte	(.L133-.L108)/2
 1261 0030 0B00     		.2byte	(.L109-.L108)/2
 1262 0032 1B01     		.2byte	(.L133-.L108)/2
 1263 0034 5F00     		.2byte	(.L110-.L108)/2
 1264 0036 1B01     		.2byte	(.L133-.L108)/2
 1265 0038 6700     		.2byte	(.L111-.L108)/2
 1266              		.p2align 1
 1267              	.L109:
 110:Generated_Source\PSoC5/USB_std.c ****                 {
 1268              		.loc 1 110 0
 1269 003a 8C4B     		ldr	r3, .L151
 1270              	.LVL120:
 1271 003c DB78     		ldrb	r3, [r3, #3]	@ zero_extendqisi2
 1272 003e DBB2     		uxtb	r3, r3
 1273 0040 012B     		cmp	r3, #1
 1274 0042 09D1     		bne	.L112
 112:Generated_Source\PSoC5/USB_std.c ****                     USB_currentTD.pData = (volatile uint8 *)pTmp->p_list;
 1275              		.loc 1 112 0
 1276 0044 FFF7FEFF 		bl	USB_GetDeviceTablePtr
 1277              	.LVL121:
 113:Generated_Source\PSoC5/USB_std.c ****                     USB_currentTD.count = USB_DEVICE_DESCR_LENGTH;
 1278              		.loc 1 113 0
 1279 0048 4268     		ldr	r2, [r0, #4]
 1280 004a 894B     		ldr	r3, .L151+4
 1281 004c 5A60     		str	r2, [r3, #4]
 114:Generated_Source\PSoC5/USB_std.c ****                     
 1282              		.loc 1 114 0
 1283 004e 1222     		movs	r2, #18
 1284 0050 1A80     		strh	r2, [r3]	@ movhi
 116:Generated_Source\PSoC5/USB_std.c ****                 }
 1285              		.loc 1 116 0
 1286 0052 FFF7FEFF 		bl	USB_InitControlRead
 1287              	.LVL122:
 1288 0056 10BD     		pop	{r4, pc}
 1289              	.LVL123:
 1290              	.L112:
 118:Generated_Source\PSoC5/USB_std.c ****                 {
 1291              		.loc 1 118 0
 1292 0058 844B     		ldr	r3, .L151
 1293 005a DB78     		ldrb	r3, [r3, #3]	@ zero_extendqisi2
 1294 005c DBB2     		uxtb	r3, r3
 1295 005e 022B     		cmp	r3, #2
 1296 0060 13D1     		bne	.L113
 120:Generated_Source\PSoC5/USB_std.c ****                     
 1297              		.loc 1 120 0
 1298 0062 824B     		ldr	r3, .L151
 1299 0064 9878     		ldrb	r0, [r3, #2]	@ zero_extendqisi2
 1300 0066 FFF7FEFF 		bl	USB_GetConfigTablePtr
 1301              	.LVL124:
 123:Generated_Source\PSoC5/USB_std.c ****                     {
 1302              		.loc 1 123 0
 1303 006a 0028     		cmp	r0, #0
 1304 006c 00F0F780 		beq	.L134
 125:Generated_Source\PSoC5/USB_std.c ****                         USB_currentTD.count = (uint16)((uint16)(USB_currentTD.pData)[USB_CONFIG_DES
 1305              		.loc 1 125 0
 1306 0070 4268     		ldr	r2, [r0, #4]
ARM GAS  C:\Users\CHANTI~1\AppData\Local\Temp\cckZxxwg.s 			page 48


 1307 0072 7F4B     		ldr	r3, .L151+4
 1308 0074 5A60     		str	r2, [r3, #4]
 126:Generated_Source\PSoC5/USB_std.c ****                                                                             (USB_currentTD.pData)[U
 1309              		.loc 1 126 0
 1310 0076 5A68     		ldr	r2, [r3, #4]
 1311 0078 D178     		ldrb	r1, [r2, #3]	@ zero_extendqisi2
 127:Generated_Source\PSoC5/USB_std.c ****                         requestHandled  = USB_InitControlRead();
 1312              		.loc 1 127 0
 1313 007a 5A68     		ldr	r2, [r3, #4]
 1314 007c 9278     		ldrb	r2, [r2, #2]	@ zero_extendqisi2
 126:Generated_Source\PSoC5/USB_std.c ****                                                                             (USB_currentTD.pData)[U
 1315              		.loc 1 126 0
 1316 007e 42EA0122 		orr	r2, r2, r1, lsl #8
 1317 0082 1A80     		strh	r2, [r3]	@ movhi
 128:Generated_Source\PSoC5/USB_std.c ****                     }
 1318              		.loc 1 128 0
 1319 0084 FFF7FEFF 		bl	USB_InitControlRead
 1320              	.LVL125:
 1321 0088 10BD     		pop	{r4, pc}
 1322              	.LVL126:
 1323              	.L113:
 209:Generated_Source\PSoC5/USB_std.c ****                 }
 1324              		.loc 1 209 0
 1325 008a FFF7FEFF 		bl	USB_DispatchClassRqst
 1326              	.LVL127:
 1327 008e 10BD     		pop	{r4, pc}
 1328              	.LVL128:
 1329              	.L107:
 214:Generated_Source\PSoC5/USB_std.c ****                 {
 1330              		.loc 1 214 0
 1331 0090 13F00303 		ands	r3, r3, #3
 1332              	.LVL129:
 1333 0094 17D0     		beq	.L114
 1334 0096 022B     		cmp	r3, #2
 1335 0098 40F0E380 		bne	.L147
 217:Generated_Source\PSoC5/USB_std.c ****                         USB_tBuffer[0u]     = USB_EP[USB_wIndexLoReg & USB_DIR_UNUSED].hwEpState;
 1336              		.loc 1 217 0
 1337 009c 7449     		ldr	r1, .L151+4
 1338 009e 0B80     		strh	r3, [r1]	@ movhi
 218:Generated_Source\PSoC5/USB_std.c ****                         USB_tBuffer[1u]     = 0u;
 1339              		.loc 1 218 0
 1340 00a0 724B     		ldr	r3, .L151
 1341 00a2 1B79     		ldrb	r3, [r3, #4]	@ zero_extendqisi2
 1342 00a4 03F07F03 		and	r3, r3, #127
 1343 00a8 03EB4303 		add	r3, r3, r3, lsl #1
 1344 00ac 9A00     		lsls	r2, r3, #2
 1345 00ae 714B     		ldr	r3, .L151+8
 1346 00b0 1A44     		add	r2, r2, r3
 1347 00b2 9278     		ldrb	r2, [r2, #2]	@ zero_extendqisi2
 1348 00b4 D2B2     		uxtb	r2, r2
 1349 00b6 704B     		ldr	r3, .L151+12
 1350 00b8 1A70     		strb	r2, [r3]
 219:Generated_Source\PSoC5/USB_std.c ****                         USB_currentTD.pData = &USB_tBuffer[0u];
 1351              		.loc 1 219 0
 1352 00ba 0022     		movs	r2, #0
 1353 00bc 5A70     		strb	r2, [r3, #1]
 220:Generated_Source\PSoC5/USB_std.c ****                         
ARM GAS  C:\Users\CHANTI~1\AppData\Local\Temp\cckZxxwg.s 			page 49


 1354              		.loc 1 220 0
 1355 00be 4B60     		str	r3, [r1, #4]
 222:Generated_Source\PSoC5/USB_std.c ****                         break;
 1356              		.loc 1 222 0
 1357 00c0 FFF7FEFF 		bl	USB_InitControlRead
 1358              	.LVL130:
 223:Generated_Source\PSoC5/USB_std.c ****                     case USB_RQST_RCPT_DEV:
 1359              		.loc 1 223 0
 1360 00c4 10BD     		pop	{r4, pc}
 1361              	.LVL131:
 1362              	.L114:
 225:Generated_Source\PSoC5/USB_std.c ****                         USB_tBuffer[0u]     = USB_deviceStatus;
 1363              		.loc 1 225 0
 1364 00c6 6A49     		ldr	r1, .L151+4
 1365 00c8 0223     		movs	r3, #2
 1366 00ca 0B80     		strh	r3, [r1]	@ movhi
 226:Generated_Source\PSoC5/USB_std.c ****                         USB_tBuffer[1u]     = 0u;
 1367              		.loc 1 226 0
 1368 00cc 6B4B     		ldr	r3, .L151+16
 1369 00ce 1A78     		ldrb	r2, [r3]	@ zero_extendqisi2
 1370 00d0 D2B2     		uxtb	r2, r2
 1371 00d2 694B     		ldr	r3, .L151+12
 1372 00d4 1A70     		strb	r2, [r3]
 227:Generated_Source\PSoC5/USB_std.c ****                         USB_currentTD.pData = &USB_tBuffer[0u];
 1373              		.loc 1 227 0
 1374 00d6 0022     		movs	r2, #0
 1375 00d8 5A70     		strb	r2, [r3, #1]
 228:Generated_Source\PSoC5/USB_std.c ****                         
 1376              		.loc 1 228 0
 1377 00da 4B60     		str	r3, [r1, #4]
 230:Generated_Source\PSoC5/USB_std.c ****                         break;
 1378              		.loc 1 230 0
 1379 00dc FFF7FEFF 		bl	USB_InitControlRead
 1380              	.LVL132:
 231:Generated_Source\PSoC5/USB_std.c ****                     default:    /* requestHandled is initialized as FALSE by default */
 1381              		.loc 1 231 0
 1382 00e0 10BD     		pop	{r4, pc}
 1383              	.LVL133:
 1384              	.L110:
 238:Generated_Source\PSoC5/USB_std.c ****                 USB_currentTD.pData = (volatile uint8 *) &USB_configuration;
 1385              		.loc 1 238 0
 1386 00e2 634B     		ldr	r3, .L151+4
 1387              	.LVL134:
 1388 00e4 0122     		movs	r2, #1
 1389 00e6 1A80     		strh	r2, [r3]	@ movhi
 239:Generated_Source\PSoC5/USB_std.c ****                 requestHandled  = USB_InitControlRead();
 1390              		.loc 1 239 0
 1391 00e8 654A     		ldr	r2, .L151+20
 1392 00ea 5A60     		str	r2, [r3, #4]
 240:Generated_Source\PSoC5/USB_std.c ****                 break;
 1393              		.loc 1 240 0
 1394 00ec FFF7FEFF 		bl	USB_InitControlRead
 1395              	.LVL135:
 241:Generated_Source\PSoC5/USB_std.c ****                 
 1396              		.loc 1 241 0
 1397 00f0 10BD     		pop	{r4, pc}
 1398              	.LVL136:
ARM GAS  C:\Users\CHANTI~1\AppData\Local\Temp\cckZxxwg.s 			page 50


 1399              	.L111:
 244:Generated_Source\PSoC5/USB_std.c ****                 USB_currentTD.pData = (volatile uint8 *) &USB_interfaceSetting[USB_wIndexLoReg];
 1400              		.loc 1 244 0
 1401 00f2 5F4A     		ldr	r2, .L151+4
 1402 00f4 0123     		movs	r3, #1
 1403              	.LVL137:
 1404 00f6 1380     		strh	r3, [r2]	@ movhi
 245:Generated_Source\PSoC5/USB_std.c ****                 requestHandled  = USB_InitControlRead();
 1405              		.loc 1 245 0
 1406 00f8 5C4B     		ldr	r3, .L151
 1407 00fa 1B79     		ldrb	r3, [r3, #4]	@ zero_extendqisi2
 1408 00fc 6149     		ldr	r1, .L151+24
 1409 00fe 0B44     		add	r3, r3, r1
 1410 0100 5360     		str	r3, [r2, #4]
 246:Generated_Source\PSoC5/USB_std.c ****                 break;
 1411              		.loc 1 246 0
 1412 0102 FFF7FEFF 		bl	USB_InitControlRead
 1413              	.LVL138:
 247:Generated_Source\PSoC5/USB_std.c ****                 
 1414              		.loc 1 247 0
 1415 0106 10BD     		pop	{r4, pc}
 1416              	.LVL139:
 1417              	.L105:
 256:Generated_Source\PSoC5/USB_std.c ****         {
 1418              		.loc 1 256 0
 1419 0108 584A     		ldr	r2, .L151
 1420 010a 5278     		ldrb	r2, [r2, #1]	@ zero_extendqisi2
 1421 010c 013A     		subs	r2, r2, #1
 1422 010e 0A2A     		cmp	r2, #10
 1423 0110 00F2A980 		bhi	.L136
 1424 0114 DFE802F0 		tbb	[pc, r2]
 1425              	.L117:
 1426 0118 47       		.byte	(.L116-.L117)/2
 1427 0119 A7       		.byte	(.L136-.L117)/2
 1428 011a 74       		.byte	(.L118-.L117)/2
 1429 011b A7       		.byte	(.L136-.L117)/2
 1430 011c 06       		.byte	(.L119-.L117)/2
 1431 011d A7       		.byte	(.L136-.L117)/2
 1432 011e A7       		.byte	(.L136-.L117)/2
 1433 011f A7       		.byte	(.L136-.L117)/2
 1434 0120 0E       		.byte	(.L120-.L117)/2
 1435 0121 A7       		.byte	(.L136-.L117)/2
 1436 0122 2B       		.byte	(.L121-.L117)/2
 1437 0123 00       		.p2align 1
 1438              	.L119:
 260:Generated_Source\PSoC5/USB_std.c ****                 requestHandled = USB_InitNoDataControlTransfer();
 1439              		.loc 1 260 0
 1440 0124 514B     		ldr	r3, .L151
 1441              	.LVL140:
 1442 0126 9B78     		ldrb	r3, [r3, #2]	@ zero_extendqisi2
 1443 0128 DBB2     		uxtb	r3, r3
 1444 012a 574A     		ldr	r2, .L151+28
 1445 012c 1370     		strb	r3, [r2]
 261:Generated_Source\PSoC5/USB_std.c ****                 break;
 1446              		.loc 1 261 0
 1447 012e FFF7FEFF 		bl	USB_InitNoDataControlTransfer
 1448              	.LVL141:
ARM GAS  C:\Users\CHANTI~1\AppData\Local\Temp\cckZxxwg.s 			page 51


 262:Generated_Source\PSoC5/USB_std.c ****                 
 1449              		.loc 1 262 0
 1450 0132 10BD     		pop	{r4, pc}
 1451              	.LVL142:
 1452              	.L120:
 265:Generated_Source\PSoC5/USB_std.c ****                 
 1453              		.loc 1 265 0
 1454 0134 4D4B     		ldr	r3, .L151
 1455              	.LVL143:
 1456 0136 9B78     		ldrb	r3, [r3, #2]	@ zero_extendqisi2
 1457              	.LVL144:
 268:Generated_Source\PSoC5/USB_std.c ****                 {
 1458              		.loc 1 268 0
 1459 0138 03F0FF04 		and	r4, r3, #255
 1460 013c 1BB1     		cbz	r3, .L122
 270:Generated_Source\PSoC5/USB_std.c ****                 }
 1461              		.loc 1 270 0
 1462 013e 601E     		subs	r0, r4, #1
 1463 0140 C0B2     		uxtb	r0, r0
 1464 0142 FFF7FEFF 		bl	USB_GetConfigTablePtr
 1465              	.LVL145:
 1466              	.L122:
 274:Generated_Source\PSoC5/USB_std.c ****                 {
 1467              		.loc 1 274 0
 1468 0146 04B1     		cbz	r4, .L123
 274:Generated_Source\PSoC5/USB_std.c ****                 {
 1469              		.loc 1 274 0 is_stmt 0 discriminator 1
 1470 0148 10B9     		cbnz	r0, .L124
 1471              	.L123:
 274:Generated_Source\PSoC5/USB_std.c ****                 {
 1472              		.loc 1 274 0 discriminator 3
 1473 014a 002C     		cmp	r4, #0
 1474 014c 40F0A680 		bne	.L137
 1475              	.L124:
 277:Generated_Source\PSoC5/USB_std.c ****                     {
 1476              		.loc 1 277 0 is_stmt 1
 1477 0150 4B4B     		ldr	r3, .L151+20
 1478 0152 1B78     		ldrb	r3, [r3]	@ zero_extendqisi2
 1479 0154 DBB2     		uxtb	r3, r3
 1480 0156 9C42     		cmp	r4, r3
 1481 0158 06D0     		beq	.L125
 279:Generated_Source\PSoC5/USB_std.c ****                         USB_configurationChanged = USB_TRUE;
 1482              		.loc 1 279 0
 1483 015a 494B     		ldr	r3, .L151+20
 1484 015c 1C70     		strb	r4, [r3]
 280:Generated_Source\PSoC5/USB_std.c ****                         USB_Config(USB_TRUE);
 1485              		.loc 1 280 0
 1486 015e 0120     		movs	r0, #1
 1487              	.LVL146:
 1488 0160 4A4B     		ldr	r3, .L151+32
 1489 0162 1870     		strb	r0, [r3]
 281:Generated_Source\PSoC5/USB_std.c ****                     }
 1490              		.loc 1 281 0
 1491 0164 FFF7FEFF 		bl	USB_Config
 1492              	.LVL147:
 1493              	.L125:
 283:Generated_Source\PSoC5/USB_std.c ****                 }
ARM GAS  C:\Users\CHANTI~1\AppData\Local\Temp\cckZxxwg.s 			page 52


 1494              		.loc 1 283 0
 1495 0168 FFF7FEFF 		bl	USB_InitNoDataControlTransfer
 1496              	.LVL148:
 1497 016c 10BD     		pop	{r4, pc}
 1498              	.LVL149:
 1499              	.L121:
 288:Generated_Source\PSoC5/USB_std.c ****                 {
 1500              		.loc 1 288 0
 1501 016e FFF7FEFF 		bl	USB_ValidateAlternateSetting
 1502              	.LVL150:
 1503 0172 0028     		cmp	r0, #0
 1504 0174 00F09480 		beq	.L138
 291:Generated_Source\PSoC5/USB_std.c ****                     USB_interfaceNumber = (uint8) USB_wIndexLoReg;
 1505              		.loc 1 291 0
 1506 0178 3C4A     		ldr	r2, .L151
 1507 017a 1379     		ldrb	r3, [r2, #4]	@ zero_extendqisi2
 1508 017c DBB2     		uxtb	r3, r3
 1509              	.LVL151:
 292:Generated_Source\PSoC5/USB_std.c ****                      
 1510              		.loc 1 292 0
 1511 017e 1279     		ldrb	r2, [r2, #4]	@ zero_extendqisi2
 1512 0180 D2B2     		uxtb	r2, r2
 1513 0182 4349     		ldr	r1, .L151+36
 1514 0184 0A70     		strb	r2, [r1]
 295:Generated_Source\PSoC5/USB_std.c ****                     {
 1515              		.loc 1 295 0
 1516 0186 434A     		ldr	r2, .L151+40
 1517 0188 D25C     		ldrb	r2, [r2, r3]	@ zero_extendqisi2
 1518 018a D2B2     		uxtb	r2, r2
 1519 018c 3D49     		ldr	r1, .L151+24
 1520 018e CB5C     		ldrb	r3, [r1, r3]	@ zero_extendqisi2
 1521              	.LVL152:
 1522 0190 DBB2     		uxtb	r3, r3
 1523 0192 9A42     		cmp	r2, r3
 1524 0194 04D0     		beq	.L126
 297:Generated_Source\PSoC5/USB_std.c ****                     
 1525              		.loc 1 297 0
 1526 0196 0122     		movs	r2, #1
 1527 0198 3C4B     		ldr	r3, .L151+32
 1528 019a 1A70     		strb	r2, [r3]
 303:Generated_Source\PSoC5/USB_std.c ****                     #endif /* (USB_EP_MANAGEMENT_MANUAL && USB_EP_ALLOC_DYNAMIC) */
 1529              		.loc 1 303 0
 1530 019c FFF7FEFF 		bl	USB_ConfigAltChanged
 1531              	.LVL153:
 1532              	.L126:
 307:Generated_Source\PSoC5/USB_std.c ****                 }
 1533              		.loc 1 307 0
 1534 01a0 FFF7FEFF 		bl	USB_InitNoDataControlTransfer
 1535              	.LVL154:
 1536 01a4 10BD     		pop	{r4, pc}
 1537              	.LVL155:
 1538              	.L116:
 312:Generated_Source\PSoC5/USB_std.c ****                 {
 1539              		.loc 1 312 0
 1540 01a6 03F00303 		and	r3, r3, #3
 1541              	.LVL156:
 1542 01aa 012B     		cmp	r3, #1
ARM GAS  C:\Users\CHANTI~1\AppData\Local\Temp\cckZxxwg.s 			page 53


 1543 01ac 17D0     		beq	.L127
 1544 01ae 4BB1     		cbz	r3, .L128
 1545 01b0 022B     		cmp	r3, #2
 1546 01b2 77D1     		bne	.L148
 315:Generated_Source\PSoC5/USB_std.c ****                         {
 1547              		.loc 1 315 0
 1548 01b4 2D4B     		ldr	r3, .L151
 1549 01b6 9B78     		ldrb	r3, [r3, #2]	@ zero_extendqisi2
 1550 01b8 13F0FF0F 		tst	r3, #255
 1551 01bc 74D1     		bne	.L140
 317:Generated_Source\PSoC5/USB_std.c ****                         }
 1552              		.loc 1 317 0
 1553 01be FFF7FEFF 		bl	USB_ClearEndpointHalt
 1554              	.LVL157:
 1555 01c2 10BD     		pop	{r4, pc}
 1556              	.LVL158:
 1557              	.L128:
 322:Generated_Source\PSoC5/USB_std.c ****                         {
 1558              		.loc 1 322 0
 1559 01c4 294B     		ldr	r3, .L151
 1560 01c6 9B78     		ldrb	r3, [r3, #2]	@ zero_extendqisi2
 1561 01c8 DBB2     		uxtb	r3, r3
 1562 01ca 012B     		cmp	r3, #1
 1563 01cc 6ED1     		bne	.L141
 324:Generated_Source\PSoC5/USB_std.c ****                             requestHandled = USB_InitNoDataControlTransfer();
 1564              		.loc 1 324 0
 1565 01ce 2B4A     		ldr	r2, .L151+16
 1566 01d0 1378     		ldrb	r3, [r2]	@ zero_extendqisi2
 1567 01d2 03F0FD03 		and	r3, r3, #253
 1568 01d6 1370     		strb	r3, [r2]
 325:Generated_Source\PSoC5/USB_std.c ****                         }
 1569              		.loc 1 325 0
 1570 01d8 FFF7FEFF 		bl	USB_InitNoDataControlTransfer
 1571              	.LVL159:
 1572 01dc 10BD     		pop	{r4, pc}
 1573              	.LVL160:
 1574              	.L127:
 330:Generated_Source\PSoC5/USB_std.c ****                         {
 1575              		.loc 1 330 0
 1576 01de 234B     		ldr	r3, .L151
 1577 01e0 1B79     		ldrb	r3, [r3, #4]	@ zero_extendqisi2
 1578 01e2 13F0FF0F 		tst	r3, #255
 1579 01e6 63D1     		bne	.L142
 332:Generated_Source\PSoC5/USB_std.c ****                             requestHandled = USB_InitNoDataControlTransfer();
 1580              		.loc 1 332 0
 1581 01e8 204B     		ldr	r3, .L151
 1582 01ea 9878     		ldrb	r0, [r3, #2]	@ zero_extendqisi2
 1583 01ec 1B79     		ldrb	r3, [r3, #4]	@ zero_extendqisi2
 1584 01ee DBB2     		uxtb	r3, r3
 1585 01f0 2949     		ldr	r1, .L151+44
 1586 01f2 CA5C     		ldrb	r2, [r1, r3]	@ zero_extendqisi2
 1587 01f4 22EA0002 		bic	r2, r2, r0
 1588 01f8 CA54     		strb	r2, [r1, r3]
 333:Generated_Source\PSoC5/USB_std.c ****                         }
 1589              		.loc 1 333 0
 1590 01fa FFF7FEFF 		bl	USB_InitNoDataControlTransfer
 1591              	.LVL161:
ARM GAS  C:\Users\CHANTI~1\AppData\Local\Temp\cckZxxwg.s 			page 54


 1592 01fe 10BD     		pop	{r4, pc}
 1593              	.LVL162:
 1594              	.L118:
 342:Generated_Source\PSoC5/USB_std.c ****                 {
 1595              		.loc 1 342 0
 1596 0200 03F00303 		and	r3, r3, #3
 1597              	.LVL163:
 1598 0204 012B     		cmp	r3, #1
 1599 0206 17D0     		beq	.L130
 1600 0208 4BB1     		cbz	r3, .L131
 1601 020a 022B     		cmp	r3, #2
 1602 020c 52D1     		bne	.L149
 345:Generated_Source\PSoC5/USB_std.c ****                         {
 1603              		.loc 1 345 0
 1604 020e 174B     		ldr	r3, .L151
 1605 0210 9B78     		ldrb	r3, [r3, #2]	@ zero_extendqisi2
 1606 0212 13F0FF0F 		tst	r3, #255
 1607 0216 4FD1     		bne	.L144
 347:Generated_Source\PSoC5/USB_std.c ****                         }
 1608              		.loc 1 347 0
 1609 0218 FFF7FEFF 		bl	USB_SetEndpointHalt
 1610              	.LVL164:
 1611 021c 10BD     		pop	{r4, pc}
 1612              	.LVL165:
 1613              	.L131:
 353:Generated_Source\PSoC5/USB_std.c ****                         {
 1614              		.loc 1 353 0
 1615 021e 134B     		ldr	r3, .L151
 1616 0220 9B78     		ldrb	r3, [r3, #2]	@ zero_extendqisi2
 1617 0222 DBB2     		uxtb	r3, r3
 1618 0224 012B     		cmp	r3, #1
 1619 0226 49D1     		bne	.L145
 355:Generated_Source\PSoC5/USB_std.c ****                             requestHandled = USB_InitNoDataControlTransfer();
 1620              		.loc 1 355 0
 1621 0228 144A     		ldr	r2, .L151+16
 1622 022a 1378     		ldrb	r3, [r2]	@ zero_extendqisi2
 1623 022c 43F00203 		orr	r3, r3, #2
 1624 0230 1370     		strb	r3, [r2]
 356:Generated_Source\PSoC5/USB_std.c ****                         }
 1625              		.loc 1 356 0
 1626 0232 FFF7FEFF 		bl	USB_InitNoDataControlTransfer
 1627              	.LVL166:
 1628 0236 10BD     		pop	{r4, pc}
 1629              	.LVL167:
 1630              	.L130:
 362:Generated_Source\PSoC5/USB_std.c ****                         {
 1631              		.loc 1 362 0
 1632 0238 0C4B     		ldr	r3, .L151
 1633 023a 1B79     		ldrb	r3, [r3, #4]	@ zero_extendqisi2
 1634 023c 13F0FF0F 		tst	r3, #255
 1635 0240 3ED1     		bne	.L146
 364:Generated_Source\PSoC5/USB_std.c ****                             requestHandled = USB_InitNoDataControlTransfer();
 1636              		.loc 1 364 0
 1637 0242 0A4B     		ldr	r3, .L151
 1638 0244 9878     		ldrb	r0, [r3, #2]	@ zero_extendqisi2
 1639 0246 1B79     		ldrb	r3, [r3, #4]	@ zero_extendqisi2
 1640 0248 DBB2     		uxtb	r3, r3
ARM GAS  C:\Users\CHANTI~1\AppData\Local\Temp\cckZxxwg.s 			page 55


 1641 024a 1349     		ldr	r1, .L151+44
 1642 024c CA5C     		ldrb	r2, [r1, r3]	@ zero_extendqisi2
 1643 024e 22EA0002 		bic	r2, r2, r0
 1644 0252 CA54     		strb	r2, [r1, r3]
 365:Generated_Source\PSoC5/USB_std.c ****                         }
 1645              		.loc 1 365 0
 1646 0254 FFF7FEFF 		bl	USB_InitNoDataControlTransfer
 1647              	.LVL168:
 1648 0258 10BD     		pop	{r4, pc}
 1649              	.LVL169:
 1650              	.L133:
  86:Generated_Source\PSoC5/USB_std.c ****     uint8 interfaceNumber;
 1651              		.loc 1 86 0
 1652 025a 0020     		movs	r0, #0
 1653 025c 10BD     		pop	{r4, pc}
 1654              	.LVL170:
 1655              	.L134:
 1656 025e 0020     		movs	r0, #0
 1657              	.LVL171:
 1658 0260 10BD     		pop	{r4, pc}
 1659              	.L147:
 1660 0262 0020     		movs	r0, #0
 1661 0264 10BD     		pop	{r4, pc}
 1662              	.LVL172:
 1663              	.L136:
 1664 0266 0020     		movs	r0, #0
 1665 0268 10BD     		pop	{r4, pc}
 1666              	.L152:
 1667 026a 00BF     		.align	2
 1668              	.L151:
 1669 026c 00600040 		.word	1073766400
 1670 0270 00000000 		.word	USB_currentTD
 1671 0274 00000000 		.word	USB_EP
 1672 0278 00000000 		.word	.LANCHOR0
 1673 027c 00000000 		.word	USB_deviceStatus
 1674 0280 00000000 		.word	USB_configuration
 1675 0284 00000000 		.word	USB_interfaceSetting
 1676 0288 00000000 		.word	USB_deviceAddress
 1677 028c 00000000 		.word	USB_configurationChanged
 1678 0290 00000000 		.word	USB_interfaceNumber
 1679 0294 00000000 		.word	USB_interfaceSettingLast
 1680 0298 00000000 		.word	USB_interfaceStatus
 1681              	.LVL173:
 1682              	.L137:
 1683 029c 0020     		movs	r0, #0
 1684              	.LVL174:
 1685 029e 10BD     		pop	{r4, pc}
 1686              	.L138:
 1687 02a0 0020     		movs	r0, #0
 1688 02a2 10BD     		pop	{r4, pc}
 1689              	.L148:
 1690 02a4 0020     		movs	r0, #0
 1691 02a6 10BD     		pop	{r4, pc}
 1692              	.L140:
 1693 02a8 0020     		movs	r0, #0
 1694 02aa 10BD     		pop	{r4, pc}
 1695              	.L141:
ARM GAS  C:\Users\CHANTI~1\AppData\Local\Temp\cckZxxwg.s 			page 56


 1696 02ac 0020     		movs	r0, #0
 1697 02ae 10BD     		pop	{r4, pc}
 1698              	.L142:
 1699 02b0 0020     		movs	r0, #0
 1700 02b2 10BD     		pop	{r4, pc}
 1701              	.L149:
 1702 02b4 0020     		movs	r0, #0
 1703 02b6 10BD     		pop	{r4, pc}
 1704              	.L144:
 1705 02b8 0020     		movs	r0, #0
 1706 02ba 10BD     		pop	{r4, pc}
 1707              	.L145:
 1708 02bc 0020     		movs	r0, #0
 1709 02be 10BD     		pop	{r4, pc}
 1710              	.L146:
 1711 02c0 0020     		movs	r0, #0
 1712              	.LVL175:
 380:Generated_Source\PSoC5/USB_std.c **** 
 1713              		.loc 1 380 0
 1714 02c2 10BD     		pop	{r4, pc}
 1715              		.cfi_endproc
 1716              	.LFE0:
 1717              		.size	USB_HandleStandardRqst, .-USB_HandleStandardRqst
 1718              		.bss
 1719              		.align	2
 1720              		.set	.LANCHOR0,. + 0
 1721              		.type	USB_tBuffer.5176, %object
 1722              		.size	USB_tBuffer.5176, 2
 1723              	USB_tBuffer.5176:
 1724 0000 0000     		.space	2
 1725              		.text
 1726              	.Letext0:
 1727              		.file 2 "Generated_Source\\PSoC5\\cytypes.h"
 1728              		.file 3 "Generated_Source\\PSoC5\\USB.h"
 1729              		.file 4 "Generated_Source\\PSoC5\\USB_pvt.h"